
proyecto.elf:     file format elf32-littlearm

Sections:
Idx Name          Size      VMA       LMA       File off  Algn
  0 .text         0000a17c  0c100000  0c100000  00008000  2**2
                  CONTENTS, ALLOC, LOAD, READONLY, CODE
  1 .rodata       00001c70  0c10a17c  0c10a17c  0001217c  2**2
                  CONTENTS, ALLOC, LOAD, READONLY, DATA
  2 .ARM.exidx    00000008  0c10bdec  0c10bdec  00013dec  2**2
                  CONTENTS, ALLOC, LOAD, READONLY, DATA
  3 .data         00000014  0c10bdf4  0c10bdf4  00013df4  2**2
                  CONTENTS, ALLOC, LOAD, DATA
  4 .lcdbuffer    00009600  0c10be08  0c10be08  00013e08  2**2
                  CONTENTS, ALLOC, LOAD, DATA
  5 .bss          00000191  0c115408  0c115408  0001d408  2**2
                  ALLOC
  6 .debug_abbrev 00000ee9  00000000  00000000  0001d408  2**0
                  CONTENTS, READONLY, DEBUGGING
  7 .debug_info   000031ff  00000000  00000000  0001e2f1  2**0
                  CONTENTS, READONLY, DEBUGGING
  8 .debug_line   000016a0  00000000  00000000  000214f0  2**0
                  CONTENTS, READONLY, DEBUGGING
  9 .debug_macinfo 000458f4  00000000  00000000  00022b90  2**0
                  CONTENTS, READONLY, DEBUGGING
 10 .debug_loc    00001bd8  00000000  00000000  00068484  2**0
                  CONTENTS, READONLY, DEBUGGING
 11 .debug_pubnames 00000bed  00000000  00000000  0006a05c  2**0
                  CONTENTS, READONLY, DEBUGGING
 12 .debug_pubtypes 000003b3  00000000  00000000  0006ac49  2**0
                  CONTENTS, READONLY, DEBUGGING
 13 .debug_aranges 000001e0  00000000  00000000  0006affc  2**0
                  CONTENTS, READONLY, DEBUGGING
 14 .debug_str    00000f32  00000000  00000000  0006b1dc  2**0
                  CONTENTS, READONLY, DEBUGGING
 15 .comment      0000002a  00000000  00000000  0006c10e  2**0
                  CONTENTS, READONLY
 16 .ARM.attributes 00000032  00000000  00000000  0006c138  2**0
                  CONTENTS, READONLY
 17 .debug_frame  00001854  00000000  00000000  0006c16c  2**2
                  CONTENTS, READONLY, DEBUGGING

Disassembly of section .text:

0c100000 <calculate_weekday>:
 *      Author: march
 */
#include "Extra_Fuctions.h"


char* calculate_weekday(uint8 week_day) {
 c100000:	e1a0c00d 	mov	ip, sp
 c100004:	e92dd800 	push	{fp, ip, lr, pc}
 c100008:	e24cb004 	sub	fp, ip, #4
 c10000c:	e24dd008 	sub	sp, sp, #8
 c100010:	e1a03000 	mov	r3, r0
 c100014:	e54b300d 	strb	r3, [fp, #-13]
	switch (week_day) {
 c100018:	e55b300d 	ldrb	r3, [fp, #-13]
 c10001c:	e2433001 	sub	r3, r3, #1
 c100020:	e3530006 	cmp	r3, #6
 c100024:	979ff103 	ldrls	pc, [pc, r3, lsl #2]
 c100028:	ea000014 	b	c100080 <_code_start+0x80>
 c10002c:	0c100048 	.word	0x0c100048
 c100030:	0c100050 	.word	0x0c100050
 c100034:	0c100058 	.word	0x0c100058
 c100038:	0c100060 	.word	0x0c100060
 c10003c:	0c100068 	.word	0x0c100068
 c100040:	0c100070 	.word	0x0c100070
 c100044:	0c100078 	.word	0x0c100078
	        case 1: return "dom"; // Domingo
 c100048:	e59f3044 	ldr	r3, [pc, #68]	; c100094 <_code_start+0x94>
 c10004c:	ea00000c 	b	c100084 <_code_start+0x84>
	        case 2: return "lun"; // Lunes
 c100050:	e59f3040 	ldr	r3, [pc, #64]	; c100098 <_code_start+0x98>
 c100054:	ea00000a 	b	c100084 <_code_start+0x84>
	        case 3: return "mar"; // Martes
 c100058:	e59f303c 	ldr	r3, [pc, #60]	; c10009c <_code_start+0x9c>
 c10005c:	ea000008 	b	c100084 <_code_start+0x84>
	        case 4: return "mie"; // Miércoles
 c100060:	e59f3038 	ldr	r3, [pc, #56]	; c1000a0 <_code_start+0xa0>
 c100064:	ea000006 	b	c100084 <_code_start+0x84>
	        case 5: return "jue"; // Jueves
 c100068:	e59f3034 	ldr	r3, [pc, #52]	; c1000a4 <_code_start+0xa4>
 c10006c:	ea000004 	b	c100084 <_code_start+0x84>
	        case 6: return "vie"; // Viernes
 c100070:	e59f3030 	ldr	r3, [pc, #48]	; c1000a8 <_code_start+0xa8>
 c100074:	ea000002 	b	c100084 <_code_start+0x84>
	        case 7: return "sab"; // Sábado
 c100078:	e59f302c 	ldr	r3, [pc, #44]	; c1000ac <_code_start+0xac>
 c10007c:	ea000000 	b	c100084 <_code_start+0x84>
 c100080:	eaffffff 	b	c100084 <_code_start+0x84>
    }
}
 c100084:	e1a00003 	mov	r0, r3
 c100088:	e24bd00c 	sub	sp, fp, #12
 c10008c:	e89d6800 	ldm	sp, {fp, sp, lr}
 c100090:	e12fff1e 	bx	lr
 c100094:	0c10a17c 	.word	0x0c10a17c
 c100098:	0c10a180 	.word	0x0c10a180
 c10009c:	0c10a184 	.word	0x0c10a184
 c1000a0:	0c10a188 	.word	0x0c10a188
 c1000a4:	0c10a18c 	.word	0x0c10a18c
 c1000a8:	0c10a190 	.word	0x0c10a190
 c1000ac:	0c10a194 	.word	0x0c10a194

0c1000b0 <dates_comparator>:
boolean dates_comparator(rtc_time_t actual_time, rtc_time_t time){
 c1000b0:	e1a0c00d 	mov	ip, sp
 c1000b4:	e92dd800 	push	{fp, ip, lr, pc}
 c1000b8:	e24cb004 	sub	fp, ip, #4
 c1000bc:	e24dd010 	sub	sp, sp, #16
 c1000c0:	e24bc014 	sub	ip, fp, #20
 c1000c4:	e88c0003 	stm	ip, {r0, r1}
 c1000c8:	e24b101c 	sub	r1, fp, #28
 c1000cc:	e881000c 	stm	r1, {r2, r3}
	    // Compara cada campo de mayor a menor granularidad
	    if (actual_time.year > time.year) return TRUE;
 c1000d0:	e55b200e 	ldrb	r2, [fp, #-14]
 c1000d4:	e55b3016 	ldrb	r3, [fp, #-22]	; 0xffffffea
 c1000d8:	e1520003 	cmp	r2, r3
 c1000dc:	9a000001 	bls	c1000e8 <dates_comparator+0x38>
 c1000e0:	e3a03001 	mov	r3, #1
 c1000e4:	ea00003c 	b	c1001dc <dates_comparator+0x12c>
	    if (actual_time.year < time.year) return FALSE;
 c1000e8:	e55b200e 	ldrb	r2, [fp, #-14]
 c1000ec:	e55b3016 	ldrb	r3, [fp, #-22]	; 0xffffffea
 c1000f0:	e1520003 	cmp	r2, r3
 c1000f4:	2a000001 	bcs	c100100 <dates_comparator+0x50>
 c1000f8:	e3a03000 	mov	r3, #0
 c1000fc:	ea000036 	b	c1001dc <dates_comparator+0x12c>

	    if (actual_time.mon > time.mon) return TRUE;
 c100100:	e55b200f 	ldrb	r2, [fp, #-15]
 c100104:	e55b3017 	ldrb	r3, [fp, #-23]	; 0xffffffe9
 c100108:	e1520003 	cmp	r2, r3
 c10010c:	9a000001 	bls	c100118 <dates_comparator+0x68>
 c100110:	e3a03001 	mov	r3, #1
 c100114:	ea000030 	b	c1001dc <dates_comparator+0x12c>
	    if (actual_time.mon < time.mon) return FALSE;
 c100118:	e55b200f 	ldrb	r2, [fp, #-15]
 c10011c:	e55b3017 	ldrb	r3, [fp, #-23]	; 0xffffffe9
 c100120:	e1520003 	cmp	r2, r3
 c100124:	2a000001 	bcs	c100130 <dates_comparator+0x80>
 c100128:	e3a03000 	mov	r3, #0
 c10012c:	ea00002a 	b	c1001dc <dates_comparator+0x12c>

	    if (actual_time.mday > time.mday) return TRUE;
 c100130:	e55b2011 	ldrb	r2, [fp, #-17]	; 0xffffffef
 c100134:	e55b3019 	ldrb	r3, [fp, #-25]	; 0xffffffe7
 c100138:	e1520003 	cmp	r2, r3
 c10013c:	9a000001 	bls	c100148 <dates_comparator+0x98>
 c100140:	e3a03001 	mov	r3, #1
 c100144:	ea000024 	b	c1001dc <dates_comparator+0x12c>
	    if (actual_time.mday < time.mday) return FALSE;
 c100148:	e55b2011 	ldrb	r2, [fp, #-17]	; 0xffffffef
 c10014c:	e55b3019 	ldrb	r3, [fp, #-25]	; 0xffffffe7
 c100150:	e1520003 	cmp	r2, r3
 c100154:	2a000001 	bcs	c100160 <dates_comparator+0xb0>
 c100158:	e3a03000 	mov	r3, #0
 c10015c:	ea00001e 	b	c1001dc <dates_comparator+0x12c>

	    if (actual_time.hour > time.hour) return TRUE;
 c100160:	e55b2012 	ldrb	r2, [fp, #-18]	; 0xffffffee
 c100164:	e55b301a 	ldrb	r3, [fp, #-26]	; 0xffffffe6
 c100168:	e1520003 	cmp	r2, r3
 c10016c:	9a000001 	bls	c100178 <dates_comparator+0xc8>
 c100170:	e3a03001 	mov	r3, #1
 c100174:	ea000018 	b	c1001dc <dates_comparator+0x12c>
	    if (actual_time.hour < time.hour) return FALSE;
 c100178:	e55b2012 	ldrb	r2, [fp, #-18]	; 0xffffffee
 c10017c:	e55b301a 	ldrb	r3, [fp, #-26]	; 0xffffffe6
 c100180:	e1520003 	cmp	r2, r3
 c100184:	2a000001 	bcs	c100190 <dates_comparator+0xe0>
 c100188:	e3a03000 	mov	r3, #0
 c10018c:	ea000012 	b	c1001dc <dates_comparator+0x12c>

	    if (actual_time.min > time.min) return TRUE;
 c100190:	e55b2013 	ldrb	r2, [fp, #-19]	; 0xffffffed
 c100194:	e55b301b 	ldrb	r3, [fp, #-27]	; 0xffffffe5
 c100198:	e1520003 	cmp	r2, r3
 c10019c:	9a000001 	bls	c1001a8 <dates_comparator+0xf8>
 c1001a0:	e3a03001 	mov	r3, #1
 c1001a4:	ea00000c 	b	c1001dc <dates_comparator+0x12c>
	    if (actual_time.min < time.min) return FALSE;
 c1001a8:	e55b2013 	ldrb	r2, [fp, #-19]	; 0xffffffed
 c1001ac:	e55b301b 	ldrb	r3, [fp, #-27]	; 0xffffffe5
 c1001b0:	e1520003 	cmp	r2, r3
 c1001b4:	2a000001 	bcs	c1001c0 <dates_comparator+0x110>
 c1001b8:	e3a03000 	mov	r3, #0
 c1001bc:	ea000006 	b	c1001dc <dates_comparator+0x12c>

	    if (actual_time.sec >= time.sec) return TRUE;
 c1001c0:	e55b2014 	ldrb	r2, [fp, #-20]	; 0xffffffec
 c1001c4:	e55b301c 	ldrb	r3, [fp, #-28]	; 0xffffffe4
 c1001c8:	e1520003 	cmp	r2, r3
 c1001cc:	3a000001 	bcc	c1001d8 <dates_comparator+0x128>
 c1001d0:	e3a03001 	mov	r3, #1
 c1001d4:	ea000000 	b	c1001dc <dates_comparator+0x12c>


	    return FALSE;
 c1001d8:	e3a03000 	mov	r3, #0
}
 c1001dc:	e1a00003 	mov	r0, r3
 c1001e0:	e24bd00c 	sub	sp, fp, #12
 c1001e4:	e89d6800 	ldm	sp, {fp, sp, lr}
 c1001e8:	e12fff1e 	bx	lr

0c1001ec <reset_rtc_time>:
void reset_rtc_time(rtc_time_t *time) {
 c1001ec:	e1a0c00d 	mov	ip, sp
 c1001f0:	e92dd800 	push	{fp, ip, lr, pc}
 c1001f4:	e24cb004 	sub	fp, ip, #4
 c1001f8:	e24dd008 	sub	sp, sp, #8
 c1001fc:	e50b0010 	str	r0, [fp, #-16]
    time->sec = 0;
 c100200:	e51b3010 	ldr	r3, [fp, #-16]
 c100204:	e3a02000 	mov	r2, #0
 c100208:	e5c32000 	strb	r2, [r3]
    time->min = 0;
 c10020c:	e51b3010 	ldr	r3, [fp, #-16]
 c100210:	e3a02000 	mov	r2, #0
 c100214:	e5c32001 	strb	r2, [r3, #1]
    time->hour = 0;
 c100218:	e51b3010 	ldr	r3, [fp, #-16]
 c10021c:	e3a02000 	mov	r2, #0
 c100220:	e5c32002 	strb	r2, [r3, #2]
    time->mday = 0;
 c100224:	e51b3010 	ldr	r3, [fp, #-16]
 c100228:	e3a02000 	mov	r2, #0
 c10022c:	e5c32003 	strb	r2, [r3, #3]
    time->wday = 0;
 c100230:	e51b3010 	ldr	r3, [fp, #-16]
 c100234:	e3a02000 	mov	r2, #0
 c100238:	e5c32004 	strb	r2, [r3, #4]
    time->mon = 0;
 c10023c:	e51b3010 	ldr	r3, [fp, #-16]
 c100240:	e3a02000 	mov	r2, #0
 c100244:	e5c32005 	strb	r2, [r3, #5]
    time->year = 0;
 c100248:	e51b3010 	ldr	r3, [fp, #-16]
 c10024c:	e3a02000 	mov	r2, #0
 c100250:	e5c32006 	strb	r2, [r3, #6]
}
 c100254:	e24bd00c 	sub	sp, fp, #12
 c100258:	e89d6800 	ldm	sp, {fp, sp, lr}
 c10025c:	e12fff1e 	bx	lr

0c100260 <adjust_rtc_time>:
// Función para ajustar los límites de cada campo
void adjust_rtc_time(rtc_time_t *time) {
 c100260:	e1a0c00d 	mov	ip, sp
 c100264:	e92dd810 	push	{r4, fp, ip, lr, pc}
 c100268:	e24cb004 	sub	fp, ip, #4
 c10026c:	e24dd014 	sub	sp, sp, #20
 c100270:	e50b0020 	str	r0, [fp, #-32]	; 0xffffffe0
    static const uint8 days_in_month[] = { 31, 28, 31, 30, 31, 30, 31, 31, 30, 31, 30, 31 };

    if (time->sec >= 60) {
 c100274:	e51b3020 	ldr	r3, [fp, #-32]	; 0xffffffe0
 c100278:	e5d33000 	ldrb	r3, [r3]
 c10027c:	e353003b 	cmp	r3, #59	; 0x3b
 c100280:	9a000018 	bls	c1002e8 <adjust_rtc_time+0x88>
        time->min += time->sec / 60;
 c100284:	e51b3020 	ldr	r3, [fp, #-32]	; 0xffffffe0
 c100288:	e5d32001 	ldrb	r2, [r3, #1]
 c10028c:	e51b3020 	ldr	r3, [fp, #-32]	; 0xffffffe0
 c100290:	e5d31000 	ldrb	r1, [r3]
 c100294:	e59f3364 	ldr	r3, [pc, #868]	; c100600 <adjust_rtc_time+0x3a0>
 c100298:	e0830391 	umull	r0, r3, r1, r3
 c10029c:	e1a032a3 	lsr	r3, r3, #5
 c1002a0:	e20330ff 	and	r3, r3, #255	; 0xff
 c1002a4:	e0823003 	add	r3, r2, r3
 c1002a8:	e20320ff 	and	r2, r3, #255	; 0xff
 c1002ac:	e51b3020 	ldr	r3, [fp, #-32]	; 0xffffffe0
 c1002b0:	e5c32001 	strb	r2, [r3, #1]
        time->sec %= 60;
 c1002b4:	e51b3020 	ldr	r3, [fp, #-32]	; 0xffffffe0
 c1002b8:	e5d32000 	ldrb	r2, [r3]
 c1002bc:	e59f333c 	ldr	r3, [pc, #828]	; c100600 <adjust_rtc_time+0x3a0>
 c1002c0:	e0831392 	umull	r1, r3, r2, r3
 c1002c4:	e1a012a3 	lsr	r1, r3, #5
 c1002c8:	e1a03001 	mov	r3, r1
 c1002cc:	e1a03203 	lsl	r3, r3, #4
 c1002d0:	e0613003 	rsb	r3, r1, r3
 c1002d4:	e1a03103 	lsl	r3, r3, #2
 c1002d8:	e0633002 	rsb	r3, r3, r2
 c1002dc:	e20320ff 	and	r2, r3, #255	; 0xff
 c1002e0:	e51b3020 	ldr	r3, [fp, #-32]	; 0xffffffe0
 c1002e4:	e5c32000 	strb	r2, [r3]
    }
    if (time->min >= 60) {
 c1002e8:	e51b3020 	ldr	r3, [fp, #-32]	; 0xffffffe0
 c1002ec:	e5d33001 	ldrb	r3, [r3, #1]
 c1002f0:	e353003b 	cmp	r3, #59	; 0x3b
 c1002f4:	9a000018 	bls	c10035c <adjust_rtc_time+0xfc>
        time->hour += time->min / 60;
 c1002f8:	e51b3020 	ldr	r3, [fp, #-32]	; 0xffffffe0
 c1002fc:	e5d32002 	ldrb	r2, [r3, #2]
 c100300:	e51b3020 	ldr	r3, [fp, #-32]	; 0xffffffe0
 c100304:	e5d31001 	ldrb	r1, [r3, #1]
 c100308:	e59f32f0 	ldr	r3, [pc, #752]	; c100600 <adjust_rtc_time+0x3a0>
 c10030c:	e0830391 	umull	r0, r3, r1, r3
 c100310:	e1a032a3 	lsr	r3, r3, #5
 c100314:	e20330ff 	and	r3, r3, #255	; 0xff
 c100318:	e0823003 	add	r3, r2, r3
 c10031c:	e20320ff 	and	r2, r3, #255	; 0xff
 c100320:	e51b3020 	ldr	r3, [fp, #-32]	; 0xffffffe0
 c100324:	e5c32002 	strb	r2, [r3, #2]
        time->min %= 60;
 c100328:	e51b3020 	ldr	r3, [fp, #-32]	; 0xffffffe0
 c10032c:	e5d32001 	ldrb	r2, [r3, #1]
 c100330:	e59f32c8 	ldr	r3, [pc, #712]	; c100600 <adjust_rtc_time+0x3a0>
 c100334:	e0831392 	umull	r1, r3, r2, r3
 c100338:	e1a012a3 	lsr	r1, r3, #5
 c10033c:	e1a03001 	mov	r3, r1
 c100340:	e1a03203 	lsl	r3, r3, #4
 c100344:	e0613003 	rsb	r3, r1, r3
 c100348:	e1a03103 	lsl	r3, r3, #2
 c10034c:	e0633002 	rsb	r3, r3, r2
 c100350:	e20320ff 	and	r2, r3, #255	; 0xff
 c100354:	e51b3020 	ldr	r3, [fp, #-32]	; 0xffffffe0
 c100358:	e5c32001 	strb	r2, [r3, #1]
    }
    if (time->hour >= 24) {
 c10035c:	e51b3020 	ldr	r3, [fp, #-32]	; 0xffffffe0
 c100360:	e5d33002 	ldrb	r3, [r3, #2]
 c100364:	e3530017 	cmp	r3, #23
 c100368:	9a000018 	bls	c1003d0 <adjust_rtc_time+0x170>
        time->mday += time->hour / 24;
 c10036c:	e51b3020 	ldr	r3, [fp, #-32]	; 0xffffffe0
 c100370:	e5d32003 	ldrb	r2, [r3, #3]
 c100374:	e51b3020 	ldr	r3, [fp, #-32]	; 0xffffffe0
 c100378:	e5d31002 	ldrb	r1, [r3, #2]
 c10037c:	e59f3280 	ldr	r3, [pc, #640]	; c100604 <adjust_rtc_time+0x3a4>
 c100380:	e0830391 	umull	r0, r3, r1, r3
 c100384:	e1a03223 	lsr	r3, r3, #4
 c100388:	e20330ff 	and	r3, r3, #255	; 0xff
 c10038c:	e0823003 	add	r3, r2, r3
 c100390:	e20320ff 	and	r2, r3, #255	; 0xff
 c100394:	e51b3020 	ldr	r3, [fp, #-32]	; 0xffffffe0
 c100398:	e5c32003 	strb	r2, [r3, #3]
        time->hour %= 24;
 c10039c:	e51b3020 	ldr	r3, [fp, #-32]	; 0xffffffe0
 c1003a0:	e5d32002 	ldrb	r2, [r3, #2]
 c1003a4:	e59f3258 	ldr	r3, [pc, #600]	; c100604 <adjust_rtc_time+0x3a4>
 c1003a8:	e0831392 	umull	r1, r3, r2, r3
 c1003ac:	e1a01223 	lsr	r1, r3, #4
 c1003b0:	e1a03001 	mov	r3, r1
 c1003b4:	e1a03083 	lsl	r3, r3, #1
 c1003b8:	e0833001 	add	r3, r3, r1
 c1003bc:	e1a03183 	lsl	r3, r3, #3
 c1003c0:	e0633002 	rsb	r3, r3, r2
 c1003c4:	e20320ff 	and	r2, r3, #255	; 0xff
 c1003c8:	e51b3020 	ldr	r3, [fp, #-32]	; 0xffffffe0
 c1003cc:	e5c32002 	strb	r2, [r3, #2]
    }

    // Ajustar días y meses
    uint8 max_days = days_in_month[time->mon - 1];
 c1003d0:	e51b3020 	ldr	r3, [fp, #-32]	; 0xffffffe0
 c1003d4:	e5d33005 	ldrb	r3, [r3, #5]
 c1003d8:	e2433001 	sub	r3, r3, #1
 c1003dc:	e59f2224 	ldr	r2, [pc, #548]	; c100608 <adjust_rtc_time+0x3a8>
 c1003e0:	e7d23003 	ldrb	r3, [r2, r3]
 c1003e4:	e54b3015 	strb	r3, [fp, #-21]	; 0xffffffeb
    if (time->mon == 2 && ((time->year % 4 == 0 && time->year % 100 != 0) || time->year % 400 == 0)) {
 c1003e8:	e51b3020 	ldr	r3, [fp, #-32]	; 0xffffffe0
 c1003ec:	e5d33005 	ldrb	r3, [r3, #5]
 c1003f0:	e3530002 	cmp	r3, #2
 c1003f4:	1a000027 	bne	c100498 <adjust_rtc_time+0x238>
 c1003f8:	e51b3020 	ldr	r3, [fp, #-32]	; 0xffffffe0
 c1003fc:	e5d33006 	ldrb	r3, [r3, #6]
 c100400:	e2033003 	and	r3, r3, #3
 c100404:	e20330ff 	and	r3, r3, #255	; 0xff
 c100408:	e3530000 	cmp	r3, #0
 c10040c:	1a00000e 	bne	c10044c <adjust_rtc_time+0x1ec>
 c100410:	e51b3020 	ldr	r3, [fp, #-32]	; 0xffffffe0
 c100414:	e5d32006 	ldrb	r2, [r3, #6]
 c100418:	e59f31ec 	ldr	r3, [pc, #492]	; c10060c <adjust_rtc_time+0x3ac>
 c10041c:	e0830392 	umull	r0, r3, r2, r3
 c100420:	e1a012a3 	lsr	r1, r3, #5
 c100424:	e1a03001 	mov	r3, r1
 c100428:	e1a03103 	lsl	r3, r3, #2
 c10042c:	e0833001 	add	r3, r3, r1
 c100430:	e1a01103 	lsl	r1, r3, #2
 c100434:	e0833001 	add	r3, r3, r1
 c100438:	e1a03103 	lsl	r3, r3, #2
 c10043c:	e0633002 	rsb	r3, r3, r2
 c100440:	e20330ff 	and	r3, r3, #255	; 0xff
 c100444:	e3530000 	cmp	r3, #0
 c100448:	1a000010 	bne	c100490 <adjust_rtc_time+0x230>
 c10044c:	e51b3020 	ldr	r3, [fp, #-32]	; 0xffffffe0
 c100450:	e5d33006 	ldrb	r3, [r3, #6]
 c100454:	e1a01003 	mov	r1, r3
 c100458:	e59f31ac 	ldr	r3, [pc, #428]	; c10060c <adjust_rtc_time+0x3ac>
 c10045c:	e0c32391 	smull	r2, r3, r1, r3
 c100460:	e1a023c3 	asr	r2, r3, #7
 c100464:	e1a03fc1 	asr	r3, r1, #31
 c100468:	e0632002 	rsb	r2, r3, r2
 c10046c:	e1a03002 	mov	r3, r2
 c100470:	e1a03103 	lsl	r3, r3, #2
 c100474:	e0833002 	add	r3, r3, r2
 c100478:	e1a02103 	lsl	r2, r3, #2
 c10047c:	e0833002 	add	r3, r3, r2
 c100480:	e1a03203 	lsl	r3, r3, #4
 c100484:	e0632001 	rsb	r2, r3, r1
 c100488:	e3520000 	cmp	r2, #0
 c10048c:	1a000001 	bne	c100498 <adjust_rtc_time+0x238>
        max_days = 29; // Año bisiesto
 c100490:	e3a0301d 	mov	r3, #29
 c100494:	e54b3015 	strb	r3, [fp, #-21]	; 0xffffffeb
    }
    if (time->mday > max_days) {
 c100498:	e51b3020 	ldr	r3, [fp, #-32]	; 0xffffffe0
 c10049c:	e5d33003 	ldrb	r3, [r3, #3]
 c1004a0:	e55b2015 	ldrb	r2, [fp, #-21]	; 0xffffffeb
 c1004a4:	e1520003 	cmp	r2, r3
 c1004a8:	2a00001a 	bcs	c100518 <adjust_rtc_time+0x2b8>
        time->mon += time->mday / max_days;
 c1004ac:	e51b3020 	ldr	r3, [fp, #-32]	; 0xffffffe0
 c1004b0:	e5d34005 	ldrb	r4, [r3, #5]
 c1004b4:	e51b3020 	ldr	r3, [fp, #-32]	; 0xffffffe0
 c1004b8:	e5d32003 	ldrb	r2, [r3, #3]
 c1004bc:	e55b3015 	ldrb	r3, [fp, #-21]	; 0xffffffeb
 c1004c0:	e1a00002 	mov	r0, r2
 c1004c4:	e1a01003 	mov	r1, r3
 c1004c8:	eb00241b 	bl	c10953c <__aeabi_uidiv>
 c1004cc:	e1a03000 	mov	r3, r0
 c1004d0:	e20330ff 	and	r3, r3, #255	; 0xff
 c1004d4:	e0843003 	add	r3, r4, r3
 c1004d8:	e20320ff 	and	r2, r3, #255	; 0xff
 c1004dc:	e51b3020 	ldr	r3, [fp, #-32]	; 0xffffffe0
 c1004e0:	e5c32005 	strb	r2, [r3, #5]
        time->mday = (time->mday - 1) % max_days + 1;
 c1004e4:	e51b3020 	ldr	r3, [fp, #-32]	; 0xffffffe0
 c1004e8:	e5d33003 	ldrb	r3, [r3, #3]
 c1004ec:	e2432001 	sub	r2, r3, #1
 c1004f0:	e55b3015 	ldrb	r3, [fp, #-21]	; 0xffffffeb
 c1004f4:	e1a00002 	mov	r0, r2
 c1004f8:	e1a01003 	mov	r1, r3
 c1004fc:	eb00249d 	bl	c109778 <__aeabi_idivmod>
 c100500:	e1a03001 	mov	r3, r1
 c100504:	e20330ff 	and	r3, r3, #255	; 0xff
 c100508:	e2833001 	add	r3, r3, #1
 c10050c:	e20320ff 	and	r2, r3, #255	; 0xff
 c100510:	e51b3020 	ldr	r3, [fp, #-32]	; 0xffffffe0
 c100514:	e5c32003 	strb	r2, [r3, #3]
    }
    if (time->mon > 12) {
 c100518:	e51b3020 	ldr	r3, [fp, #-32]	; 0xffffffe0
 c10051c:	e5d33005 	ldrb	r3, [r3, #5]
 c100520:	e353000c 	cmp	r3, #12
 c100524:	9a00001d 	bls	c1005a0 <adjust_rtc_time+0x340>
        time->year += time->mon / 12;
 c100528:	e51b3020 	ldr	r3, [fp, #-32]	; 0xffffffe0
 c10052c:	e5d32006 	ldrb	r2, [r3, #6]
 c100530:	e51b3020 	ldr	r3, [fp, #-32]	; 0xffffffe0
 c100534:	e5d31005 	ldrb	r1, [r3, #5]
 c100538:	e59f30c4 	ldr	r3, [pc, #196]	; c100604 <adjust_rtc_time+0x3a4>
 c10053c:	e0830391 	umull	r0, r3, r1, r3
 c100540:	e1a031a3 	lsr	r3, r3, #3
 c100544:	e20330ff 	and	r3, r3, #255	; 0xff
 c100548:	e0823003 	add	r3, r2, r3
 c10054c:	e20320ff 	and	r2, r3, #255	; 0xff
 c100550:	e51b3020 	ldr	r3, [fp, #-32]	; 0xffffffe0
 c100554:	e5c32006 	strb	r2, [r3, #6]
        time->mon = (time->mon - 1) % 12 + 1;
 c100558:	e51b3020 	ldr	r3, [fp, #-32]	; 0xffffffe0
 c10055c:	e5d33005 	ldrb	r3, [r3, #5]
 c100560:	e2431001 	sub	r1, r3, #1
 c100564:	e59f30a4 	ldr	r3, [pc, #164]	; c100610 <adjust_rtc_time+0x3b0>
 c100568:	e0c32391 	smull	r2, r3, r1, r3
 c10056c:	e1a020c3 	asr	r2, r3, #1
 c100570:	e1a03fc1 	asr	r3, r1, #31
 c100574:	e0632002 	rsb	r2, r3, r2
 c100578:	e1a03002 	mov	r3, r2
 c10057c:	e1a03083 	lsl	r3, r3, #1
 c100580:	e0833002 	add	r3, r3, r2
 c100584:	e1a03103 	lsl	r3, r3, #2
 c100588:	e0632001 	rsb	r2, r3, r1
 c10058c:	e20230ff 	and	r3, r2, #255	; 0xff
 c100590:	e2833001 	add	r3, r3, #1
 c100594:	e20320ff 	and	r2, r3, #255	; 0xff
 c100598:	e51b3020 	ldr	r3, [fp, #-32]	; 0xffffffe0
 c10059c:	e5c32005 	strb	r2, [r3, #5]
    }

    // Ajustar día de la semana
    time->wday = ((time->wday - 1 + time->mday) % 7) + 1;
 c1005a0:	e51b3020 	ldr	r3, [fp, #-32]	; 0xffffffe0
 c1005a4:	e5d33004 	ldrb	r3, [r3, #4]
 c1005a8:	e2432001 	sub	r2, r3, #1
 c1005ac:	e51b3020 	ldr	r3, [fp, #-32]	; 0xffffffe0
 c1005b0:	e5d33003 	ldrb	r3, [r3, #3]
 c1005b4:	e0821003 	add	r1, r2, r3
 c1005b8:	e59f3054 	ldr	r3, [pc, #84]	; c100614 <adjust_rtc_time+0x3b4>
 c1005bc:	e0c30391 	smull	r0, r3, r1, r3
 c1005c0:	e0833001 	add	r3, r3, r1
 c1005c4:	e1a02143 	asr	r2, r3, #2
 c1005c8:	e1a03fc1 	asr	r3, r1, #31
 c1005cc:	e0632002 	rsb	r2, r3, r2
 c1005d0:	e1a03002 	mov	r3, r2
 c1005d4:	e1a03183 	lsl	r3, r3, #3
 c1005d8:	e0623003 	rsb	r3, r2, r3
 c1005dc:	e0632001 	rsb	r2, r3, r1
 c1005e0:	e20230ff 	and	r3, r2, #255	; 0xff
 c1005e4:	e2833001 	add	r3, r3, #1
 c1005e8:	e20320ff 	and	r2, r3, #255	; 0xff
 c1005ec:	e51b3020 	ldr	r3, [fp, #-32]	; 0xffffffe0
 c1005f0:	e5c32004 	strb	r2, [r3, #4]
}
 c1005f4:	e24bd010 	sub	sp, fp, #16
 c1005f8:	e89d6810 	ldm	sp, {r4, fp, sp, lr}
 c1005fc:	e12fff1e 	bx	lr
 c100600:	88888889 	.word	0x88888889
 c100604:	aaaaaaab 	.word	0xaaaaaaab
 c100608:	0c10a198 	.word	0x0c10a198
 c10060c:	51eb851f 	.word	0x51eb851f
 c100610:	2aaaaaab 	.word	0x2aaaaaab
 c100614:	92492493 	.word	0x92492493

0c100618 <apply_credits>:


void apply_credits(rtc_time_t *time, uint8 credits) {
 c100618:	e1a0c00d 	mov	ip, sp
 c10061c:	e92dd800 	push	{fp, ip, lr, pc}
 c100620:	e24cb004 	sub	fp, ip, #4
 c100624:	e24dd010 	sub	sp, sp, #16
 c100628:	e50b0018 	str	r0, [fp, #-24]	; 0xffffffe8
 c10062c:	e1a03001 	mov	r3, r1
 c100630:	e54b3019 	strb	r3, [fp, #-25]	; 0xffffffe7
	    // Si el total supera el rango representable, ajustar primero los créditos
	    uint16 total_minutes = time->min + credits;
 c100634:	e51b3018 	ldr	r3, [fp, #-24]	; 0xffffffe8
 c100638:	e5d33001 	ldrb	r3, [r3, #1]
 c10063c:	e1a02003 	mov	r2, r3
 c100640:	e55b3019 	ldrb	r3, [fp, #-25]	; 0xffffffe7
 c100644:	e1a03803 	lsl	r3, r3, #16
 c100648:	e1a03823 	lsr	r3, r3, #16
 c10064c:	e0823003 	add	r3, r2, r3
 c100650:	e14b30be 	strh	r3, [fp, #-14]
	    if (total_minutes > 255) {
 c100654:	e15b30be 	ldrh	r3, [fp, #-14]
 c100658:	e35300ff 	cmp	r3, #255	; 0xff
 c10065c:	9a00001b 	bls	c1006d0 <apply_credits+0xb8>
	        uint16 extra_hours = total_minutes / 60; // Horas completas adicionales
 c100660:	e15b20be 	ldrh	r2, [fp, #-14]
 c100664:	e59f3088 	ldr	r3, [pc, #136]	; c1006f4 <apply_credits+0xdc>
 c100668:	e0831392 	umull	r1, r3, r2, r3
 c10066c:	e1a032a3 	lsr	r3, r3, #5
 c100670:	e14b31b0 	strh	r3, [fp, #-16]
	        time->hour += extra_hours;
 c100674:	e51b3018 	ldr	r3, [fp, #-24]	; 0xffffffe8
 c100678:	e5d32002 	ldrb	r2, [r3, #2]
 c10067c:	e15b31b0 	ldrh	r3, [fp, #-16]
 c100680:	e20330ff 	and	r3, r3, #255	; 0xff
 c100684:	e0823003 	add	r3, r2, r3
 c100688:	e20320ff 	and	r2, r3, #255	; 0xff
 c10068c:	e51b3018 	ldr	r3, [fp, #-24]	; 0xffffffe8
 c100690:	e5c32002 	strb	r2, [r3, #2]
	        time->min = total_minutes % 60; // Restante de minutos
 c100694:	e15b20be 	ldrh	r2, [fp, #-14]
 c100698:	e59f3054 	ldr	r3, [pc, #84]	; c1006f4 <apply_credits+0xdc>
 c10069c:	e0831392 	umull	r1, r3, r2, r3
 c1006a0:	e1a012a3 	lsr	r1, r3, #5
 c1006a4:	e1a03001 	mov	r3, r1
 c1006a8:	e1a03203 	lsl	r3, r3, #4
 c1006ac:	e0613003 	rsb	r3, r1, r3
 c1006b0:	e1a03103 	lsl	r3, r3, #2
 c1006b4:	e0633002 	rsb	r3, r3, r2
 c1006b8:	e1a03803 	lsl	r3, r3, #16
 c1006bc:	e1a03823 	lsr	r3, r3, #16
 c1006c0:	e20320ff 	and	r2, r3, #255	; 0xff
 c1006c4:	e51b3018 	ldr	r3, [fp, #-24]	; 0xffffffe8
 c1006c8:	e5c32001 	strb	r2, [r3, #1]
 c1006cc:	ea000003 	b	c1006e0 <apply_credits+0xc8>
	    } else {
	        time->min = total_minutes;
 c1006d0:	e15b30be 	ldrh	r3, [fp, #-14]
 c1006d4:	e20320ff 	and	r2, r3, #255	; 0xff
 c1006d8:	e51b3018 	ldr	r3, [fp, #-24]	; 0xffffffe8
 c1006dc:	e5c32001 	strb	r2, [r3, #1]
	    }
    adjust_rtc_time(time); // Ajustar los campos de la estructura
 c1006e0:	e51b0018 	ldr	r0, [fp, #-24]	; 0xffffffe8
 c1006e4:	ebfffedd 	bl	c100260 <adjust_rtc_time>
}
 c1006e8:	e24bd00c 	sub	sp, fp, #12
 c1006ec:	e89d6800 	ldm	sp, {fp, sp, lr}
 c1006f0:	e12fff1e 	bx	lr
 c1006f4:	88888889 	.word	0x88888889

0c1006f8 <delete_task>:
 c1006f8:	e1a0c00d 	mov	ip, sp
 c1006fc:	e92dd800 	push	{fp, ip, lr, pc}
 c100700:	e24cb004 	sub	fp, ip, #4
 c100704:	e24dd008 	sub	sp, sp, #8
 c100708:	e50b0010 	str	r0, [fp, #-16]
 c10070c:	e59f3074 	ldr	r3, [pc, #116]	; c100788 <delete_task+0x90>
 c100710:	e51b2010 	ldr	r2, [fp, #-16]
 c100714:	e3a01000 	mov	r1, #0
 c100718:	e7831202 	str	r1, [r3, r2, lsl #4]
 c10071c:	e59f1064 	ldr	r1, [pc, #100]	; c100788 <delete_task+0x90>
 c100720:	e51b2010 	ldr	r2, [fp, #-16]
 c100724:	e3a03004 	mov	r3, #4
 c100728:	e1a02202 	lsl	r2, r2, #4
 c10072c:	e0812002 	add	r2, r1, r2
 c100730:	e0823003 	add	r3, r2, r3
 c100734:	e3a02000 	mov	r2, #0
 c100738:	e5832000 	str	r2, [r3]
 c10073c:	e59f1044 	ldr	r1, [pc, #68]	; c100788 <delete_task+0x90>
 c100740:	e51b2010 	ldr	r2, [fp, #-16]
 c100744:	e3a03008 	mov	r3, #8
 c100748:	e1a02202 	lsl	r2, r2, #4
 c10074c:	e0812002 	add	r2, r1, r2
 c100750:	e0823003 	add	r3, r2, r3
 c100754:	e3a02000 	mov	r2, #0
 c100758:	e5832000 	str	r2, [r3]
 c10075c:	e59f1024 	ldr	r1, [pc, #36]	; c100788 <delete_task+0x90>
 c100760:	e51b2010 	ldr	r2, [fp, #-16]
 c100764:	e3a03008 	mov	r3, #8
 c100768:	e1a02202 	lsl	r2, r2, #4
 c10076c:	e0812002 	add	r2, r1, r2
 c100770:	e0823003 	add	r3, r2, r3
 c100774:	e3a02000 	mov	r2, #0
 c100778:	e5c32004 	strb	r2, [r3, #4]
 c10077c:	e24bd00c 	sub	sp, fp, #12
 c100780:	e89d6800 	ldm	sp, {fp, sp, lr}
 c100784:	e12fff1e 	bx	lr
 c100788:	0c115408 	.word	0x0c115408

0c10078c <create_task>:
 c10078c:	e1a0c00d 	mov	ip, sp
 c100790:	e92dd800 	push	{fp, ip, lr, pc}
 c100794:	e24cb004 	sub	fp, ip, #4
 c100798:	e24dd010 	sub	sp, sp, #16
 c10079c:	e50b0018 	str	r0, [fp, #-24]	; 0xffffffe8
 c1007a0:	e50b101c 	str	r1, [fp, #-28]	; 0xffffffe4
 c1007a4:	e3a03000 	mov	r3, #0
 c1007a8:	e50b3010 	str	r3, [fp, #-16]
 c1007ac:	ea000002 	b	c1007bc <create_task+0x30>
 c1007b0:	e51b3010 	ldr	r3, [fp, #-16]
 c1007b4:	e2833001 	add	r3, r3, #1
 c1007b8:	e50b3010 	str	r3, [fp, #-16]
 c1007bc:	e51b3010 	ldr	r3, [fp, #-16]
 c1007c0:	e3530009 	cmp	r3, #9
 c1007c4:	8a000004 	bhi	c1007dc <create_task+0x50>
 c1007c8:	e59f309c 	ldr	r3, [pc, #156]	; c10086c <create_task+0xe0>
 c1007cc:	e51b2010 	ldr	r2, [fp, #-16]
 c1007d0:	e7933202 	ldr	r3, [r3, r2, lsl #4]
 c1007d4:	e3530000 	cmp	r3, #0
 c1007d8:	1afffff4 	bne	c1007b0 <create_task+0x24>
 c1007dc:	e59f3088 	ldr	r3, [pc, #136]	; c10086c <create_task+0xe0>
 c1007e0:	e51b2010 	ldr	r2, [fp, #-16]
 c1007e4:	e51b1018 	ldr	r1, [fp, #-24]	; 0xffffffe8
 c1007e8:	e7831202 	str	r1, [r3, r2, lsl #4]
 c1007ec:	e59f1078 	ldr	r1, [pc, #120]	; c10086c <create_task+0xe0>
 c1007f0:	e51b2010 	ldr	r2, [fp, #-16]
 c1007f4:	e3a03004 	mov	r3, #4
 c1007f8:	e1a02202 	lsl	r2, r2, #4
 c1007fc:	e0812002 	add	r2, r1, r2
 c100800:	e0823003 	add	r3, r2, r3
 c100804:	e51b201c 	ldr	r2, [fp, #-28]	; 0xffffffe4
 c100808:	e5832000 	str	r2, [r3]
 c10080c:	e59f1058 	ldr	r1, [pc, #88]	; c10086c <create_task+0xe0>
 c100810:	e51b2010 	ldr	r2, [fp, #-16]
 c100814:	e3a03008 	mov	r3, #8
 c100818:	e1a02202 	lsl	r2, r2, #4
 c10081c:	e0812002 	add	r2, r1, r2
 c100820:	e0823003 	add	r3, r2, r3
 c100824:	e3a02000 	mov	r2, #0
 c100828:	e5832000 	str	r2, [r3]
 c10082c:	e59f1038 	ldr	r1, [pc, #56]	; c10086c <create_task+0xe0>
 c100830:	e51b2010 	ldr	r2, [fp, #-16]
 c100834:	e3a03008 	mov	r3, #8
 c100838:	e1a02202 	lsl	r2, r2, #4
 c10083c:	e0812002 	add	r2, r1, r2
 c100840:	e0823003 	add	r3, r2, r3
 c100844:	e3a02000 	mov	r2, #0
 c100848:	e5c32004 	strb	r2, [r3, #4]
 c10084c:	e51b3018 	ldr	r3, [fp, #-24]	; 0xffffffe8
 c100850:	e1a0e00f 	mov	lr, pc
 c100854:	e12fff13 	bx	r3
 c100858:	e51b3010 	ldr	r3, [fp, #-16]
 c10085c:	e1a00003 	mov	r0, r3
 c100860:	e24bd00c 	sub	sp, fp, #12
 c100864:	e89d6800 	ldm	sp, {fp, sp, lr}
 c100868:	e12fff1e 	bx	lr
 c10086c:	0c115408 	.word	0x0c115408

0c100870 <scheduler_init>:
 c100870:	e1a0c00d 	mov	ip, sp
 c100874:	e92dd800 	push	{fp, ip, lr, pc}
 c100878:	e24cb004 	sub	fp, ip, #4
 c10087c:	e24dd008 	sub	sp, sp, #8
 c100880:	e3a03000 	mov	r3, #0
 c100884:	e50b3010 	str	r3, [fp, #-16]
 c100888:	ea000004 	b	c1008a0 <scheduler_init+0x30>
 c10088c:	e51b0010 	ldr	r0, [fp, #-16]
 c100890:	ebffff98 	bl	c1006f8 <delete_task>
 c100894:	e51b3010 	ldr	r3, [fp, #-16]
 c100898:	e2833001 	add	r3, r3, #1
 c10089c:	e50b3010 	str	r3, [fp, #-16]
 c1008a0:	e51b3010 	ldr	r3, [fp, #-16]
 c1008a4:	e3530009 	cmp	r3, #9
 c1008a8:	9afffff7 	bls	c10088c <scheduler_init+0x1c>
 c1008ac:	e24bd00c 	sub	sp, fp, #12
 c1008b0:	e89d6800 	ldm	sp, {fp, sp, lr}
 c1008b4:	e12fff1e 	bx	lr

0c1008b8 <scheduler>:
 c1008b8:	e52dc004 	push	{ip}		; (str ip, [sp, #-4]!)
 c1008bc:	e1a0c00d 	mov	ip, sp
 c1008c0:	e92dd80f 	push	{r0, r1, r2, r3, fp, ip, lr, pc}
 c1008c4:	e24cb004 	sub	fp, ip, #4
 c1008c8:	e24dd008 	sub	sp, sp, #8
 c1008cc:	e59f3108 	ldr	r3, [pc, #264]	; c1009dc <scheduler+0x124>
 c1008d0:	e3a02a02 	mov	r2, #8192	; 0x2000
 c1008d4:	e5832000 	str	r2, [r3]
 c1008d8:	e3a03000 	mov	r3, #0
 c1008dc:	e50b3020 	str	r3, [fp, #-32]	; 0xffffffe0
 c1008e0:	ea000036 	b	c1009c0 <scheduler+0x108>
 c1008e4:	e59f30f4 	ldr	r3, [pc, #244]	; c1009e0 <scheduler+0x128>
 c1008e8:	e51b2020 	ldr	r2, [fp, #-32]	; 0xffffffe0
 c1008ec:	e7933202 	ldr	r3, [r3, r2, lsl #4]
 c1008f0:	e3530000 	cmp	r3, #0
 c1008f4:	0a00002e 	beq	c1009b4 <scheduler+0xfc>
 c1008f8:	e59f10e0 	ldr	r1, [pc, #224]	; c1009e0 <scheduler+0x128>
 c1008fc:	e51b2020 	ldr	r2, [fp, #-32]	; 0xffffffe0
 c100900:	e3a03008 	mov	r3, #8
 c100904:	e1a02202 	lsl	r2, r2, #4
 c100908:	e0812002 	add	r2, r1, r2
 c10090c:	e0823003 	add	r3, r2, r3
 c100910:	e5933000 	ldr	r3, [r3]
 c100914:	e2832001 	add	r2, r3, #1
 c100918:	e59f00c0 	ldr	r0, [pc, #192]	; c1009e0 <scheduler+0x128>
 c10091c:	e51b1020 	ldr	r1, [fp, #-32]	; 0xffffffe0
 c100920:	e3a03008 	mov	r3, #8
 c100924:	e1a01201 	lsl	r1, r1, #4
 c100928:	e0801001 	add	r1, r0, r1
 c10092c:	e0813003 	add	r3, r1, r3
 c100930:	e5832000 	str	r2, [r3]
 c100934:	e59f10a4 	ldr	r1, [pc, #164]	; c1009e0 <scheduler+0x128>
 c100938:	e51b2020 	ldr	r2, [fp, #-32]	; 0xffffffe0
 c10093c:	e3a03008 	mov	r3, #8
 c100940:	e1a02202 	lsl	r2, r2, #4
 c100944:	e0812002 	add	r2, r1, r2
 c100948:	e0823003 	add	r3, r2, r3
 c10094c:	e5932000 	ldr	r2, [r3]
 c100950:	e59f0088 	ldr	r0, [pc, #136]	; c1009e0 <scheduler+0x128>
 c100954:	e51b1020 	ldr	r1, [fp, #-32]	; 0xffffffe0
 c100958:	e3a03004 	mov	r3, #4
 c10095c:	e1a01201 	lsl	r1, r1, #4
 c100960:	e0801001 	add	r1, r0, r1
 c100964:	e0813003 	add	r3, r1, r3
 c100968:	e5933000 	ldr	r3, [r3]
 c10096c:	e1520003 	cmp	r2, r3
 c100970:	1a00000f 	bne	c1009b4 <scheduler+0xfc>
 c100974:	e59f1064 	ldr	r1, [pc, #100]	; c1009e0 <scheduler+0x128>
 c100978:	e51b2020 	ldr	r2, [fp, #-32]	; 0xffffffe0
 c10097c:	e3a03008 	mov	r3, #8
 c100980:	e1a02202 	lsl	r2, r2, #4
 c100984:	e0812002 	add	r2, r1, r2
 c100988:	e0823003 	add	r3, r2, r3
 c10098c:	e3a02000 	mov	r2, #0
 c100990:	e5832000 	str	r2, [r3]
 c100994:	e59f1044 	ldr	r1, [pc, #68]	; c1009e0 <scheduler+0x128>
 c100998:	e51b2020 	ldr	r2, [fp, #-32]	; 0xffffffe0
 c10099c:	e3a03008 	mov	r3, #8
 c1009a0:	e1a02202 	lsl	r2, r2, #4
 c1009a4:	e0812002 	add	r2, r1, r2
 c1009a8:	e0823003 	add	r3, r2, r3
 c1009ac:	e3a02001 	mov	r2, #1
 c1009b0:	e5c32004 	strb	r2, [r3, #4]
 c1009b4:	e51b3020 	ldr	r3, [fp, #-32]	; 0xffffffe0
 c1009b8:	e2833001 	add	r3, r3, #1
 c1009bc:	e50b3020 	str	r3, [fp, #-32]	; 0xffffffe0
 c1009c0:	e51b3020 	ldr	r3, [fp, #-32]	; 0xffffffe0
 c1009c4:	e3530009 	cmp	r3, #9
 c1009c8:	9affffc5 	bls	c1008e4 <scheduler+0x2c>
 c1009cc:	e24bd01c 	sub	sp, fp, #28
 c1009d0:	e89d680f 	ldm	sp, {r0, r1, r2, r3, fp, sp, lr}
 c1009d4:	e49dc004 	pop	{ip}		; (ldr ip, [sp], #4)
 c1009d8:	e25ef004 	subs	pc, lr, #4
 c1009dc:	01e00024 	.word	0x01e00024
 c1009e0:	0c115408 	.word	0x0c115408

0c1009e4 <dispacher>:
 c1009e4:	e1a0c00d 	mov	ip, sp
 c1009e8:	e92dd800 	push	{fp, ip, lr, pc}
 c1009ec:	e24cb004 	sub	fp, ip, #4
 c1009f0:	e24dd008 	sub	sp, sp, #8
 c1009f4:	e3a03000 	mov	r3, #0
 c1009f8:	e50b3010 	str	r3, [fp, #-16]
 c1009fc:	ea000018 	b	c100a64 <dispacher+0x80>
 c100a00:	e59f1074 	ldr	r1, [pc, #116]	; c100a7c <dispacher+0x98>
 c100a04:	e51b2010 	ldr	r2, [fp, #-16]
 c100a08:	e3a03008 	mov	r3, #8
 c100a0c:	e1a02202 	lsl	r2, r2, #4
 c100a10:	e0812002 	add	r2, r1, r2
 c100a14:	e0823003 	add	r3, r2, r3
 c100a18:	e5d33004 	ldrb	r3, [r3, #4]
 c100a1c:	e3530001 	cmp	r3, #1
 c100a20:	1a00000c 	bne	c100a58 <dispacher+0x74>
 c100a24:	e59f3050 	ldr	r3, [pc, #80]	; c100a7c <dispacher+0x98>
 c100a28:	e51b2010 	ldr	r2, [fp, #-16]
 c100a2c:	e7933202 	ldr	r3, [r3, r2, lsl #4]
 c100a30:	e1a0e00f 	mov	lr, pc
 c100a34:	e12fff13 	bx	r3
 c100a38:	e59f103c 	ldr	r1, [pc, #60]	; c100a7c <dispacher+0x98>
 c100a3c:	e51b2010 	ldr	r2, [fp, #-16]
 c100a40:	e3a03008 	mov	r3, #8
 c100a44:	e1a02202 	lsl	r2, r2, #4
 c100a48:	e0812002 	add	r2, r1, r2
 c100a4c:	e0823003 	add	r3, r2, r3
 c100a50:	e3a02000 	mov	r2, #0
 c100a54:	e5c32004 	strb	r2, [r3, #4]
 c100a58:	e51b3010 	ldr	r3, [fp, #-16]
 c100a5c:	e2833001 	add	r3, r3, #1
 c100a60:	e50b3010 	str	r3, [fp, #-16]
 c100a64:	e51b3010 	ldr	r3, [fp, #-16]
 c100a68:	e3530009 	cmp	r3, #9
 c100a6c:	9affffe3 	bls	c100a00 <dispacher+0x1c>
 c100a70:	e24bd00c 	sub	sp, fp, #12
 c100a74:	e89d6800 	ldm	sp, {fp, sp, lr}
 c100a78:	e12fff1e 	bx	lr
 c100a7c:	0c115408 	.word	0x0c115408

0c100a80 <main>:
boolean printTicketFlag;    /* mailbox donde la mainTask indica a ticketPrintTask que imprima un ticket */

/*******************************************************************/

void main(void)
{
 c100a80:	e1a0c00d 	mov	ip, sp
 c100a84:	e92dd800 	push	{fp, ip, lr, pc}
 c100a88:	e24cb004 	sub	fp, ip, #4
    sys_init();
 c100a8c:	eb001525 	bl	c105f28 <sys_init>
    leds_init();
 c100a90:	eb0011bd 	bl	c10518c <leds_init>
    segs_init();
 c100a94:	eb0014e6 	bl	c105e34 <segs_init>
    uart0_init();
 c100a98:	eb00208b 	bl	c108ccc <uart0_init>
    rtc_init();
 c100a9c:	eb001299 	bl	c105508 <rtc_init>
    timers_init();
 c100aa0:	eb001b26 	bl	c107740 <timers_init>
    keypad_init();
 c100aa4:	eb000c80 	bl	c103cac <keypad_init>
    lcd_init();
 c100aa8:	eb000cbe 	bl	c103da8 <lcd_init>
    ts_init();
 c100aac:	eb00202e 	bl	c108b6c <ts_init>

    lcd_on();
 c100ab0:	eb000d28 	bl	c103f58 <lcd_on>
    ts_on();
 c100ab4:	eb001dd6 	bl	c108214 <ts_on>

    setup();
 c100ab8:	eb0003bc 	bl	c1019b0 <setup>

    scheduler_init();                       /* Inicializa el kernel */
 c100abc:	ebffff6b 	bl	c100870 <scheduler_init>

    create_task(tsScanTask, 5);    /* Crea las tareas de la aplicacion... */
 c100ac0:	e59f0058 	ldr	r0, [pc, #88]	; c100b20 <main+0xa0>
 c100ac4:	e3a01005 	mov	r1, #5
 c100ac8:	ebffff2f 	bl	c10078c <create_task>
    create_task(coinsAcceptorTask, 5);    /* ... el kernel asigna la prioridad segun orden de creacion */
 c100acc:	e59f0050 	ldr	r0, [pc, #80]	; c100b24 <main+0xa4>
 c100ad0:	e3a01005 	mov	r1, #5
 c100ad4:	ebffff2c 	bl	c10078c <create_task>
    create_task(mainTask, 10);    /* ... las tareas mas frecuentes tienen mayor prioridad (criterio Rate-Monotonic-Scheduling) */
 c100ad8:	e59f0048 	ldr	r0, [pc, #72]	; c100b28 <main+0xa8>
 c100adc:	e3a0100a 	mov	r1, #10
 c100ae0:	ebffff29 	bl	c10078c <create_task>
    create_task(coinsMoverTask, 10);
 c100ae4:	e59f0040 	ldr	r0, [pc, #64]	; c100b2c <main+0xac>
 c100ae8:	e3a0100a 	mov	r1, #10
 c100aec:	ebffff26 	bl	c10078c <create_task>
    create_task(clockTask, 10);
 c100af0:	e59f0038 	ldr	r0, [pc, #56]	; c100b30 <main+0xb0>
 c100af4:	e3a0100a 	mov	r1, #10
 c100af8:	ebffff23 	bl	c10078c <create_task>
    create_task(ticketPrinterTask, 10);
 c100afc:	e59f0030 	ldr	r0, [pc, #48]	; c100b34 <main+0xb4>
 c100b00:	e3a0100a 	mov	r1, #10
 c100b04:	ebffff20 	bl	c10078c <create_task>

    timer0_open_tick(scheduler, TICKS_PER_SEC);  /* Instala scheduler como RTI del timer0  */
 c100b08:	e59f0028 	ldr	r0, [pc, #40]	; c100b38 <main+0xb8>
 c100b0c:	e3a01064 	mov	r1, #100	; 0x64
 c100b10:	eb001cbb 	bl	c107e04 <timer0_open_tick>

    while (1)
    {
        sleep();                /* Entra en estado IDLE, sale por interrupcion */
 c100b14:	eb001af8 	bl	c1076fc <sleep>
        dispacher();            /* Las tareas preparadas se ejecutan en esta hebra (background) en orden de prioridad */
 c100b18:	ebffffb1 	bl	c1009e4 <dispacher>
    }
 c100b1c:	eafffffc 	b	c100b14 <main+0x94>
 c100b20:	0c101614 	.word	0x0c101614
 c100b24:	0c10171c 	.word	0x0c10171c
 c100b28:	0c100b3c 	.word	0x0c100b3c
 c100b2c:	0c101880 	.word	0x0c101880
 c100b30:	0c101388 	.word	0x0c101388
 c100b34:	0c1011ac 	.word	0x0c1011ac
 c100b38:	0c1008b8 	.word	0x0c1008b8

0c100b3c <mainTask>:

/*
** Tarea principal, se activa cada 100 ms muestreando los mensajes enviados de otras tareas y actuando en consecuencia
*/
void mainTask(void)
{
 c100b3c:	e1a0c00d 	mov	ip, sp
 c100b40:	e92dd800 	push	{fp, ip, lr, pc}
 c100b44:	e24cb004 	sub	fp, ip, #4
    static boolean init = TRUE;
    static parkingState_t state;
    static uint8 credit;
    static uint16 ticks;

    if (init)
 c100b48:	e59f3624 	ldr	r3, [pc, #1572]	; c101174 <mainTask+0x638>
 c100b4c:	e5d33000 	ldrb	r3, [r3]
 c100b50:	e3530000 	cmp	r3, #0
 c100b54:	0a00000a 	beq	c100b84 <mainTask+0x48>
    {
        init = FALSE;
 c100b58:	e59f3614 	ldr	r3, [pc, #1556]	; c101174 <mainTask+0x638>
 c100b5c:	e3a02000 	mov	r2, #0
 c100b60:	e5c32000 	strb	r2, [r3]
        plotWelcomeScreen();
 c100b64:	eb000431 	bl	c101c30 <plotWelcomeScreen>
        credit = 0;
 c100b68:	e59f3608 	ldr	r3, [pc, #1544]	; c101178 <mainTask+0x63c>
 c100b6c:	e3a02000 	mov	r2, #0
 c100b70:	e5c32000 	strb	r2, [r3]
        state = WELCOME_SCREEN;
 c100b74:	e59f3600 	ldr	r3, [pc, #1536]	; c10117c <mainTask+0x640>
 c100b78:	e3a02000 	mov	r2, #0
 c100b7c:	e5c32000 	strb	r2, [r3]
 c100b80:	ea000178 	b	c101168 <mainTask+0x62c>
    }
    else switch (state)
 c100b84:	e59f35f0 	ldr	r3, [pc, #1520]	; c10117c <mainTask+0x640>
 c100b88:	e5d33000 	ldrb	r3, [r3]
 c100b8c:	e3530004 	cmp	r3, #4
 c100b90:	979ff103 	ldrls	pc, [pc, r3, lsl #2]
 c100b94:	ea000173 	b	c101168 <mainTask+0x62c>
 c100b98:	0c100bac 	.word	0x0c100bac
 c100b9c:	0c100c34 	.word	0x0c100c34
 c100ba0:	0c100da4 	.word	0x0c100da4
 c100ba4:	0c100f48 	.word	0x0c100f48
 c100ba8:	0c10111c 	.word	0x0c10111c
    {
    case WELCOME_SCREEN:                        /* Estado en donde rechaza monedas y espera la pulsacion de la pantalla */
        if (tsPressedMsg.flag)                    /* Chequea si se ha pulsado la pantalla (mensaje recibido de la tarea tsPressedTask) */
 c100bac:	e59f35cc 	ldr	r3, [pc, #1484]	; c101180 <mainTask+0x644>
 c100bb0:	e5d33000 	ldrb	r3, [r3]
 c100bb4:	e3530000 	cmp	r3, #0
 c100bb8:	0a00000f 	beq	c100bfc <mainTask+0xc0>
        {
            tsPressedMsg.flag = FALSE;                 /* Marca el mensaje como leido */
 c100bbc:	e59f35bc 	ldr	r3, [pc, #1468]	; c101180 <mainTask+0x644>
 c100bc0:	e3a02000 	mov	r2, #0
 c100bc4:	e5c32000 	strb	r2, [r3]
            lcd_clear();                               /* Borra pantalla */
 c100bc8:	eb000d0a 	bl	c103ff8 <lcd_clear>

            //Preparo cambio de estado a SELECT_PLACE
            lcd_puts_x2(48, 54, BLACK, "Seleccione plaza");
 c100bcc:	e3a00030 	mov	r0, #48	; 0x30
 c100bd0:	e3a01036 	mov	r1, #54	; 0x36
 c100bd4:	e3a0200f 	mov	r2, #15
 c100bd8:	e59f35a4 	ldr	r3, [pc, #1444]	; c101184 <mainTask+0x648>
 c100bdc:	eb00105f 	bl	c104d60 <lcd_puts_x2>
            drawParkingGrid();
 c100be0:	eb000451 	bl	c101d2c <drawParkingGrid>

            state = SELECT_PLACE;                  /* Salta al estado demo_acceptCoins ... */
 c100be4:	e59f3590 	ldr	r3, [pc, #1424]	; c10117c <mainTask+0x640>
 c100be8:	e3a02001 	mov	r2, #1
 c100bec:	e5c32000 	strb	r2, [r3]
            ticks = 500;                               /* ... en el que debera permanecer un maximo de 500 ticks sin no hay actividad */
 c100bf0:	e59f3590 	ldr	r3, [pc, #1424]	; c101188 <mainTask+0x64c>
 c100bf4:	e3a02f7d 	mov	r2, #500	; 0x1f4
 c100bf8:	e1c320b0 	strh	r2, [r3]
        }
        if (coinAcceptorMsg.flag)                /* Chequea si se ha introducido una moneda (mensaje recibido de la tarea coinAcceptorTask) */
 c100bfc:	e59f3588 	ldr	r3, [pc, #1416]	; c10118c <mainTask+0x650>
 c100c00:	e5d33000 	ldrb	r3, [r3]
 c100c04:	e3530000 	cmp	r3, #0
 c100c08:	0a00014f 	beq	c10114c <mainTask+0x610>
        {
            coinAcceptorMsg.flag = FALSE;              /* Marca el mensaje como leido */
 c100c0c:	e59f3578 	ldr	r3, [pc, #1400]	; c10118c <mainTask+0x650>
 c100c10:	e3a02000 	mov	r2, #0
 c100c14:	e5c32000 	strb	r2, [r3]
            coinsMoverMsg.accept = FALSE;              /* Envia un mensaje para que la moneda se devuelva */
 c100c18:	e59f3570 	ldr	r3, [pc, #1392]	; c101190 <mainTask+0x654>
 c100c1c:	e3a02000 	mov	r2, #0
 c100c20:	e5c32001 	strb	r2, [r3, #1]
            coinsMoverMsg.flag = TRUE;
 c100c24:	e59f3564 	ldr	r3, [pc, #1380]	; c101190 <mainTask+0x654>
 c100c28:	e3a02001 	mov	r2, #1
 c100c2c:	e5c32000 	strb	r2, [r3]
        }
        break;
 c100c30:	ea00014c 	b	c101168 <mainTask+0x62c>
    case SELECT_PLACE:                   			/* Estado en donde rechaza monedas y espera la seleccion de la plaza */
            if (!(--ticks))                           /* Decrementa ticks y chequea si ha permanecido en este estado el tiempo maximo */
 c100c34:	e59f354c 	ldr	r3, [pc, #1356]	; c101188 <mainTask+0x64c>
 c100c38:	e1d330b0 	ldrh	r3, [r3]
 c100c3c:	e2433001 	sub	r3, r3, #1
 c100c40:	e1a03803 	lsl	r3, r3, #16
 c100c44:	e1a02823 	lsr	r2, r3, #16
 c100c48:	e59f3538 	ldr	r3, [pc, #1336]	; c101188 <mainTask+0x64c>
 c100c4c:	e1c320b0 	strh	r2, [r3]
 c100c50:	e59f3530 	ldr	r3, [pc, #1328]	; c101188 <mainTask+0x64c>
 c100c54:	e1d330b0 	ldrh	r3, [r3]
 c100c58:	e3530000 	cmp	r3, #0
 c100c5c:	1a000003 	bne	c100c70 <mainTask+0x134>
            {
                plotWelcomeScreen();                       /* Visualiza pantalla inicial */
 c100c60:	eb0003f2 	bl	c101c30 <plotWelcomeScreen>
                state = WELCOME_SCREEN;                      /* Salta al estado demo_waiting */
 c100c64:	e59f3510 	ldr	r3, [pc, #1296]	; c10117c <mainTask+0x640>
 c100c68:	e3a02000 	mov	r2, #0
 c100c6c:	e5c32000 	strb	r2, [r3]
            }
            if (tsPressedMsg.flag)                    /* Chequea si se ha pulsado la pantalla (mensaje recibido de la tarea tsPressedTask) */
 c100c70:	e59f3508 	ldr	r3, [pc, #1288]	; c101180 <mainTask+0x644>
 c100c74:	e5d33000 	ldrb	r3, [r3]
 c100c78:	e3530000 	cmp	r3, #0
 c100c7c:	0a00003a 	beq	c100d6c <mainTask+0x230>
            {
                tsPressedMsg.flag = FALSE;                /* Marca el mensaje como leido */
 c100c80:	e59f34f8 	ldr	r3, [pc, #1272]	; c101180 <mainTask+0x644>
 c100c84:	e3a02000 	mov	r2, #0
 c100c88:	e5c32000 	strb	r2, [r3]

                //Devuelve en n de plaza pulsado segun las coordenadas
                selectedPlace = checkSelectedPlace(tsPressedMsg.x, tsPressedMsg.y);
 c100c8c:	e59f34ec 	ldr	r3, [pc, #1260]	; c101180 <mainTask+0x644>
 c100c90:	e1d320b2 	ldrh	r2, [r3, #2]
 c100c94:	e59f34e4 	ldr	r3, [pc, #1252]	; c101180 <mainTask+0x644>
 c100c98:	e1d330b4 	ldrh	r3, [r3, #4]
 c100c9c:	e1a00002 	mov	r0, r2
 c100ca0:	e1a01003 	mov	r1, r3
 c100ca4:	eb0004f5 	bl	c102080 <checkSelectedPlace>
 c100ca8:	e1a03000 	mov	r3, r0
 c100cac:	e1a02003 	mov	r2, r3
 c100cb0:	e59f34dc 	ldr	r3, [pc, #1244]	; c101194 <mainTask+0x658>
 c100cb4:	e5c32000 	strb	r2, [r3]
                if (selectedPlace != 0) {
 c100cb8:	e59f34d4 	ldr	r3, [pc, #1236]	; c101194 <mainTask+0x658>
 c100cbc:	e5d33000 	ldrb	r3, [r3]
 c100cc0:	e20330ff 	and	r3, r3, #255	; 0xff
 c100cc4:	e3530000 	cmp	r3, #0
 c100cc8:	0a000027 	beq	c100d6c <mainTask+0x230>
                    if (!parking[selectedPlace - 1].occupied) {
 c100ccc:	e59f34c0 	ldr	r3, [pc, #1216]	; c101194 <mainTask+0x658>
 c100cd0:	e5d33000 	ldrb	r3, [r3]
 c100cd4:	e20330ff 	and	r3, r3, #255	; 0xff
 c100cd8:	e2432001 	sub	r2, r3, #1
 c100cdc:	e59f04b4 	ldr	r0, [pc, #1204]	; c101198 <mainTask+0x65c>
 c100ce0:	e3a01008 	mov	r1, #8
 c100ce4:	e1a03002 	mov	r3, r2
 c100ce8:	e1a03203 	lsl	r3, r3, #4
 c100cec:	e0623003 	rsb	r3, r2, r3
 c100cf0:	e0803003 	add	r3, r0, r3
 c100cf4:	e0833001 	add	r3, r3, r1
 c100cf8:	e5d33006 	ldrb	r3, [r3, #6]
 c100cfc:	e3530000 	cmp	r3, #0
 c100d00:	1a00000e 	bne	c100d40 <mainTask+0x204>
                        showTariffScreen(selectedPlace, credit);
 c100d04:	e59f3488 	ldr	r3, [pc, #1160]	; c101194 <mainTask+0x658>
 c100d08:	e5d33000 	ldrb	r3, [r3]
 c100d0c:	e20320ff 	and	r2, r3, #255	; 0xff
 c100d10:	e59f3460 	ldr	r3, [pc, #1120]	; c101178 <mainTask+0x63c>
 c100d14:	e5d33000 	ldrb	r3, [r3]
 c100d18:	e1a00002 	mov	r0, r2
 c100d1c:	e1a01003 	mov	r1, r3
 c100d20:	eb000596 	bl	c102380 <showTariffScreen>
                        state = SHOW_TARIFF;
 c100d24:	e59f3450 	ldr	r3, [pc, #1104]	; c10117c <mainTask+0x640>
 c100d28:	e3a02002 	mov	r2, #2
 c100d2c:	e5c32000 	strb	r2, [r3]
                        ticks = 50;
 c100d30:	e59f3450 	ldr	r3, [pc, #1104]	; c101188 <mainTask+0x64c>
 c100d34:	e3a02032 	mov	r2, #50	; 0x32
 c100d38:	e1c320b0 	strh	r2, [r3]
 c100d3c:	ea00000a 	b	c100d6c <mainTask+0x230>
                    }
                    else {
                        showPlaceOccupiedMessage(selectedPlace);
 c100d40:	e59f344c 	ldr	r3, [pc, #1100]	; c101194 <mainTask+0x658>
 c100d44:	e5d33000 	ldrb	r3, [r3]
 c100d48:	e20330ff 	and	r3, r3, #255	; 0xff
 c100d4c:	e1a00003 	mov	r0, r3
 c100d50:	eb000500 	bl	c102158 <showPlaceOccupiedMessage>
                        state = SELECT_PLACE;
 c100d54:	e59f3420 	ldr	r3, [pc, #1056]	; c10117c <mainTask+0x640>
 c100d58:	e3a02001 	mov	r2, #1
 c100d5c:	e5c32000 	strb	r2, [r3]
                        ticks = 500;
 c100d60:	e59f3420 	ldr	r3, [pc, #1056]	; c101188 <mainTask+0x64c>
 c100d64:	e3a02f7d 	mov	r2, #500	; 0x1f4
 c100d68:	e1c320b0 	strh	r2, [r3]
                    }
                }
            }
            // Seguimos rechazando monedas durante la seleccion de plaza
            if (coinAcceptorMsg.flag) {
 c100d6c:	e59f3418 	ldr	r3, [pc, #1048]	; c10118c <mainTask+0x650>
 c100d70:	e5d33000 	ldrb	r3, [r3]
 c100d74:	e3530000 	cmp	r3, #0
 c100d78:	0a0000f5 	beq	c101154 <mainTask+0x618>
                coinAcceptorMsg.flag = FALSE;
 c100d7c:	e59f3408 	ldr	r3, [pc, #1032]	; c10118c <mainTask+0x650>
 c100d80:	e3a02000 	mov	r2, #0
 c100d84:	e5c32000 	strb	r2, [r3]
                coinsMoverMsg.accept = FALSE;
 c100d88:	e59f3400 	ldr	r3, [pc, #1024]	; c101190 <mainTask+0x654>
 c100d8c:	e3a02000 	mov	r2, #0
 c100d90:	e5c32001 	strb	r2, [r3, #1]
                coinsMoverMsg.flag = TRUE;
 c100d94:	e59f33f4 	ldr	r3, [pc, #1012]	; c101190 <mainTask+0x654>
 c100d98:	e3a02001 	mov	r2, #1
 c100d9c:	e5c32000 	strb	r2, [r3]
            }
            break;
 c100da0:	ea0000f0 	b	c101168 <mainTask+0x62c>
        case SHOW_TARIFF:  // Procesamos monedas introducidas
            if (!(--ticks)) // Timeout de inactividad (5 segundos)
 c100da4:	e59f33dc 	ldr	r3, [pc, #988]	; c101188 <mainTask+0x64c>
 c100da8:	e1d330b0 	ldrh	r3, [r3]
 c100dac:	e2433001 	sub	r3, r3, #1
 c100db0:	e1a03803 	lsl	r3, r3, #16
 c100db4:	e1a02823 	lsr	r2, r3, #16
 c100db8:	e59f33c8 	ldr	r3, [pc, #968]	; c101188 <mainTask+0x64c>
 c100dbc:	e1c320b0 	strh	r2, [r3]
 c100dc0:	e59f33c0 	ldr	r3, [pc, #960]	; c101188 <mainTask+0x64c>
 c100dc4:	e1d330b0 	ldrh	r3, [r3]
 c100dc8:	e3530000 	cmp	r3, #0
 c100dcc:	1a00000d 	bne	c100e08 <mainTask+0x2cc>
            {
                plotWelcomeScreen();
 c100dd0:	eb000396 	bl	c101c30 <plotWelcomeScreen>
                // Devolvemos las monedas introducidas
                if (credit > 0)
 c100dd4:	e59f339c 	ldr	r3, [pc, #924]	; c101178 <mainTask+0x63c>
 c100dd8:	e5d33000 	ldrb	r3, [r3]
 c100ddc:	e3530000 	cmp	r3, #0
 c100de0:	0a000005 	beq	c100dfc <mainTask+0x2c0>
                {

                    coinsMoverMsg.flag = TRUE;
 c100de4:	e59f33a4 	ldr	r3, [pc, #932]	; c101190 <mainTask+0x654>
 c100de8:	e3a02001 	mov	r2, #1
 c100dec:	e5c32000 	strb	r2, [r3]
                    credit = 0;
 c100df0:	e59f3380 	ldr	r3, [pc, #896]	; c101178 <mainTask+0x63c>
 c100df4:	e3a02000 	mov	r2, #0
 c100df8:	e5c32000 	strb	r2, [r3]
                }

                state = WELCOME_SCREEN;
 c100dfc:	e59f3378 	ldr	r3, [pc, #888]	; c10117c <mainTask+0x640>
 c100e00:	e3a02000 	mov	r2, #0
 c100e04:	e5c32000 	strb	r2, [r3]
            }

            // Procesamos monedas introducidas
            if (coinAcceptorMsg.flag)
 c100e08:	e59f337c 	ldr	r3, [pc, #892]	; c10118c <mainTask+0x650>
 c100e0c:	e5d33000 	ldrb	r3, [r3]
 c100e10:	e3530000 	cmp	r3, #0
 c100e14:	0a000040 	beq	c100f1c <mainTask+0x3e0>
            {
            	ticks = 50;   /* Restaura el tiempo maximo sin actividad que permanece en este estado */
 c100e18:	e59f3368 	ldr	r3, [pc, #872]	; c101188 <mainTask+0x64c>
 c100e1c:	e3a02032 	mov	r2, #50	; 0x32
 c100e20:	e1c320b0 	strh	r2, [r3]
                coinAcceptorMsg.flag = FALSE;	/* Marca el mensaje como leido */
 c100e24:	e59f3360 	ldr	r3, [pc, #864]	; c10118c <mainTask+0x650>
 c100e28:	e3a02000 	mov	r2, #0
 c100e2c:	e5c32000 	strb	r2, [r3]


                // Verificamos que no nos pasemos del maximo (240 centimos)
                if (credit + coinAcceptorMsg.cents <= 240)
 c100e30:	e59f3340 	ldr	r3, [pc, #832]	; c101178 <mainTask+0x63c>
 c100e34:	e5d33000 	ldrb	r3, [r3]
 c100e38:	e1a02003 	mov	r2, r3
 c100e3c:	e59f3348 	ldr	r3, [pc, #840]	; c10118c <mainTask+0x650>
 c100e40:	e5d33001 	ldrb	r3, [r3, #1]
 c100e44:	e0823003 	add	r3, r2, r3
 c100e48:	e35300f0 	cmp	r3, #240	; 0xf0
 c100e4c:	ca000019 	bgt	c100eb8 <mainTask+0x37c>
                {
                	coinsMoverMsg.accept = TRUE;//acepta monedas
 c100e50:	e59f3338 	ldr	r3, [pc, #824]	; c101190 <mainTask+0x654>
 c100e54:	e3a02001 	mov	r2, #1
 c100e58:	e5c32001 	strb	r2, [r3, #1]
                	coinsMoverMsg.flag = TRUE;//levanta flag
 c100e5c:	e59f332c 	ldr	r3, [pc, #812]	; c101190 <mainTask+0x654>
 c100e60:	e3a02001 	mov	r2, #1
 c100e64:	e5c32000 	strb	r2, [r3]
                    credit += coinAcceptorMsg.cents;
 c100e68:	e59f331c 	ldr	r3, [pc, #796]	; c10118c <mainTask+0x650>
 c100e6c:	e5d32001 	ldrb	r2, [r3, #1]
 c100e70:	e59f3300 	ldr	r3, [pc, #768]	; c101178 <mainTask+0x63c>
 c100e74:	e5d33000 	ldrb	r3, [r3]
 c100e78:	e0823003 	add	r3, r2, r3
 c100e7c:	e20320ff 	and	r2, r3, #255	; 0xff
 c100e80:	e59f32f0 	ldr	r3, [pc, #752]	; c101178 <mainTask+0x63c>
 c100e84:	e5c32000 	strb	r2, [r3]
                    coinAcceptorMsg.cents = 0;
 c100e88:	e59f32fc 	ldr	r3, [pc, #764]	; c10118c <mainTask+0x650>
 c100e8c:	e3a02000 	mov	r2, #0
 c100e90:	e5c32001 	strb	r2, [r3, #1]
                    // Actualizar toda la pantalla de tarifa con el nuevo credito
                    showTariffScreen(selectedPlace, credit);
 c100e94:	e59f32f8 	ldr	r3, [pc, #760]	; c101194 <mainTask+0x658>
 c100e98:	e5d33000 	ldrb	r3, [r3]
 c100e9c:	e20320ff 	and	r2, r3, #255	; 0xff
 c100ea0:	e59f32d0 	ldr	r3, [pc, #720]	; c101178 <mainTask+0x63c>
 c100ea4:	e5d33000 	ldrb	r3, [r3]
 c100ea8:	e1a00002 	mov	r0, r2
 c100eac:	e1a01003 	mov	r1, r3
 c100eb0:	eb000532 	bl	c102380 <showTariffScreen>
 c100eb4:	ea000018 	b	c100f1c <mainTask+0x3e0>
                }
                else
                {
                	coinsMoverMsg.accept = FALSE;// no acepta monedas
 c100eb8:	e59f32d0 	ldr	r3, [pc, #720]	; c101190 <mainTask+0x654>
 c100ebc:	e3a02000 	mov	r2, #0
 c100ec0:	e5c32001 	strb	r2, [r3, #1]
                	coinsMoverMsg.flag = TRUE;//levanta flag
 c100ec4:	e59f32c4 	ldr	r3, [pc, #708]	; c101190 <mainTask+0x654>
 c100ec8:	e3a02001 	mov	r2, #1
 c100ecc:	e5c32000 	strb	r2, [r3]

                    credit = 0;
 c100ed0:	e59f32a0 	ldr	r3, [pc, #672]	; c101178 <mainTask+0x63c>
 c100ed4:	e3a02000 	mov	r2, #0
 c100ed8:	e5c32000 	strb	r2, [r3]
                    coinAcceptorMsg.cents = 0;
 c100edc:	e59f32a8 	ldr	r3, [pc, #680]	; c10118c <mainTask+0x650>
 c100ee0:	e3a02000 	mov	r2, #0
 c100ee4:	e5c32001 	strb	r2, [r3, #1]
                    ticks = 500;  //Restauro ticks se SELECT_PLACE
 c100ee8:	e59f3298 	ldr	r3, [pc, #664]	; c101188 <mainTask+0x64c>
 c100eec:	e3a02f7d 	mov	r2, #500	; 0x1f4
 c100ef0:	e1c320b0 	strh	r2, [r3]
                    lcd_clear();
 c100ef4:	eb000c3f 	bl	c103ff8 <lcd_clear>
                    //Preparo cambio de estado a SELECT_PLACE
                    lcd_puts_x2(24, 24, BLACK, "Seleccione plaza");
 c100ef8:	e3a00018 	mov	r0, #24
 c100efc:	e3a01018 	mov	r1, #24
 c100f00:	e3a0200f 	mov	r2, #15
 c100f04:	e59f3278 	ldr	r3, [pc, #632]	; c101184 <mainTask+0x648>
 c100f08:	eb000f94 	bl	c104d60 <lcd_puts_x2>
                    drawParkingGrid();
 c100f0c:	eb000386 	bl	c101d2c <drawParkingGrid>
                    state = SELECT_PLACE;
 c100f10:	e59f3264 	ldr	r3, [pc, #612]	; c10117c <mainTask+0x640>
 c100f14:	e3a02001 	mov	r2, #1
 c100f18:	e5c32000 	strb	r2, [r3]
                }
            }

            // Si se pulsa la pantalla, verificamos el credito
            if (tsPressedMsg.flag)
 c100f1c:	e59f325c 	ldr	r3, [pc, #604]	; c101180 <mainTask+0x644>
 c100f20:	e5d33000 	ldrb	r3, [r3]
 c100f24:	e3530000 	cmp	r3, #0
 c100f28:	0a00008b 	beq	c10115c <mainTask+0x620>
            {
                tsPressedMsg.flag = FALSE;
 c100f2c:	e59f324c 	ldr	r3, [pc, #588]	; c101180 <mainTask+0x644>
 c100f30:	e3a02000 	mov	r2, #0
 c100f34:	e5c32000 	strb	r2, [r3]
                state = PROCESS_PAYMENT;
 c100f38:	e59f323c 	ldr	r3, [pc, #572]	; c10117c <mainTask+0x640>
 c100f3c:	e3a02003 	mov	r2, #3
 c100f40:	e5c32000 	strb	r2, [r3]
            }
            break;
 c100f44:	ea000087 	b	c101168 <mainTask+0x62c>
        case PROCESS_PAYMENT: // Estado donde se valora el credito introducido una vez se pulsa la pantalla
            if (credit < 20) // Credito insuficiente
 c100f48:	e59f3228 	ldr	r3, [pc, #552]	; c101178 <mainTask+0x63c>
 c100f4c:	e5d33000 	ldrb	r3, [r3]
 c100f50:	e3530013 	cmp	r3, #19
 c100f54:	8a000019 	bhi	c100fc0 <mainTask+0x484>
            {
                lcd_clear();
 c100f58:	eb000c26 	bl	c103ff8 <lcd_clear>
                lcd_puts(24, 48, BLACK, "Saldo insuficiente");
 c100f5c:	e3a00018 	mov	r0, #24
 c100f60:	e3a01030 	mov	r1, #48	; 0x30
 c100f64:	e3a0200f 	mov	r2, #15
 c100f68:	e59f322c 	ldr	r3, [pc, #556]	; c10119c <mainTask+0x660>
 c100f6c:	eb000e24 	bl	c104804 <lcd_puts>
                credit = 0;
 c100f70:	e59f3200 	ldr	r3, [pc, #512]	; c101178 <mainTask+0x63c>
 c100f74:	e3a02000 	mov	r2, #0
 c100f78:	e5c32000 	strb	r2, [r3]
                sw_delay_ms(2000);
 c100f7c:	e3a00e7d 	mov	r0, #2000	; 0x7d0
 c100f80:	eb001aa0 	bl	c107a08 <sw_delay_ms>
                state = SHOW_TARIFF;
 c100f84:	e59f31f0 	ldr	r3, [pc, #496]	; c10117c <mainTask+0x640>
 c100f88:	e3a02002 	mov	r2, #2
 c100f8c:	e5c32000 	strb	r2, [r3]
                showTariffScreen(selectedPlace, credit);
 c100f90:	e59f31fc 	ldr	r3, [pc, #508]	; c101194 <mainTask+0x658>
 c100f94:	e5d33000 	ldrb	r3, [r3]
 c100f98:	e20320ff 	and	r2, r3, #255	; 0xff
 c100f9c:	e59f31d4 	ldr	r3, [pc, #468]	; c101178 <mainTask+0x63c>
 c100fa0:	e5d33000 	ldrb	r3, [r3]
 c100fa4:	e1a00002 	mov	r0, r2
 c100fa8:	e1a01003 	mov	r1, r3
 c100fac:	eb0004f3 	bl	c102380 <showTariffScreen>
                ticks = 50;
 c100fb0:	e59f31d0 	ldr	r3, [pc, #464]	; c101188 <mainTask+0x64c>
 c100fb4:	e3a02032 	mov	r2, #50	; 0x32
 c100fb8:	e1c320b0 	strh	r2, [r3]
                       printTicketFlag = TRUE;
                state = PRINT_TICKET;

                sw_delay_ms(2000);//una vez finalizado pago, delay de lectura
            }
            break;
 c100fbc:	ea000069 	b	c101168 <mainTask+0x62c>
                showTariffScreen(selectedPlace, credit);
                ticks = 50;
            }
            else // Credito valido, procesamos el pago
            {
            	lcd_clear();
 c100fc0:	eb000c0c 	bl	c103ff8 <lcd_clear>
            	lcd_puts(24, 48, BLACK, "Procesando pago...");
 c100fc4:	e3a00018 	mov	r0, #24
 c100fc8:	e3a01030 	mov	r1, #48	; 0x30
 c100fcc:	e3a0200f 	mov	r2, #15
 c100fd0:	e59f31c8 	ldr	r3, [pc, #456]	; c1011a0 <mainTask+0x664>
 c100fd4:	eb000e0a 	bl	c104804 <lcd_puts>


                // Obtenemos la hora actual, aunque la estamos obteniendo cada segundo de reloj
                rtc_gettime(&actual_time);
 c100fd8:	e59f01c4 	ldr	r0, [pc, #452]	; c1011a4 <mainTask+0x668>
 c100fdc:	eb001248 	bl	c105904 <rtc_gettime>

                // Actualizamos la informacion de la plaza
                parking[selectedPlace - 1].occupied = TRUE;
 c100fe0:	e59f31ac 	ldr	r3, [pc, #428]	; c101194 <mainTask+0x658>
 c100fe4:	e5d33000 	ldrb	r3, [r3]
 c100fe8:	e20330ff 	and	r3, r3, #255	; 0xff
 c100fec:	e2432001 	sub	r2, r3, #1
 c100ff0:	e59f01a0 	ldr	r0, [pc, #416]	; c101198 <mainTask+0x65c>
 c100ff4:	e3a01008 	mov	r1, #8
 c100ff8:	e1a03002 	mov	r3, r2
 c100ffc:	e1a03203 	lsl	r3, r3, #4
 c101000:	e0623003 	rsb	r3, r2, r3
 c101004:	e0803003 	add	r3, r0, r3
 c101008:	e0833001 	add	r3, r3, r1
 c10100c:	e3a02001 	mov	r2, #1
 c101010:	e5c32006 	strb	r2, [r3, #6]
                parking[selectedPlace - 1].startTime = actual_time;  // Tiempo inicial en minutos
 c101014:	e59f3178 	ldr	r3, [pc, #376]	; c101194 <mainTask+0x658>
 c101018:	e5d33000 	ldrb	r3, [r3]
 c10101c:	e20330ff 	and	r3, r3, #255	; 0xff
 c101020:	e2432001 	sub	r2, r3, #1
 c101024:	e59f116c 	ldr	r1, [pc, #364]	; c101198 <mainTask+0x65c>
 c101028:	e1a03002 	mov	r3, r2
 c10102c:	e1a03203 	lsl	r3, r3, #4
 c101030:	e0623003 	rsb	r3, r2, r3
 c101034:	e0812003 	add	r2, r1, r3
 c101038:	e59f3164 	ldr	r3, [pc, #356]	; c1011a4 <mainTask+0x668>
 c10103c:	e1a01002 	mov	r1, r2
 c101040:	e1a02003 	mov	r2, r3
 c101044:	e3a03007 	mov	r3, #7
 c101048:	e1a00001 	mov	r0, r1
 c10104c:	e1a01002 	mov	r1, r2
 c101050:	e1a02003 	mov	r2, r3
 c101054:	eb000555 	bl	c1025b0 <memcpy>

                //Calculo el timpo final
                parking[selectedPlace - 1].endTime = parking[selectedPlace - 1].startTime;
 c101058:	e59f3134 	ldr	r3, [pc, #308]	; c101194 <mainTask+0x658>
 c10105c:	e5d33000 	ldrb	r3, [r3]
 c101060:	e20330ff 	and	r3, r3, #255	; 0xff
 c101064:	e2431001 	sub	r1, r3, #1
 c101068:	e59f3124 	ldr	r3, [pc, #292]	; c101194 <mainTask+0x658>
 c10106c:	e5d33000 	ldrb	r3, [r3]
 c101070:	e20330ff 	and	r3, r3, #255	; 0xff
 c101074:	e2432001 	sub	r2, r3, #1
 c101078:	e59f0118 	ldr	r0, [pc, #280]	; c101198 <mainTask+0x65c>
 c10107c:	e1a03001 	mov	r3, r1
 c101080:	e1a03203 	lsl	r3, r3, #4
 c101084:	e0613003 	rsb	r3, r1, r3
 c101088:	e0801003 	add	r1, r0, r3
 c10108c:	e59f0104 	ldr	r0, [pc, #260]	; c101198 <mainTask+0x65c>
 c101090:	e1a03002 	mov	r3, r2
 c101094:	e1a03203 	lsl	r3, r3, #4
 c101098:	e0623003 	rsb	r3, r2, r3
 c10109c:	e0803003 	add	r3, r0, r3
 c1010a0:	e2811007 	add	r1, r1, #7
 c1010a4:	e1a02003 	mov	r2, r3
 c1010a8:	e3a03007 	mov	r3, #7
 c1010ac:	e1a00001 	mov	r0, r1
 c1010b0:	e1a01002 	mov	r1, r2
 c1010b4:	e1a02003 	mov	r2, r3
 c1010b8:	eb00053c 	bl	c1025b0 <memcpy>
                // Aplico los creditos
                apply_credits(&parking[selectedPlace - 1].endTime, credit);
 c1010bc:	e59f30d0 	ldr	r3, [pc, #208]	; c101194 <mainTask+0x658>
 c1010c0:	e5d33000 	ldrb	r3, [r3]
 c1010c4:	e20330ff 	and	r3, r3, #255	; 0xff
 c1010c8:	e2432001 	sub	r2, r3, #1
 c1010cc:	e1a03002 	mov	r3, r2
 c1010d0:	e1a03203 	lsl	r3, r3, #4
 c1010d4:	e0623003 	rsb	r3, r2, r3
 c1010d8:	e59f20b8 	ldr	r2, [pc, #184]	; c101198 <mainTask+0x65c>
 c1010dc:	e0833002 	add	r3, r3, r2
 c1010e0:	e2832007 	add	r2, r3, #7
 c1010e4:	e59f308c 	ldr	r3, [pc, #140]	; c101178 <mainTask+0x63c>
 c1010e8:	e5d33000 	ldrb	r3, [r3]
 c1010ec:	e1a00002 	mov	r0, r2
 c1010f0:	e1a01003 	mov	r1, r3
 c1010f4:	ebfffd47 	bl	c100618 <apply_credits>


                // Activamos la impresion del ticket
                       printTicketFlag = TRUE;
 c1010f8:	e59f30a8 	ldr	r3, [pc, #168]	; c1011a8 <mainTask+0x66c>
 c1010fc:	e3a02001 	mov	r2, #1
 c101100:	e5c32000 	strb	r2, [r3]
                state = PRINT_TICKET;
 c101104:	e59f3070 	ldr	r3, [pc, #112]	; c10117c <mainTask+0x640>
 c101108:	e3a02004 	mov	r2, #4
 c10110c:	e5c32000 	strb	r2, [r3]

                sw_delay_ms(2000);//una vez finalizado pago, delay de lectura
 c101110:	e3a00e7d 	mov	r0, #2000	; 0x7d0
 c101114:	eb001a3b 	bl	c107a08 <sw_delay_ms>
            }
            break;
 c101118:	ea000012 	b	c101168 <mainTask+0x62c>
        case PRINT_TICKET:
            // Esperamos a que se complete la impresion
            if (!printTicketFlag)
 c10111c:	e59f3084 	ldr	r3, [pc, #132]	; c1011a8 <mainTask+0x66c>
 c101120:	e5d33000 	ldrb	r3, [r3]
 c101124:	e3530000 	cmp	r3, #0
 c101128:	1a00000d 	bne	c101164 <mainTask+0x628>
            {
                plotWelcomeScreen();
 c10112c:	eb0002bf 	bl	c101c30 <plotWelcomeScreen>
                credit = 0;
 c101130:	e59f3040 	ldr	r3, [pc, #64]	; c101178 <mainTask+0x63c>
 c101134:	e3a02000 	mov	r2, #0
 c101138:	e5c32000 	strb	r2, [r3]
                state = WELCOME_SCREEN;
 c10113c:	e59f3038 	ldr	r3, [pc, #56]	; c10117c <mainTask+0x640>
 c101140:	e3a02000 	mov	r2, #0
 c101144:	e5c32000 	strb	r2, [r3]
            }
            break;
 c101148:	ea000006 	b	c101168 <mainTask+0x62c>
        {
            coinAcceptorMsg.flag = FALSE;              /* Marca el mensaje como leido */
            coinsMoverMsg.accept = FALSE;              /* Envia un mensaje para que la moneda se devuelva */
            coinsMoverMsg.flag = TRUE;
        }
        break;
 c10114c:	e1a00000 	nop			; (mov r0, r0)
 c101150:	ea000004 	b	c101168 <mainTask+0x62c>
            if (coinAcceptorMsg.flag) {
                coinAcceptorMsg.flag = FALSE;
                coinsMoverMsg.accept = FALSE;
                coinsMoverMsg.flag = TRUE;
            }
            break;
 c101154:	e1a00000 	nop			; (mov r0, r0)
 c101158:	ea000002 	b	c101168 <mainTask+0x62c>
            if (tsPressedMsg.flag)
            {
                tsPressedMsg.flag = FALSE;
                state = PROCESS_PAYMENT;
            }
            break;
 c10115c:	e1a00000 	nop			; (mov r0, r0)
 c101160:	ea000000 	b	c101168 <mainTask+0x62c>
            {
                plotWelcomeScreen();
                credit = 0;
                state = WELCOME_SCREEN;
            }
            break;
 c101164:	e1a00000 	nop			; (mov r0, r0)
        }
    }
 c101168:	e24bd00c 	sub	sp, fp, #12
 c10116c:	e89d6800 	ldm	sp, {fp, sp, lr}
 c101170:	e12fff1e 	bx	lr
 c101174:	0c10bdf7 	.word	0x0c10bdf7
 c101178:	0c1154b2 	.word	0x0c1154b2
 c10117c:	0c1154b3 	.word	0x0c1154b3
 c101180:	0c115510 	.word	0x0c115510
 c101184:	0c10a1a4 	.word	0x0c10a1a4
 c101188:	0c1154b4 	.word	0x0c1154b4
 c10118c:	0c115518 	.word	0x0c115518
 c101190:	0c11551c 	.word	0x0c11551c
 c101194:	0c115516 	.word	0x0c115516
 c101198:	0c115520 	.word	0x0c115520
 c10119c:	0c10a1b8 	.word	0x0c10a1b8
 c1011a0:	0c10a1cc 	.word	0x0c10a1cc
 c1011a4:	0c115508 	.word	0x0c115508
 c1011a8:	0c115598 	.word	0x0c115598

0c1011ac <ticketPrinterTask>:
/*
** Emula el comportamiento de la impresora de tickets:
**   Cada segundo muestrea si ha recibido un mensaje de la tarea principal enviar a traves de la UART el texto del ticket del aparcamiento elegido
*/
void ticketPrinterTask(void)//Revisado
{
 c1011ac:	e1a0c00d 	mov	ip, sp
 c1011b0:	e92dd800 	push	{fp, ip, lr, pc}
 c1011b4:	e24cb004 	sub	fp, ip, #4
    if (printTicketFlag)
 c1011b8:	e59f31ac 	ldr	r3, [pc, #428]	; c10136c <ticketPrinterTask+0x1c0>
 c1011bc:	e5d33000 	ldrb	r3, [r3]
 c1011c0:	e3530000 	cmp	r3, #0
 c1011c4:	0a000065 	beq	c101360 <ticketPrinterTask+0x1b4>
    {
        // Imprimimos una línea de guiones como separador
        uart0_puts("--------------------------------\n");
 c1011c8:	e59f01a0 	ldr	r0, [pc, #416]	; c101370 <ticketPrinterTask+0x1c4>
 c1011cc:	eb001f0e 	bl	c108e0c <uart0_puts>

        // Primera línea: número de plaza
        uart0_puts("Plaza ");
 c1011d0:	e59f019c 	ldr	r0, [pc, #412]	; c101374 <ticketPrinterTask+0x1c8>
 c1011d4:	eb001f0c 	bl	c108e0c <uart0_puts>
        uart0_putint(selectedPlace);
 c1011d8:	e59f3198 	ldr	r3, [pc, #408]	; c101378 <ticketPrinterTask+0x1cc>
 c1011dc:	e5d33000 	ldrb	r3, [r3]
 c1011e0:	e20330ff 	and	r3, r3, #255	; 0xff
 c1011e4:	e1a00003 	mov	r0, r3
 c1011e8:	eb001f1b 	bl	c108e5c <uart0_putint>
        uart0_puts("\n");
 c1011ec:	e59f0188 	ldr	r0, [pc, #392]	; c10137c <ticketPrinterTask+0x1d0>
 c1011f0:	eb001f05 	bl	c108e0c <uart0_puts>

        // Segunda línea: "Fin de estacionamiento:"
        uart0_puts("Fin de estacionamiento:\n");
 c1011f4:	e59f0184 	ldr	r0, [pc, #388]	; c101380 <ticketPrinterTask+0x1d4>
 c1011f8:	eb001f03 	bl	c108e0c <uart0_puts>

        // Tercera línea: Fecha de fin, por ahora he dejado los segundos tambien ya que al comparar
        // los estoy teniendo en cuenta, habría que cambiarlo ya que en la demo no tiene en cuenta los segundos
               uart0_puts(calculate_weekday(parking[selectedPlace-1].endTime.wday)+',' + parking[selectedPlace-1].endTime.mday + '/'+parking[selectedPlace-1].endTime.mon+'/'+parking[selectedPlace-1].endTime.year+' '+
 c1011fc:	e59f3174 	ldr	r3, [pc, #372]	; c101378 <ticketPrinterTask+0x1cc>
 c101200:	e5d33000 	ldrb	r3, [r3]
 c101204:	e20330ff 	and	r3, r3, #255	; 0xff
 c101208:	e2432001 	sub	r2, r3, #1
 c10120c:	e59f1170 	ldr	r1, [pc, #368]	; c101384 <ticketPrinterTask+0x1d8>
 c101210:	e1a03002 	mov	r3, r2
 c101214:	e1a03203 	lsl	r3, r3, #4
 c101218:	e0623003 	rsb	r3, r2, r3
 c10121c:	e0813003 	add	r3, r1, r3
 c101220:	e5d3300b 	ldrb	r3, [r3, #11]
 c101224:	e1a00003 	mov	r0, r3
 c101228:	ebfffb74 	bl	c100000 <calculate_weekday>
 c10122c:	e1a01000 	mov	r1, r0
 c101230:	e59f3140 	ldr	r3, [pc, #320]	; c101378 <ticketPrinterTask+0x1cc>
 c101234:	e5d33000 	ldrb	r3, [r3]
 c101238:	e20330ff 	and	r3, r3, #255	; 0xff
 c10123c:	e2432001 	sub	r2, r3, #1
 c101240:	e59f013c 	ldr	r0, [pc, #316]	; c101384 <ticketPrinterTask+0x1d8>
 c101244:	e1a03002 	mov	r3, r2
 c101248:	e1a03203 	lsl	r3, r3, #4
 c10124c:	e0623003 	rsb	r3, r2, r3
 c101250:	e0803003 	add	r3, r0, r3
 c101254:	e5d3300a 	ldrb	r3, [r3, #10]
 c101258:	e1a00003 	mov	r0, r3
 c10125c:	e59f3114 	ldr	r3, [pc, #276]	; c101378 <ticketPrinterTask+0x1cc>
 c101260:	e5d33000 	ldrb	r3, [r3]
 c101264:	e20330ff 	and	r3, r3, #255	; 0xff
 c101268:	e2432001 	sub	r2, r3, #1
 c10126c:	e59fc110 	ldr	ip, [pc, #272]	; c101384 <ticketPrinterTask+0x1d8>
 c101270:	e1a03002 	mov	r3, r2
 c101274:	e1a03203 	lsl	r3, r3, #4
 c101278:	e0623003 	rsb	r3, r2, r3
 c10127c:	e08c3003 	add	r3, ip, r3
 c101280:	e5d3300c 	ldrb	r3, [r3, #12]
 c101284:	e0800003 	add	r0, r0, r3
 c101288:	e59f30e8 	ldr	r3, [pc, #232]	; c101378 <ticketPrinterTask+0x1cc>
 c10128c:	e5d33000 	ldrb	r3, [r3]
 c101290:	e20330ff 	and	r3, r3, #255	; 0xff
 c101294:	e2432001 	sub	r2, r3, #1
 c101298:	e59fc0e4 	ldr	ip, [pc, #228]	; c101384 <ticketPrinterTask+0x1d8>
 c10129c:	e1a03002 	mov	r3, r2
 c1012a0:	e1a03203 	lsl	r3, r3, #4
 c1012a4:	e0623003 	rsb	r3, r2, r3
 c1012a8:	e08c3003 	add	r3, ip, r3
 c1012ac:	e5d3300d 	ldrb	r3, [r3, #13]
 c1012b0:	e0800003 	add	r0, r0, r3
            		   parking[selectedPlace-1].endTime.hour+':'+parking[selectedPlace-1].endTime.min+':'+parking[selectedPlace-1].endTime.sec);
 c1012b4:	e59f30bc 	ldr	r3, [pc, #188]	; c101378 <ticketPrinterTask+0x1cc>
 c1012b8:	e5d33000 	ldrb	r3, [r3]
 c1012bc:	e20330ff 	and	r3, r3, #255	; 0xff
 c1012c0:	e2432001 	sub	r2, r3, #1
 c1012c4:	e59fc0b8 	ldr	ip, [pc, #184]	; c101384 <ticketPrinterTask+0x1d8>
 c1012c8:	e1a03002 	mov	r3, r2
 c1012cc:	e1a03203 	lsl	r3, r3, #4
 c1012d0:	e0623003 	rsb	r3, r2, r3
 c1012d4:	e08c3003 	add	r3, ip, r3
 c1012d8:	e5d33009 	ldrb	r3, [r3, #9]
        // Segunda línea: "Fin de estacionamiento:"
        uart0_puts("Fin de estacionamiento:\n");

        // Tercera línea: Fecha de fin, por ahora he dejado los segundos tambien ya que al comparar
        // los estoy teniendo en cuenta, habría que cambiarlo ya que en la demo no tiene en cuenta los segundos
               uart0_puts(calculate_weekday(parking[selectedPlace-1].endTime.wday)+',' + parking[selectedPlace-1].endTime.mday + '/'+parking[selectedPlace-1].endTime.mon+'/'+parking[selectedPlace-1].endTime.year+' '+
 c1012dc:	e0800003 	add	r0, r0, r3
            		   parking[selectedPlace-1].endTime.hour+':'+parking[selectedPlace-1].endTime.min+':'+parking[selectedPlace-1].endTime.sec);
 c1012e0:	e59f3090 	ldr	r3, [pc, #144]	; c101378 <ticketPrinterTask+0x1cc>
 c1012e4:	e5d33000 	ldrb	r3, [r3]
 c1012e8:	e20330ff 	and	r3, r3, #255	; 0xff
 c1012ec:	e2432001 	sub	r2, r3, #1
 c1012f0:	e59fc08c 	ldr	ip, [pc, #140]	; c101384 <ticketPrinterTask+0x1d8>
 c1012f4:	e1a03002 	mov	r3, r2
 c1012f8:	e1a03203 	lsl	r3, r3, #4
 c1012fc:	e0623003 	rsb	r3, r2, r3
 c101300:	e08c3003 	add	r3, ip, r3
 c101304:	e5d33008 	ldrb	r3, [r3, #8]
 c101308:	e0800003 	add	r0, r0, r3
 c10130c:	e59f3064 	ldr	r3, [pc, #100]	; c101378 <ticketPrinterTask+0x1cc>
 c101310:	e5d33000 	ldrb	r3, [r3]
 c101314:	e20330ff 	and	r3, r3, #255	; 0xff
 c101318:	e2432001 	sub	r2, r3, #1
 c10131c:	e59fc060 	ldr	ip, [pc, #96]	; c101384 <ticketPrinterTask+0x1d8>
 c101320:	e1a03002 	mov	r3, r2
 c101324:	e1a03203 	lsl	r3, r3, #4
 c101328:	e0623003 	rsb	r3, r2, r3
 c10132c:	e08c3003 	add	r3, ip, r3
 c101330:	e5d33007 	ldrb	r3, [r3, #7]
 c101334:	e0803003 	add	r3, r0, r3
 c101338:	e2833f47 	add	r3, r3, #284	; 0x11c
 c10133c:	e2833002 	add	r3, r3, #2
        // Segunda línea: "Fin de estacionamiento:"
        uart0_puts("Fin de estacionamiento:\n");

        // Tercera línea: Fecha de fin, por ahora he dejado los segundos tambien ya que al comparar
        // los estoy teniendo en cuenta, habría que cambiarlo ya que en la demo no tiene en cuenta los segundos
               uart0_puts(calculate_weekday(parking[selectedPlace-1].endTime.wday)+',' + parking[selectedPlace-1].endTime.mday + '/'+parking[selectedPlace-1].endTime.mon+'/'+parking[selectedPlace-1].endTime.year+' '+
 c101340:	e0813003 	add	r3, r1, r3
 c101344:	e1a00003 	mov	r0, r3
 c101348:	eb001eaf 	bl	c108e0c <uart0_puts>
            		   parking[selectedPlace-1].endTime.hour+':'+parking[selectedPlace-1].endTime.min+':'+parking[selectedPlace-1].endTime.sec);

        // Línea separadora final
        uart0_puts("--------------------------------\n");
 c10134c:	e59f001c 	ldr	r0, [pc, #28]	; c101370 <ticketPrinterTask+0x1c4>
 c101350:	eb001ead 	bl	c108e0c <uart0_puts>

        printTicketFlag = FALSE;
 c101354:	e59f3010 	ldr	r3, [pc, #16]	; c10136c <ticketPrinterTask+0x1c0>
 c101358:	e3a02000 	mov	r2, #0
 c10135c:	e5c32000 	strb	r2, [r3]
    }
}
 c101360:	e24bd00c 	sub	sp, fp, #12
 c101364:	e89d6800 	ldm	sp, {fp, sp, lr}
 c101368:	e12fff1e 	bx	lr
 c10136c:	0c115598 	.word	0x0c115598
 c101370:	0c10a1e0 	.word	0x0c10a1e0
 c101374:	0c10a204 	.word	0x0c10a204
 c101378:	0c115516 	.word	0x0c115516
 c10137c:	0c10a20c 	.word	0x0c10a20c
 c101380:	0c10a210 	.word	0x0c10a210
 c101384:	0c115520 	.word	0x0c115520

0c101388 <clockTask>:

/*
** Cada segundo visualiza la fecha/hora en la pantalla y libera aquellas plazas cuya hora de finalizacion haya pasado
*/
void clockTask(void)//Revisado
{
 c101388:	e1a0c00d 	mov	ip, sp
 c10138c:	e92dd800 	push	{fp, ip, lr, pc}
 c101390:	e24cb004 	sub	fp, ip, #4
 c101394:	e24dd008 	sub	sp, sp, #8
	uint8 i;
    //Saco la hora
    rtc_gettime(&actual_time);
 c101398:	e59f026c 	ldr	r0, [pc, #620]	; c10160c <clockTask+0x284>
 c10139c:	eb001158 	bl	c105904 <rtc_gettime>

    // Mostramos la hora
    lcd_puts(60, 8, BLACK, calculate_weekday(actual_time.wday));
 c1013a0:	e59f3264 	ldr	r3, [pc, #612]	; c10160c <clockTask+0x284>
 c1013a4:	e5d33004 	ldrb	r3, [r3, #4]
 c1013a8:	e1a00003 	mov	r0, r3
 c1013ac:	ebfffb13 	bl	c100000 <calculate_weekday>
 c1013b0:	e1a03000 	mov	r3, r0
 c1013b4:	e3a0003c 	mov	r0, #60	; 0x3c
 c1013b8:	e3a01008 	mov	r1, #8
 c1013bc:	e3a0200f 	mov	r2, #15
 c1013c0:	eb000d0f 	bl	c104804 <lcd_puts>
    lcd_putchar(84, 8, BLACK, ',');
 c1013c4:	e3a00054 	mov	r0, #84	; 0x54
 c1013c8:	e3a01008 	mov	r1, #8
 c1013cc:	e3a0200f 	mov	r2, #15
 c1013d0:	e3a0302c 	mov	r3, #44	; 0x2c
 c1013d4:	eb000c6b 	bl	c104588 <lcd_putchar>
	lcd_putint(92, 8, BLACK, actual_time.mday);
 c1013d8:	e59f322c 	ldr	r3, [pc, #556]	; c10160c <clockTask+0x284>
 c1013dc:	e5d33003 	ldrb	r3, [r3, #3]
 c1013e0:	e3a0005c 	mov	r0, #92	; 0x5c
 c1013e4:	e3a01008 	mov	r1, #8
 c1013e8:	e3a0200f 	mov	r2, #15
 c1013ec:	eb000d21 	bl	c104878 <lcd_putint>
	lcd_putchar(108, 8, BLACK, '/');
 c1013f0:	e3a0006c 	mov	r0, #108	; 0x6c
 c1013f4:	e3a01008 	mov	r1, #8
 c1013f8:	e3a0200f 	mov	r2, #15
 c1013fc:	e3a0302f 	mov	r3, #47	; 0x2f
 c101400:	eb000c60 	bl	c104588 <lcd_putchar>
	lcd_putint(116, 8, BLACK, actual_time.mon);
 c101404:	e59f3200 	ldr	r3, [pc, #512]	; c10160c <clockTask+0x284>
 c101408:	e5d33005 	ldrb	r3, [r3, #5]
 c10140c:	e3a00074 	mov	r0, #116	; 0x74
 c101410:	e3a01008 	mov	r1, #8
 c101414:	e3a0200f 	mov	r2, #15
 c101418:	eb000d16 	bl	c104878 <lcd_putint>
	lcd_putchar(132, 8, BLACK, '/');
 c10141c:	e3a00084 	mov	r0, #132	; 0x84
 c101420:	e3a01008 	mov	r1, #8
 c101424:	e3a0200f 	mov	r2, #15
 c101428:	e3a0302f 	mov	r3, #47	; 0x2f
 c10142c:	eb000c55 	bl	c104588 <lcd_putchar>
	lcd_putint(140, 8, BLACK, actual_time.year);
 c101430:	e59f31d4 	ldr	r3, [pc, #468]	; c10160c <clockTask+0x284>
 c101434:	e5d33006 	ldrb	r3, [r3, #6]
 c101438:	e3a0008c 	mov	r0, #140	; 0x8c
 c10143c:	e3a01008 	mov	r1, #8
 c101440:	e3a0200f 	mov	r2, #15
 c101444:	eb000d0b 	bl	c104878 <lcd_putint>

	lcd_putint(176, 8, BLACK, actual_time.hour);
 c101448:	e59f31bc 	ldr	r3, [pc, #444]	; c10160c <clockTask+0x284>
 c10144c:	e5d33002 	ldrb	r3, [r3, #2]
 c101450:	e3a000b0 	mov	r0, #176	; 0xb0
 c101454:	e3a01008 	mov	r1, #8
 c101458:	e3a0200f 	mov	r2, #15
 c10145c:	eb000d05 	bl	c104878 <lcd_putint>
	lcd_putchar(192, 8, BLACK, ':');
 c101460:	e3a000c0 	mov	r0, #192	; 0xc0
 c101464:	e3a01008 	mov	r1, #8
 c101468:	e3a0200f 	mov	r2, #15
 c10146c:	e3a0303a 	mov	r3, #58	; 0x3a
 c101470:	eb000c44 	bl	c104588 <lcd_putchar>
	lcd_putint(200, 8, BLACK, actual_time.min);
 c101474:	e59f3190 	ldr	r3, [pc, #400]	; c10160c <clockTask+0x284>
 c101478:	e5d33001 	ldrb	r3, [r3, #1]
 c10147c:	e3a000c8 	mov	r0, #200	; 0xc8
 c101480:	e3a01008 	mov	r1, #8
 c101484:	e3a0200f 	mov	r2, #15
 c101488:	eb000cfa 	bl	c104878 <lcd_putint>
	lcd_putchar(216, 8, BLACK, ':');
 c10148c:	e3a000d8 	mov	r0, #216	; 0xd8
 c101490:	e3a01008 	mov	r1, #8
 c101494:	e3a0200f 	mov	r2, #15
 c101498:	e3a0303a 	mov	r3, #58	; 0x3a
 c10149c:	eb000c39 	bl	c104588 <lcd_putchar>
	lcd_putint(224, 8, BLACK, actual_time.sec);
 c1014a0:	e59f3164 	ldr	r3, [pc, #356]	; c10160c <clockTask+0x284>
 c1014a4:	e5d33000 	ldrb	r3, [r3]
 c1014a8:	e3a000e0 	mov	r0, #224	; 0xe0
 c1014ac:	e3a01008 	mov	r1, #8
 c1014b0:	e3a0200f 	mov	r2, #15
 c1014b4:	eb000cef 	bl	c104878 <lcd_putint>

    // Liberar plazas de parking cuya hora de finalización haya pasado

    for (i=0; i < MAXPLACES; i++) {
 c1014b8:	e3a03000 	mov	r3, #0
 c1014bc:	e54b300d 	strb	r3, [fp, #-13]
 c1014c0:	ea00004b 	b	c1015f4 <clockTask+0x26c>
        if (parking[i].occupied) {
 c1014c4:	e55b200d 	ldrb	r2, [fp, #-13]
 c1014c8:	e59f0140 	ldr	r0, [pc, #320]	; c101610 <clockTask+0x288>
 c1014cc:	e3a01008 	mov	r1, #8
 c1014d0:	e1a03002 	mov	r3, r2
 c1014d4:	e1a03203 	lsl	r3, r3, #4
 c1014d8:	e0623003 	rsb	r3, r2, r3
 c1014dc:	e0803003 	add	r3, r0, r3
 c1014e0:	e0833001 	add	r3, r3, r1
 c1014e4:	e5d33006 	ldrb	r3, [r3, #6]
 c1014e8:	e3530000 	cmp	r3, #0
 c1014ec:	0a00003d 	beq	c1015e8 <clockTask+0x260>
            if (dates_comparator(actual_time, parking[i].endTime)) {
 c1014f0:	e55b200d 	ldrb	r2, [fp, #-13]
 c1014f4:	e59f1110 	ldr	r1, [pc, #272]	; c10160c <clockTask+0x284>
 c1014f8:	e59f0110 	ldr	r0, [pc, #272]	; c101610 <clockTask+0x288>
 c1014fc:	e1a03002 	mov	r3, r2
 c101500:	e1a03203 	lsl	r3, r3, #4
 c101504:	e0623003 	rsb	r3, r2, r3
 c101508:	e0803003 	add	r3, r0, r3
 c10150c:	e5d32007 	ldrb	r2, [r3, #7]
 c101510:	e5d30008 	ldrb	r0, [r3, #8]
 c101514:	e1a00400 	lsl	r0, r0, #8
 c101518:	e1802002 	orr	r2, r0, r2
 c10151c:	e5d30009 	ldrb	r0, [r3, #9]
 c101520:	e1a00800 	lsl	r0, r0, #16
 c101524:	e1802002 	orr	r2, r0, r2
 c101528:	e5d3000a 	ldrb	r0, [r3, #10]
 c10152c:	e1a00c00 	lsl	r0, r0, #24
 c101530:	e1800002 	orr	r0, r0, r2
 c101534:	e3a02000 	mov	r2, #0
 c101538:	e1a02000 	mov	r2, r0
 c10153c:	e5d3000b 	ldrb	r0, [r3, #11]
 c101540:	e5d3c00c 	ldrb	ip, [r3, #12]
 c101544:	e1a0c40c 	lsl	ip, ip, #8
 c101548:	e18c0000 	orr	r0, ip, r0
 c10154c:	e5d3300d 	ldrb	r3, [r3, #13]
 c101550:	e1a03803 	lsl	r3, r3, #16
 c101554:	e1830000 	orr	r0, r3, r0
 c101558:	e3a03000 	mov	r3, #0
 c10155c:	e3c004ff 	bic	r0, r0, #-16777216	; 0xff000000
 c101560:	e20334ff 	and	r3, r3, #-16777216	; 0xff000000
 c101564:	e1803003 	orr	r3, r0, r3
 c101568:	e8910003 	ldm	r1, {r0, r1}
 c10156c:	ebfffacf 	bl	c1000b0 <dates_comparator>
 c101570:	e1a03000 	mov	r3, r0
 c101574:	e3530000 	cmp	r3, #0
 c101578:	0a00001a 	beq	c1015e8 <clockTask+0x260>
                parking[i].occupied = FALSE;  // Marca como libre
 c10157c:	e55b200d 	ldrb	r2, [fp, #-13]
 c101580:	e59f0088 	ldr	r0, [pc, #136]	; c101610 <clockTask+0x288>
 c101584:	e3a01008 	mov	r1, #8
 c101588:	e1a03002 	mov	r3, r2
 c10158c:	e1a03203 	lsl	r3, r3, #4
 c101590:	e0623003 	rsb	r3, r2, r3
 c101594:	e0803003 	add	r3, r0, r3
 c101598:	e0833001 	add	r3, r3, r1
 c10159c:	e3a02000 	mov	r2, #0
 c1015a0:	e5c32006 	strb	r2, [r3, #6]
                reset_rtc_time(&parking[i].startTime);//Reseteamos inicio y final de plaza
 c1015a4:	e55b200d 	ldrb	r2, [fp, #-13]
 c1015a8:	e1a03002 	mov	r3, r2
 c1015ac:	e1a03203 	lsl	r3, r3, #4
 c1015b0:	e0623003 	rsb	r3, r2, r3
 c1015b4:	e59f2054 	ldr	r2, [pc, #84]	; c101610 <clockTask+0x288>
 c1015b8:	e0833002 	add	r3, r3, r2
 c1015bc:	e1a00003 	mov	r0, r3
 c1015c0:	ebfffb09 	bl	c1001ec <reset_rtc_time>
                reset_rtc_time(&parking[i].endTime);
 c1015c4:	e55b200d 	ldrb	r2, [fp, #-13]
 c1015c8:	e1a03002 	mov	r3, r2
 c1015cc:	e1a03203 	lsl	r3, r3, #4
 c1015d0:	e0623003 	rsb	r3, r2, r3
 c1015d4:	e59f2034 	ldr	r2, [pc, #52]	; c101610 <clockTask+0x288>
 c1015d8:	e0833002 	add	r3, r3, r2
 c1015dc:	e2833007 	add	r3, r3, #7
 c1015e0:	e1a00003 	mov	r0, r3
 c1015e4:	ebfffb00 	bl	c1001ec <reset_rtc_time>
	lcd_putchar(216, 8, BLACK, ':');
	lcd_putint(224, 8, BLACK, actual_time.sec);

    // Liberar plazas de parking cuya hora de finalización haya pasado

    for (i=0; i < MAXPLACES; i++) {
 c1015e8:	e55b300d 	ldrb	r3, [fp, #-13]
 c1015ec:	e2833001 	add	r3, r3, #1
 c1015f0:	e54b300d 	strb	r3, [fp, #-13]
 c1015f4:	e55b300d 	ldrb	r3, [fp, #-13]
 c1015f8:	e3530007 	cmp	r3, #7
 c1015fc:	9affffb0 	bls	c1014c4 <clockTask+0x13c>
                reset_rtc_time(&parking[i].startTime);//Reseteamos inicio y final de plaza
                reset_rtc_time(&parking[i].endTime);
            }
        }
    }
}
 c101600:	e24bd00c 	sub	sp, fp, #12
 c101604:	e89d6800 	ldm	sp, {fp, sp, lr}
 c101608:	e12fff1e 	bx	lr
 c10160c:	0c115508 	.word	0x0c115508
 c101610:	0c115520 	.word	0x0c115520

0c101614 <tsScanTask>:

/*
** Cada 50 ms muestrea la touchscreen y envia un mensaje a la tarea principal con la posicion del lugar pulsado
*/
void tsScanTask(void)//Revisado
{
 c101614:	e1a0c00d 	mov	ip, sp
 c101618:	e92dd800 	push	{fp, ip, lr, pc}
 c10161c:	e24cb004 	sub	fp, ip, #4
 c101620:	e24dd008 	sub	sp, sp, #8
    static boolean init = TRUE;
    static enum { wait_keydown, scan, wait_keyup } state;
    uint16 x, y;
    if (init)
 c101624:	e59f30e4 	ldr	r3, [pc, #228]	; c101710 <tsScanTask+0xfc>
 c101628:	e5d33000 	ldrb	r3, [r3]
 c10162c:	e3530000 	cmp	r3, #0
 c101630:	0a000006 	beq	c101650 <tsScanTask+0x3c>
    {
        init = FALSE;
 c101634:	e59f30d4 	ldr	r3, [pc, #212]	; c101710 <tsScanTask+0xfc>
 c101638:	e3a02000 	mov	r2, #0
 c10163c:	e5c32000 	strb	r2, [r3]
        state = wait_keydown;
 c101640:	e59f30cc 	ldr	r3, [pc, #204]	; c101714 <tsScanTask+0x100>
 c101644:	e3a02000 	mov	r2, #0
 c101648:	e5c32000 	strb	r2, [r3]
 c10164c:	ea00002c 	b	c101704 <tsScanTask+0xf0>
    }
    else switch (state)
 c101650:	e59f30bc 	ldr	r3, [pc, #188]	; c101714 <tsScanTask+0x100>
 c101654:	e5d33000 	ldrb	r3, [r3]
 c101658:	e3530001 	cmp	r3, #1
 c10165c:	0a00000b 	beq	c101690 <tsScanTask+0x7c>
 c101660:	e3530002 	cmp	r3, #2
 c101664:	0a00001b 	beq	c1016d8 <tsScanTask+0xc4>
 c101668:	e3530000 	cmp	r3, #0
 c10166c:	1a000024 	bne	c101704 <tsScanTask+0xf0>
    {
		case wait_keydown:                        /* Estado esperando la presion de la pantalla */
			if (ts_pressed())                        /* Chequea la pantalla esta presionada */
 c101670:	eb001b07 	bl	c108294 <ts_pressed>
 c101674:	e1a03000 	mov	r3, r0
 c101678:	e3530000 	cmp	r3, #0
 c10167c:	0a00001d 	beq	c1016f8 <tsScanTask+0xe4>
				state = scan;                         /* Salta al estado scan */
 c101680:	e59f308c 	ldr	r3, [pc, #140]	; c101714 <tsScanTask+0x100>
 c101684:	e3a02001 	mov	r2, #1
 c101688:	e5c32000 	strb	r2, [r3]
			break;
 c10168c:	ea00001c 	b	c101704 <tsScanTask+0xf0>
		case scan:
			ts_getpos(&x, &y);   //Aqui tenia que recibir punteros      /* Estado en que escanea la pantalla */
 c101690:	e24b200e 	sub	r2, fp, #14
 c101694:	e24b3010 	sub	r3, fp, #16
 c101698:	e1a00002 	mov	r0, r2
 c10169c:	e1a01003 	mov	r1, r3
 c1016a0:	eb001d63 	bl	c108c34 <ts_getpos>
			tsPressedMsg.x = x;             /* Obtiene la posicion X */
 c1016a4:	e15b20be 	ldrh	r2, [fp, #-14]
 c1016a8:	e59f3068 	ldr	r3, [pc, #104]	; c101718 <tsScanTask+0x104>
 c1016ac:	e1c320b2 	strh	r2, [r3, #2]
			tsPressedMsg.y = y;             /* Obtiene la posicion Y */
 c1016b0:	e15b21b0 	ldrh	r2, [fp, #-16]
 c1016b4:	e59f305c 	ldr	r3, [pc, #92]	; c101718 <tsScanTask+0x104>
 c1016b8:	e1c320b4 	strh	r2, [r3, #4]
			tsPressedMsg.flag = TRUE;                /* Marca el mensaje como valido */
 c1016bc:	e59f3054 	ldr	r3, [pc, #84]	; c101718 <tsScanTask+0x104>
 c1016c0:	e3a02001 	mov	r2, #1
 c1016c4:	e5c32000 	strb	r2, [r3]
			state = wait_keyup;                      /* Cambia al estado wait_keyup */
 c1016c8:	e59f3044 	ldr	r3, [pc, #68]	; c101714 <tsScanTask+0x100>
 c1016cc:	e3a02002 	mov	r2, #2
 c1016d0:	e5c32000 	strb	r2, [r3]
			break;
 c1016d4:	ea00000a 	b	c101704 <tsScanTask+0xf0>
		case wait_keyup:                           /* Estado esperando que se deje de presionar la pantalla */
			if (!ts_pressed())                     /* Chequea que la pantalla ya no esta presionada */
 c1016d8:	eb001aed 	bl	c108294 <ts_pressed>
 c1016dc:	e1a03000 	mov	r3, r0
 c1016e0:	e3530000 	cmp	r3, #0
 c1016e4:	1a000005 	bne	c101700 <tsScanTask+0xec>
				state = wait_keydown;                /* Vuelve al estado inicial */
 c1016e8:	e59f3024 	ldr	r3, [pc, #36]	; c101714 <tsScanTask+0x100>
 c1016ec:	e3a02000 	mov	r2, #0
 c1016f0:	e5c32000 	strb	r2, [r3]
			break;
 c1016f4:	ea000002 	b	c101704 <tsScanTask+0xf0>
    else switch (state)
    {
		case wait_keydown:                        /* Estado esperando la presion de la pantalla */
			if (ts_pressed())                        /* Chequea la pantalla esta presionada */
				state = scan;                         /* Salta al estado scan */
			break;
 c1016f8:	e1a00000 	nop			; (mov r0, r0)
 c1016fc:	ea000000 	b	c101704 <tsScanTask+0xf0>
			state = wait_keyup;                      /* Cambia al estado wait_keyup */
			break;
		case wait_keyup:                           /* Estado esperando que se deje de presionar la pantalla */
			if (!ts_pressed())                     /* Chequea que la pantalla ya no esta presionada */
				state = wait_keydown;                /* Vuelve al estado inicial */
			break;
 c101700:	e1a00000 	nop			; (mov r0, r0)
    }
}
 c101704:	e24bd00c 	sub	sp, fp, #12
 c101708:	e89d6800 	ldm	sp, {fp, sp, lr}
 c10170c:	e12fff1e 	bx	lr
 c101710:	0c10bdf6 	.word	0x0c10bdf6
 c101714:	0c1154b1 	.word	0x0c1154b1
 c101718:	0c115510 	.word	0x0c115510

0c10171c <coinsAcceptorTask>:

/*
** Emula el comportamiento de un reconocedor de monedas:
**   Cada 50 ms muestrea el keypad y envia un mensaje a la tarea principal con el valor de la moneda asociada a la tecla
*/
void coinsAcceptorTask(void) {//Revisado
 c10171c:	e1a0c00d 	mov	ip, sp
 c101720:	e92dd800 	push	{fp, ip, lr, pc}
 c101724:	e24cb004 	sub	fp, ip, #4
    static boolean init = TRUE;
    static enum { wait_keydown, scan, wait_keyup } state;

    if (init)
 c101728:	e59f3144 	ldr	r3, [pc, #324]	; c101874 <coinsAcceptorTask+0x158>
 c10172c:	e5d33000 	ldrb	r3, [r3]
 c101730:	e3530000 	cmp	r3, #0
 c101734:	0a000006 	beq	c101754 <coinsAcceptorTask+0x38>
    {
        init = FALSE;
 c101738:	e59f3134 	ldr	r3, [pc, #308]	; c101874 <coinsAcceptorTask+0x158>
 c10173c:	e3a02000 	mov	r2, #0
 c101740:	e5c32000 	strb	r2, [r3]
        state = wait_keydown;
 c101744:	e59f312c 	ldr	r3, [pc, #300]	; c101878 <coinsAcceptorTask+0x15c>
 c101748:	e3a02000 	mov	r2, #0
 c10174c:	e5c32000 	strb	r2, [r3]
 c101750:	ea000044 	b	c101868 <coinsAcceptorTask+0x14c>
    }
    else switch (state)
 c101754:	e59f311c 	ldr	r3, [pc, #284]	; c101878 <coinsAcceptorTask+0x15c>
 c101758:	e5d33000 	ldrb	r3, [r3]
 c10175c:	e3530001 	cmp	r3, #1
 c101760:	0a00000b 	beq	c101794 <coinsAcceptorTask+0x78>
 c101764:	e3530002 	cmp	r3, #2
 c101768:	0a000033 	beq	c10183c <coinsAcceptorTask+0x120>
 c10176c:	e3530000 	cmp	r3, #0
 c101770:	1a00003c 	bne	c101868 <coinsAcceptorTask+0x14c>
    {
    case wait_keydown:                        /* Estado esperando la presion teclas */
        if (keypad_pressed())                    /* Chequea si hay una tecla presionada */
 c101774:	eb0008b0 	bl	c103a3c <keypad_pressed>
 c101778:	e1a03000 	mov	r3, r0
 c10177c:	e3530000 	cmp	r3, #0
 c101780:	0a000035 	beq	c10185c <coinsAcceptorTask+0x140>
            state = scan;                         /* Salta al estado scan */
 c101784:	e59f30ec 	ldr	r3, [pc, #236]	; c101878 <coinsAcceptorTask+0x15c>
 c101788:	e3a02001 	mov	r2, #1
 c10178c:	e5c32000 	strb	r2, [r3]
        break;
 c101790:	ea000034 	b	c101868 <coinsAcceptorTask+0x14c>
    case scan:                                /* Estado en que escanea el teclado */
        switch (keypad_scan())                   /* Lee el teclado */
 c101794:	eb00081f 	bl	c103818 <keypad_scan>
 c101798:	e1a03000 	mov	r3, r0
 c10179c:	e243300c 	sub	r3, r3, #12
 c1017a0:	e3530003 	cmp	r3, #3
 c1017a4:	979ff103 	ldrls	pc, [pc, r3, lsl #2]
 c1017a8:	ea00001f 	b	c10182c <coinsAcceptorTask+0x110>
 c1017ac:	0c101810 	.word	0x0c101810
 c1017b0:	0c1017f4 	.word	0x0c1017f4
 c1017b4:	0c1017d8 	.word	0x0c1017d8
 c1017b8:	0c1017bc 	.word	0x0c1017bc
        {
        case KEYPAD_KEYF:                         /* La tecla F esta asociada a la moneda de 0,10 euros */
            coinAcceptorMsg.cents = 10;           /* Envia un mensaje con el valor de la moneda */
 c1017bc:	e59f30b8 	ldr	r3, [pc, #184]	; c10187c <coinsAcceptorTask+0x160>
 c1017c0:	e3a0200a 	mov	r2, #10
 c1017c4:	e5c32001 	strb	r2, [r3, #1]
            coinAcceptorMsg.flag = TRUE;
 c1017c8:	e59f30ac 	ldr	r3, [pc, #172]	; c10187c <coinsAcceptorTask+0x160>
 c1017cc:	e3a02001 	mov	r2, #1
 c1017d0:	e5c32000 	strb	r2, [r3]
            break;
 c1017d4:	ea000014 	b	c10182c <coinsAcceptorTask+0x110>
        case KEYPAD_KEYE:                         /* La tecla E esta asociada a la moneda de 0,20 euros */
            coinAcceptorMsg.cents = 20;           /* Envia un mensaje con el valor de la moneda */
 c1017d8:	e59f309c 	ldr	r3, [pc, #156]	; c10187c <coinsAcceptorTask+0x160>
 c1017dc:	e3a02014 	mov	r2, #20
 c1017e0:	e5c32001 	strb	r2, [r3, #1]
            coinAcceptorMsg.flag = TRUE;
 c1017e4:	e59f3090 	ldr	r3, [pc, #144]	; c10187c <coinsAcceptorTask+0x160>
 c1017e8:	e3a02001 	mov	r2, #1
 c1017ec:	e5c32000 	strb	r2, [r3]
            break;
 c1017f0:	ea00000d 	b	c10182c <coinsAcceptorTask+0x110>
        case KEYPAD_KEYD:                         /* La tecla D esta asociada a la moneda de 0,50 euros */
            coinAcceptorMsg.cents = 50;           /* Envia un mensaje con el valor de la moneda */
 c1017f4:	e59f3080 	ldr	r3, [pc, #128]	; c10187c <coinsAcceptorTask+0x160>
 c1017f8:	e3a02032 	mov	r2, #50	; 0x32
 c1017fc:	e5c32001 	strb	r2, [r3, #1]
            coinAcceptorMsg.flag = TRUE;
 c101800:	e59f3074 	ldr	r3, [pc, #116]	; c10187c <coinsAcceptorTask+0x160>
 c101804:	e3a02001 	mov	r2, #1
 c101808:	e5c32000 	strb	r2, [r3]
            break;
 c10180c:	ea000006 	b	c10182c <coinsAcceptorTask+0x110>
        case KEYPAD_KEYC:                         /* La tecla C esta asociada a la moneda de 1,00 euros */
            coinAcceptorMsg.cents = 100;           /* Envia un mensaje con el valor de la moneda */
 c101810:	e59f3064 	ldr	r3, [pc, #100]	; c10187c <coinsAcceptorTask+0x160>
 c101814:	e3a02064 	mov	r2, #100	; 0x64
 c101818:	e5c32001 	strb	r2, [r3, #1]
            coinAcceptorMsg.flag = TRUE;
 c10181c:	e59f3058 	ldr	r3, [pc, #88]	; c10187c <coinsAcceptorTask+0x160>
 c101820:	e3a02001 	mov	r2, #1
 c101824:	e5c32000 	strb	r2, [r3]
            break;
 c101828:	e1a00000 	nop			; (mov r0, r0)
        }
        state = wait_keyup;                       /* Salta al estado wait_keyup */
 c10182c:	e59f3044 	ldr	r3, [pc, #68]	; c101878 <coinsAcceptorTask+0x15c>
 c101830:	e3a02002 	mov	r2, #2
 c101834:	e5c32000 	strb	r2, [r3]
        break;
 c101838:	ea00000a 	b	c101868 <coinsAcceptorTask+0x14c>
    case wait_keyup:                          /* Estado esperando la depresion de teclas  */
        if (!keypad_pressed())                   /* Chequea si la tecla ya no esta presionada */
 c10183c:	eb00087e 	bl	c103a3c <keypad_pressed>
 c101840:	e1a03000 	mov	r3, r0
 c101844:	e3530000 	cmp	r3, #0
 c101848:	1a000005 	bne	c101864 <coinsAcceptorTask+0x148>
            state = wait_keydown;                     /* Salta al estado wait_keydown */
 c10184c:	e59f3024 	ldr	r3, [pc, #36]	; c101878 <coinsAcceptorTask+0x15c>
 c101850:	e3a02000 	mov	r2, #0
 c101854:	e5c32000 	strb	r2, [r3]
        break;
 c101858:	ea000002 	b	c101868 <coinsAcceptorTask+0x14c>
    else switch (state)
    {
    case wait_keydown:                        /* Estado esperando la presion teclas */
        if (keypad_pressed())                    /* Chequea si hay una tecla presionada */
            state = scan;                         /* Salta al estado scan */
        break;
 c10185c:	e1a00000 	nop			; (mov r0, r0)
 c101860:	ea000000 	b	c101868 <coinsAcceptorTask+0x14c>
        state = wait_keyup;                       /* Salta al estado wait_keyup */
        break;
    case wait_keyup:                          /* Estado esperando la depresion de teclas  */
        if (!keypad_pressed())                   /* Chequea si la tecla ya no esta presionada */
            state = wait_keydown;                     /* Salta al estado wait_keydown */
        break;
 c101864:	e1a00000 	nop			; (mov r0, r0)
    }
}
 c101868:	e24bd00c 	sub	sp, fp, #12
 c10186c:	e89d6800 	ldm	sp, {fp, sp, lr}
 c101870:	e12fff1e 	bx	lr
 c101874:	0c10bdf5 	.word	0x0c10bdf5
 c101878:	0c1154b0 	.word	0x0c1154b0
 c10187c:	0c115518 	.word	0x0c115518

0c101880 <coinsMoverTask>:
**   Cada 100 ms muestrea si ha recibido un mensaje de la tarea principal para mover monedas
**   Si van a la alcancia activa durante 1 s los leds y muestra una A en los segs
**   Si van al cajetin de devolucion activa durante 1 segundo los leds y muestra una D en los segs
*/
void coinsMoverTask(void)// Revisado
{
 c101880:	e1a0c00d 	mov	ip, sp
 c101884:	e92dd800 	push	{fp, ip, lr, pc}
 c101888:	e24cb004 	sub	fp, ip, #4
    static boolean init = TRUE;
    static enum { off, on } state;
    static uint32 ticks;

    if (init)
 c10188c:	e59f310c 	ldr	r3, [pc, #268]	; c1019a0 <coinsMoverTask+0x120>
 c101890:	e5d33000 	ldrb	r3, [r3]
 c101894:	e3530000 	cmp	r3, #0
 c101898:	0a000006 	beq	c1018b8 <coinsMoverTask+0x38>
    {
        init = FALSE;
 c10189c:	e59f30fc 	ldr	r3, [pc, #252]	; c1019a0 <coinsMoverTask+0x120>
 c1018a0:	e3a02000 	mov	r2, #0
 c1018a4:	e5c32000 	strb	r2, [r3]
        state = off;
 c1018a8:	e59f30f4 	ldr	r3, [pc, #244]	; c1019a4 <coinsMoverTask+0x124>
 c1018ac:	e3a02000 	mov	r2, #0
 c1018b0:	e5c32000 	strb	r2, [r3]
 c1018b4:	ea000036 	b	c101994 <coinsMoverTask+0x114>
    }
    else switch (state)
 c1018b8:	e59f30e4 	ldr	r3, [pc, #228]	; c1019a4 <coinsMoverTask+0x124>
 c1018bc:	e5d33000 	ldrb	r3, [r3]
 c1018c0:	e3530000 	cmp	r3, #0
 c1018c4:	0a000002 	beq	c1018d4 <coinsMoverTask+0x54>
 c1018c8:	e3530001 	cmp	r3, #1
 c1018cc:	0a00001b 	beq	c101940 <coinsMoverTask+0xc0>
 c1018d0:	ea00002f 	b	c101994 <coinsMoverTask+0x114>
    {
    case off:                                /* Estado con leds y 7-segs apagados */
        if (coinsMoverMsg.flag)                /* Chequea si ha recibido mensaje */
 c1018d4:	e59f30cc 	ldr	r3, [pc, #204]	; c1019a8 <coinsMoverTask+0x128>
 c1018d8:	e5d33000 	ldrb	r3, [r3]
 c1018dc:	e3530000 	cmp	r3, #0
 c1018e0:	0a000028 	beq	c101988 <coinsMoverTask+0x108>
        {
            coinsMoverMsg.flag = FALSE;            /* Marca el mensaje como leido */
 c1018e4:	e59f30bc 	ldr	r3, [pc, #188]	; c1019a8 <coinsMoverTask+0x128>
 c1018e8:	e3a02000 	mov	r2, #0
 c1018ec:	e5c32000 	strb	r2, [r3]
            if (coinsMoverMsg.accept)             /* Muestra el mensaje que corresponda en segs */
 c1018f0:	e59f30b0 	ldr	r3, [pc, #176]	; c1019a8 <coinsMoverTask+0x128>
 c1018f4:	e5d33001 	ldrb	r3, [r3, #1]
 c1018f8:	e3530000 	cmp	r3, #0
 c1018fc:	0a000002 	beq	c10190c <coinsMoverTask+0x8c>
                segs_putchar(0xA);
 c101900:	e3a0000a 	mov	r0, #10
 c101904:	eb001167 	bl	c105ea8 <segs_putchar>
 c101908:	ea000001 	b	c101914 <coinsMoverTask+0x94>
            else
                segs_putchar(0xD);
 c10190c:	e3a0000d 	mov	r0, #13
 c101910:	eb001164 	bl	c105ea8 <segs_putchar>
            led_on(LEFT_LED);                    /* Enciende leds */
 c101914:	e3a00001 	mov	r0, #1
 c101918:	eb000e2d 	bl	c1051d4 <led_on>
            led_on(RIGHT_LED);
 c10191c:	e3a00002 	mov	r0, #2
 c101920:	eb000e2b 	bl	c1051d4 <led_on>
            state = on;                            /* Salta al estado on ... */
 c101924:	e59f3078 	ldr	r3, [pc, #120]	; c1019a4 <coinsMoverTask+0x124>
 c101928:	e3a02001 	mov	r2, #1
 c10192c:	e5c32000 	strb	r2, [r3]
            ticks = 10;                            /* ... en el que debera permanecer 10 ticks */
 c101930:	e59f3074 	ldr	r3, [pc, #116]	; c1019ac <coinsMoverTask+0x12c>
 c101934:	e3a0200a 	mov	r2, #10
 c101938:	e5832000 	str	r2, [r3]
        }
        break;
 c10193c:	ea000014 	b	c101994 <coinsMoverTask+0x114>
    case on:                                /* Estado con leds y 7-segs encendidos */
        if (!(--ticks))                        /* Decrementa ticks y chequea si ha permanecido en este estado el tiempo requerido */
 c101940:	e59f3064 	ldr	r3, [pc, #100]	; c1019ac <coinsMoverTask+0x12c>
 c101944:	e5933000 	ldr	r3, [r3]
 c101948:	e2432001 	sub	r2, r3, #1
 c10194c:	e59f3058 	ldr	r3, [pc, #88]	; c1019ac <coinsMoverTask+0x12c>
 c101950:	e5832000 	str	r2, [r3]
 c101954:	e59f3050 	ldr	r3, [pc, #80]	; c1019ac <coinsMoverTask+0x12c>
 c101958:	e5933000 	ldr	r3, [r3]
 c10195c:	e3530000 	cmp	r3, #0
 c101960:	1a00000a 	bne	c101990 <coinsMoverTask+0x110>
        {
            segs_off();                            /* Apaga segs */
 c101964:	eb001141 	bl	c105e70 <segs_off>
            led_off(LEFT_LED);                   /* Apaga leds */
 c101968:	e3a00001 	mov	r0, #1
 c10196c:	eb000e2a 	bl	c10521c <led_off>
            led_off(RIGHT_LED);
 c101970:	e3a00002 	mov	r0, #2
 c101974:	eb000e28 	bl	c10521c <led_off>
            state = off;                           /* Salta al estado off */
 c101978:	e59f3024 	ldr	r3, [pc, #36]	; c1019a4 <coinsMoverTask+0x124>
 c10197c:	e3a02000 	mov	r2, #0
 c101980:	e5c32000 	strb	r2, [r3]
        }
        break;
 c101984:	ea000002 	b	c101994 <coinsMoverTask+0x114>
            led_on(LEFT_LED);                    /* Enciende leds */
            led_on(RIGHT_LED);
            state = on;                            /* Salta al estado on ... */
            ticks = 10;                            /* ... en el que debera permanecer 10 ticks */
        }
        break;
 c101988:	e1a00000 	nop			; (mov r0, r0)
 c10198c:	ea000000 	b	c101994 <coinsMoverTask+0x114>
            segs_off();                            /* Apaga segs */
            led_off(LEFT_LED);                   /* Apaga leds */
            led_off(RIGHT_LED);
            state = off;                           /* Salta al estado off */
        }
        break;
 c101990:	e1a00000 	nop			; (mov r0, r0)
    }
}
 c101994:	e24bd00c 	sub	sp, fp, #12
 c101998:	e89d6800 	ldm	sp, {fp, sp, lr}
 c10199c:	e12fff1e 	bx	lr
 c1019a0:	0c10bdf4 	.word	0x0c10bdf4
 c1019a4:	0c1154a8 	.word	0x0c1154a8
 c1019a8:	0c11551c 	.word	0x0c11551c
 c1019ac:	0c1154ac 	.word	0x0c1154ac

0c1019b0 <setup>:

/*******************************************************************/

void setup(void)//Revisado
{
 c1019b0:	e1a0c00d 	mov	ip, sp
 c1019b4:	e92dd800 	push	{fp, ip, lr, pc}
 c1019b8:	e24cb004 	sub	fp, ip, #4
 c1019bc:	e24dd008 	sub	sp, sp, #8
    // Inicialización de variables o configuraciones necesarias
    int i;
    for (i = 0; i < MAXPLACES; i++) {
 c1019c0:	e3a03000 	mov	r3, #0
 c1019c4:	e50b3010 	str	r3, [fp, #-16]
 c1019c8:	ea00000c 	b	c101a00 <setup+0x50>
        parking[i].occupied = FALSE;
 c1019cc:	e59f0220 	ldr	r0, [pc, #544]	; c101bf4 <setup+0x244>
 c1019d0:	e51b2010 	ldr	r2, [fp, #-16]
 c1019d4:	e3a01008 	mov	r1, #8
 c1019d8:	e1a03002 	mov	r3, r2
 c1019dc:	e1a03203 	lsl	r3, r3, #4
 c1019e0:	e0623003 	rsb	r3, r2, r3
 c1019e4:	e0803003 	add	r3, r0, r3
 c1019e8:	e0833001 	add	r3, r3, r1
 c1019ec:	e3a02000 	mov	r2, #0
 c1019f0:	e5c32006 	strb	r2, [r3, #6]

void setup(void)//Revisado
{
    // Inicialización de variables o configuraciones necesarias
    int i;
    for (i = 0; i < MAXPLACES; i++) {
 c1019f4:	e51b3010 	ldr	r3, [fp, #-16]
 c1019f8:	e2833001 	add	r3, r3, #1
 c1019fc:	e50b3010 	str	r3, [fp, #-16]
 c101a00:	e51b3010 	ldr	r3, [fp, #-16]
 c101a04:	e3530007 	cmp	r3, #7
 c101a08:	daffffef 	ble	c1019cc <setup+0x1c>
        parking[i].occupied = FALSE;
    }
    coinAcceptorMsg.flag = FALSE;
 c101a0c:	e59f31e4 	ldr	r3, [pc, #484]	; c101bf8 <setup+0x248>
 c101a10:	e3a02000 	mov	r2, #0
 c101a14:	e5c32000 	strb	r2, [r3]
    coinAcceptorMsg.cents = 0;
 c101a18:	e59f31d8 	ldr	r3, [pc, #472]	; c101bf8 <setup+0x248>
 c101a1c:	e3a02000 	mov	r2, #0
 c101a20:	e5c32001 	strb	r2, [r3, #1]

    tsPressedMsg.flag = FALSE;
 c101a24:	e59f31d0 	ldr	r3, [pc, #464]	; c101bfc <setup+0x24c>
 c101a28:	e3a02000 	mov	r2, #0
 c101a2c:	e5c32000 	strb	r2, [r3]
    tsPressedMsg.x = 0;
 c101a30:	e59f31c4 	ldr	r3, [pc, #452]	; c101bfc <setup+0x24c>
 c101a34:	e3a02000 	mov	r2, #0
 c101a38:	e1c320b2 	strh	r2, [r3, #2]
    tsPressedMsg.y = 0;
 c101a3c:	e59f31b8 	ldr	r3, [pc, #440]	; c101bfc <setup+0x24c>
 c101a40:	e3a02000 	mov	r2, #0
 c101a44:	e1c320b4 	strh	r2, [r3, #4]

    coinsMoverMsg.flag = FALSE;
 c101a48:	e59f31b0 	ldr	r3, [pc, #432]	; c101c00 <setup+0x250>
 c101a4c:	e3a02000 	mov	r2, #0
 c101a50:	e5c32000 	strb	r2, [r3]
    coinsMoverMsg.accept = FALSE;
 c101a54:	e59f31a4 	ldr	r3, [pc, #420]	; c101c00 <setup+0x250>
 c101a58:	e3a02000 	mov	r2, #0
 c101a5c:	e5c32001 	strb	r2, [r3, #1]
    printTicketFlag = FALSE;
 c101a60:	e59f319c 	ldr	r3, [pc, #412]	; c101c04 <setup+0x254>
 c101a64:	e3a02000 	mov	r2, #0
 c101a68:	e5c32000 	strb	r2, [r3]

    //Iniciamos la hora del sistema (BUCLES POR SI SE INTRODUCE FECHA ERRONEA)
	uart0_puts( "\nIntroduzca nueva fecha\n" );
 c101a6c:	e59f0194 	ldr	r0, [pc, #404]	; c101c08 <setup+0x258>
 c101a70:	eb001ce5 	bl	c108e0c <uart0_puts>
    do {
		uart0_puts( "  - Dia: " );
 c101a74:	e59f0190 	ldr	r0, [pc, #400]	; c101c0c <setup+0x25c>
 c101a78:	eb001ce3 	bl	c108e0c <uart0_puts>
	    actual_time.mday = (uint8) uart0_getint();
 c101a7c:	eb001d91 	bl	c1090c8 <uart0_getint>
 c101a80:	e1a03000 	mov	r3, r0
 c101a84:	e20320ff 	and	r2, r3, #255	; 0xff
 c101a88:	e59f3180 	ldr	r3, [pc, #384]	; c101c10 <setup+0x260>
 c101a8c:	e5c32003 	strb	r2, [r3, #3]
	} while(actual_time.mday < 1 || actual_time.mday > 31);
 c101a90:	e59f3178 	ldr	r3, [pc, #376]	; c101c10 <setup+0x260>
 c101a94:	e5d33003 	ldrb	r3, [r3, #3]
 c101a98:	e3530000 	cmp	r3, #0
 c101a9c:	0afffff4 	beq	c101a74 <setup+0xc4>
 c101aa0:	e59f3168 	ldr	r3, [pc, #360]	; c101c10 <setup+0x260>
 c101aa4:	e5d33003 	ldrb	r3, [r3, #3]
 c101aa8:	e353001f 	cmp	r3, #31
 c101aac:	8afffff0 	bhi	c101a74 <setup+0xc4>

    do {
		uart0_puts( "  - Dia de la semana (Del 1 al 7, 1 es domingo): " );
 c101ab0:	e59f015c 	ldr	r0, [pc, #348]	; c101c14 <setup+0x264>
 c101ab4:	eb001cd4 	bl	c108e0c <uart0_puts>
		actual_time.wday = (uint8) uart0_getint();
 c101ab8:	eb001d82 	bl	c1090c8 <uart0_getint>
 c101abc:	e1a03000 	mov	r3, r0
 c101ac0:	e20320ff 	and	r2, r3, #255	; 0xff
 c101ac4:	e59f3144 	ldr	r3, [pc, #324]	; c101c10 <setup+0x260>
 c101ac8:	e5c32004 	strb	r2, [r3, #4]
    } while(actual_time.wday < 1 || actual_time.wday > 7);
 c101acc:	e59f313c 	ldr	r3, [pc, #316]	; c101c10 <setup+0x260>
 c101ad0:	e5d33004 	ldrb	r3, [r3, #4]
 c101ad4:	e3530000 	cmp	r3, #0
 c101ad8:	0afffff4 	beq	c101ab0 <setup+0x100>
 c101adc:	e59f312c 	ldr	r3, [pc, #300]	; c101c10 <setup+0x260>
 c101ae0:	e5d33004 	ldrb	r3, [r3, #4]
 c101ae4:	e3530007 	cmp	r3, #7
 c101ae8:	8afffff0 	bhi	c101ab0 <setup+0x100>

    do {
		uart0_puts( "  - Mes: " );
 c101aec:	e59f0124 	ldr	r0, [pc, #292]	; c101c18 <setup+0x268>
 c101af0:	eb001cc5 	bl	c108e0c <uart0_puts>
		actual_time.mon = (uint8) uart0_getint();
 c101af4:	eb001d73 	bl	c1090c8 <uart0_getint>
 c101af8:	e1a03000 	mov	r3, r0
 c101afc:	e20320ff 	and	r2, r3, #255	; 0xff
 c101b00:	e59f3108 	ldr	r3, [pc, #264]	; c101c10 <setup+0x260>
 c101b04:	e5c32005 	strb	r2, [r3, #5]
    } while(actual_time.mon < 1 || actual_time.mon > 12);
 c101b08:	e59f3100 	ldr	r3, [pc, #256]	; c101c10 <setup+0x260>
 c101b0c:	e5d33005 	ldrb	r3, [r3, #5]
 c101b10:	e3530000 	cmp	r3, #0
 c101b14:	0afffff4 	beq	c101aec <setup+0x13c>
 c101b18:	e59f30f0 	ldr	r3, [pc, #240]	; c101c10 <setup+0x260>
 c101b1c:	e5d33005 	ldrb	r3, [r3, #5]
 c101b20:	e353000c 	cmp	r3, #12
 c101b24:	8afffff0 	bhi	c101aec <setup+0x13c>

    do {
    	uart0_puts( "  - Año (2 digitos): " );
 c101b28:	e59f00ec 	ldr	r0, [pc, #236]	; c101c1c <setup+0x26c>
 c101b2c:	eb001cb6 	bl	c108e0c <uart0_puts>
        actual_time.year = (uint8) uart0_getint();
 c101b30:	eb001d64 	bl	c1090c8 <uart0_getint>
 c101b34:	e1a03000 	mov	r3, r0
 c101b38:	e20320ff 	and	r2, r3, #255	; 0xff
 c101b3c:	e59f30cc 	ldr	r3, [pc, #204]	; c101c10 <setup+0x260>
 c101b40:	e5c32006 	strb	r2, [r3, #6]
    } while(actual_time.year < 0 || actual_time.year > 99);
 c101b44:	e59f30c4 	ldr	r3, [pc, #196]	; c101c10 <setup+0x260>
 c101b48:	e5d33006 	ldrb	r3, [r3, #6]
 c101b4c:	e3530063 	cmp	r3, #99	; 0x63
 c101b50:	8afffff4 	bhi	c101b28 <setup+0x178>

    uart0_puts( "Introduzca nueva hora\n" );
 c101b54:	e59f00c4 	ldr	r0, [pc, #196]	; c101c20 <setup+0x270>
 c101b58:	eb001cab 	bl	c108e0c <uart0_puts>
    do {
		uart0_puts( "  - Hora: " );
 c101b5c:	e59f00c0 	ldr	r0, [pc, #192]	; c101c24 <setup+0x274>
 c101b60:	eb001ca9 	bl	c108e0c <uart0_puts>
		actual_time.hour = (uint8) uart0_getint();
 c101b64:	eb001d57 	bl	c1090c8 <uart0_getint>
 c101b68:	e1a03000 	mov	r3, r0
 c101b6c:	e20320ff 	and	r2, r3, #255	; 0xff
 c101b70:	e59f3098 	ldr	r3, [pc, #152]	; c101c10 <setup+0x260>
 c101b74:	e5c32002 	strb	r2, [r3, #2]
    } while(actual_time.hour < 0 || actual_time.hour > 23);
 c101b78:	e59f3090 	ldr	r3, [pc, #144]	; c101c10 <setup+0x260>
 c101b7c:	e5d33002 	ldrb	r3, [r3, #2]
 c101b80:	e3530017 	cmp	r3, #23
 c101b84:	8afffff4 	bhi	c101b5c <setup+0x1ac>

    do {
		uart0_puts( "  - Minuto: " );
 c101b88:	e59f0098 	ldr	r0, [pc, #152]	; c101c28 <setup+0x278>
 c101b8c:	eb001c9e 	bl	c108e0c <uart0_puts>
		actual_time.min = (uint8) uart0_getint();
 c101b90:	eb001d4c 	bl	c1090c8 <uart0_getint>
 c101b94:	e1a03000 	mov	r3, r0
 c101b98:	e20320ff 	and	r2, r3, #255	; 0xff
 c101b9c:	e59f306c 	ldr	r3, [pc, #108]	; c101c10 <setup+0x260>
 c101ba0:	e5c32001 	strb	r2, [r3, #1]
    } while(actual_time.min < 0 || actual_time.min > 60);
 c101ba4:	e59f3064 	ldr	r3, [pc, #100]	; c101c10 <setup+0x260>
 c101ba8:	e5d33001 	ldrb	r3, [r3, #1]
 c101bac:	e353003c 	cmp	r3, #60	; 0x3c
 c101bb0:	8afffff4 	bhi	c101b88 <setup+0x1d8>

    do {
		uart0_puts( "  - Segundo: " );
 c101bb4:	e59f0070 	ldr	r0, [pc, #112]	; c101c2c <setup+0x27c>
 c101bb8:	eb001c93 	bl	c108e0c <uart0_puts>
		actual_time.sec = (uint8) uart0_getint();
 c101bbc:	eb001d41 	bl	c1090c8 <uart0_getint>
 c101bc0:	e1a03000 	mov	r3, r0
 c101bc4:	e20320ff 	and	r2, r3, #255	; 0xff
 c101bc8:	e59f3040 	ldr	r3, [pc, #64]	; c101c10 <setup+0x260>
 c101bcc:	e5c32000 	strb	r2, [r3]
    } while(actual_time.sec < 0 || actual_time.sec > 60);
 c101bd0:	e59f3038 	ldr	r3, [pc, #56]	; c101c10 <setup+0x260>
 c101bd4:	e5d33000 	ldrb	r3, [r3]
 c101bd8:	e353003c 	cmp	r3, #60	; 0x3c
 c101bdc:	8afffff4 	bhi	c101bb4 <setup+0x204>

    rtc_puttime( &actual_time );
 c101be0:	e59f0028 	ldr	r0, [pc, #40]	; c101c10 <setup+0x260>
 c101be4:	eb000e98 	bl	c10564c <rtc_puttime>
}
 c101be8:	e24bd00c 	sub	sp, fp, #12
 c101bec:	e89d6800 	ldm	sp, {fp, sp, lr}
 c101bf0:	e12fff1e 	bx	lr
 c101bf4:	0c115520 	.word	0x0c115520
 c101bf8:	0c115518 	.word	0x0c115518
 c101bfc:	0c115510 	.word	0x0c115510
 c101c00:	0c11551c 	.word	0x0c11551c
 c101c04:	0c115598 	.word	0x0c115598
 c101c08:	0c10a22c 	.word	0x0c10a22c
 c101c0c:	0c10a248 	.word	0x0c10a248
 c101c10:	0c115508 	.word	0x0c115508
 c101c14:	0c10a254 	.word	0x0c10a254
 c101c18:	0c10a288 	.word	0x0c10a288
 c101c1c:	0c10a294 	.word	0x0c10a294
 c101c20:	0c10a2ac 	.word	0x0c10a2ac
 c101c24:	0c10a2c4 	.word	0x0c10a2c4
 c101c28:	0c10a2d0 	.word	0x0c10a2d0
 c101c2c:	0c10a2e0 	.word	0x0c10a2e0

0c101c30 <plotWelcomeScreen>:

/*******************************************************************/

void plotWelcomeScreen(void)
{
 c101c30:	e1a0c00d 	mov	ip, sp
 c101c34:	e92dd800 	push	{fp, ip, lr, pc}
 c101c38:	e24cb004 	sub	fp, ip, #4
 c101c3c:	e24dd008 	sub	sp, sp, #8
    lcd_clear();
 c101c40:	eb0008ec 	bl	c103ff8 <lcd_clear>
    rtc_gettime(&actual_time);
 c101c44:	e59f00bc 	ldr	r0, [pc, #188]	; c101d08 <plotWelcomeScreen+0xd8>
 c101c48:	eb000f2d 	bl	c105904 <rtc_gettime>

    // Mensaje principal centrado (16x32 por caracter)
    lcd_puts_x2(24, 40, BLACK, "Pulse la pantalla");
 c101c4c:	e3a00018 	mov	r0, #24
 c101c50:	e3a01028 	mov	r1, #40	; 0x28
 c101c54:	e3a0200f 	mov	r2, #15
 c101c58:	e59f30ac 	ldr	r3, [pc, #172]	; c101d0c <plotWelcomeScreen+0xdc>
 c101c5c:	eb000c3f 	bl	c104d60 <lcd_puts_x2>
    lcd_puts_x2(72, 80, BLACK, "para comenzar");
 c101c60:	e3a00048 	mov	r0, #72	; 0x48
 c101c64:	e3a01050 	mov	r1, #80	; 0x50
 c101c68:	e3a0200f 	mov	r2, #15
 c101c6c:	e59f309c 	ldr	r3, [pc, #156]	; c101d10 <plotWelcomeScreen+0xe0>
 c101c70:	eb000c3a 	bl	c104d60 <lcd_puts_x2>

    // Rectángulo horario (centrado en pantalla)
    lcd_draw_box(1, 128, 319, 218, BLACK, 1);
 c101c74:	e3a0300f 	mov	r3, #15
 c101c78:	e58d3000 	str	r3, [sp]
 c101c7c:	e3a03001 	mov	r3, #1
 c101c80:	e58d3004 	str	r3, [sp, #4]
 c101c84:	e3a00001 	mov	r0, #1
 c101c88:	e3a01080 	mov	r1, #128	; 0x80
 c101c8c:	e59f2080 	ldr	r2, [pc, #128]	; c101d14 <plotWelcomeScreen+0xe4>
 c101c90:	e3a030da 	mov	r3, #218	; 0xda
 c101c94:	eb0009fd 	bl	c104490 <lcd_draw_box>

    // Título horario centrado en rectángulo
    lcd_puts(60, 120, BLACK, "HORARIO DE FUNCIONAMIENTO");
 c101c98:	e3a0003c 	mov	r0, #60	; 0x3c
 c101c9c:	e3a01078 	mov	r1, #120	; 0x78
 c101ca0:	e3a0200f 	mov	r2, #15
 c101ca4:	e59f306c 	ldr	r3, [pc, #108]	; c101d18 <plotWelcomeScreen+0xe8>
 c101ca8:	eb000ad5 	bl	c104804 <lcd_puts>

    // Horarios (alineados dentro del rectángulo)
    lcd_puts(15, 144, BLACK, "dom: gratis        jue: 09:00-21:00");
 c101cac:	e3a0000f 	mov	r0, #15
 c101cb0:	e3a01090 	mov	r1, #144	; 0x90
 c101cb4:	e3a0200f 	mov	r2, #15
 c101cb8:	e59f305c 	ldr	r3, [pc, #92]	; c101d1c <plotWelcomeScreen+0xec>
 c101cbc:	eb000ad0 	bl	c104804 <lcd_puts>
    lcd_puts(15, 160, BLACK, "lun: 09:00-21:00   vie: 09:00-21:00");
 c101cc0:	e3a0000f 	mov	r0, #15
 c101cc4:	e3a010a0 	mov	r1, #160	; 0xa0
 c101cc8:	e3a0200f 	mov	r2, #15
 c101ccc:	e59f304c 	ldr	r3, [pc, #76]	; c101d20 <plotWelcomeScreen+0xf0>
 c101cd0:	eb000acb 	bl	c104804 <lcd_puts>
    lcd_puts(15, 176, BLACK, "mar: 09:00-21:00   sab: 09:00-15:00");
 c101cd4:	e3a0000f 	mov	r0, #15
 c101cd8:	e3a010b0 	mov	r1, #176	; 0xb0
 c101cdc:	e3a0200f 	mov	r2, #15
 c101ce0:	e59f303c 	ldr	r3, [pc, #60]	; c101d24 <plotWelcomeScreen+0xf4>
 c101ce4:	eb000ac6 	bl	c104804 <lcd_puts>
    lcd_puts(15, 192, BLACK, "mie: 09:00-21:00");
 c101ce8:	e3a0000f 	mov	r0, #15
 c101cec:	e3a010c0 	mov	r1, #192	; 0xc0
 c101cf0:	e3a0200f 	mov	r2, #15
 c101cf4:	e59f302c 	ldr	r3, [pc, #44]	; c101d28 <plotWelcomeScreen+0xf8>
 c101cf8:	eb000ac1 	bl	c104804 <lcd_puts>
}
 c101cfc:	e24bd00c 	sub	sp, fp, #12
 c101d00:	e89d6800 	ldm	sp, {fp, sp, lr}
 c101d04:	e12fff1e 	bx	lr
 c101d08:	0c115508 	.word	0x0c115508
 c101d0c:	0c10a2f0 	.word	0x0c10a2f0
 c101d10:	0c10a304 	.word	0x0c10a304
 c101d14:	0000013f 	.word	0x0000013f
 c101d18:	0c10a314 	.word	0x0c10a314
 c101d1c:	0c10a330 	.word	0x0c10a330
 c101d20:	0c10a354 	.word	0x0c10a354
 c101d24:	0c10a378 	.word	0x0c10a378
 c101d28:	0c10a39c 	.word	0x0c10a39c

0c101d2c <drawParkingGrid>:

void drawParkingGrid(void)
{
 c101d2c:	e1a0c00d 	mov	ip, sp
 c101d30:	e92dd800 	push	{fp, ip, lr, pc}
 c101d34:	e24cb004 	sub	fp, ip, #4
 c101d38:	e24dd010 	sub	sp, sp, #16
    uint16 x = 40, y = 104, i;
 c101d3c:	e3a03028 	mov	r3, #40	; 0x28
 c101d40:	e14b31b2 	strh	r3, [fp, #-18]	; 0xffffffee
 c101d44:	e3a03068 	mov	r3, #104	; 0x68
 c101d48:	e14b31b4 	strh	r3, [fp, #-20]	; 0xffffffec
    uint8 row, col;

    // Grid principal centrado en pantalla
    // Cada celda 80x60 pixels
    for(row = 0; row < 2; row++) {
 c101d4c:	e3a03000 	mov	r3, #0
 c101d50:	e54b300f 	strb	r3, [fp, #-15]
 c101d54:	ea000044 	b	c101e6c <drawParkingGrid+0x140>
        for(col = 0; col < 4; col++) {
 c101d58:	e3a03000 	mov	r3, #0
 c101d5c:	e54b3010 	strb	r3, [fp, #-16]
 c101d60:	ea00003b 	b	c101e54 <drawParkingGrid+0x128>
            lcd_draw_box(col*80, row*60 + y, (col+1)*80 - 1, (row+1)*60 + y - 1, BLACK, 1); //-1 en ydown y xright para que se vea la linea
 c101d64:	e55b3010 	ldrb	r3, [fp, #-16]
 c101d68:	e1a03803 	lsl	r3, r3, #16
 c101d6c:	e1a03823 	lsr	r3, r3, #16
 c101d70:	e1a02003 	mov	r2, r3
 c101d74:	e1a02102 	lsl	r2, r2, #2
 c101d78:	e0823003 	add	r3, r2, r3
 c101d7c:	e1a03203 	lsl	r3, r3, #4
 c101d80:	e1a03803 	lsl	r3, r3, #16
 c101d84:	e1a00823 	lsr	r0, r3, #16
 c101d88:	e55b300f 	ldrb	r3, [fp, #-15]
 c101d8c:	e1a03803 	lsl	r3, r3, #16
 c101d90:	e1a03823 	lsr	r3, r3, #16
 c101d94:	e1a02003 	mov	r2, r3
 c101d98:	e1a02202 	lsl	r2, r2, #4
 c101d9c:	e0633002 	rsb	r3, r3, r2
 c101da0:	e1a03103 	lsl	r3, r3, #2
 c101da4:	e1a03803 	lsl	r3, r3, #16
 c101da8:	e1a02823 	lsr	r2, r3, #16
 c101dac:	e15b31b4 	ldrh	r3, [fp, #-20]	; 0xffffffec
 c101db0:	e0823003 	add	r3, r2, r3
 c101db4:	e1a03803 	lsl	r3, r3, #16
 c101db8:	e1a01823 	lsr	r1, r3, #16
 c101dbc:	e55b3010 	ldrb	r3, [fp, #-16]
 c101dc0:	e2833001 	add	r3, r3, #1
 c101dc4:	e1a03803 	lsl	r3, r3, #16
 c101dc8:	e1a03823 	lsr	r3, r3, #16
 c101dcc:	e1a02003 	mov	r2, r3
 c101dd0:	e1a02102 	lsl	r2, r2, #2
 c101dd4:	e0823003 	add	r3, r2, r3
 c101dd8:	e1a03203 	lsl	r3, r3, #4
 c101ddc:	e1a03803 	lsl	r3, r3, #16
 c101de0:	e1a03823 	lsr	r3, r3, #16
 c101de4:	e2433001 	sub	r3, r3, #1
 c101de8:	e1a03803 	lsl	r3, r3, #16
 c101dec:	e1a02823 	lsr	r2, r3, #16
 c101df0:	e55b300f 	ldrb	r3, [fp, #-15]
 c101df4:	e2833001 	add	r3, r3, #1
 c101df8:	e1a03803 	lsl	r3, r3, #16
 c101dfc:	e1a03823 	lsr	r3, r3, #16
 c101e00:	e1a0c003 	mov	ip, r3
 c101e04:	e1a0c20c 	lsl	ip, ip, #4
 c101e08:	e063300c 	rsb	r3, r3, ip
 c101e0c:	e1a03103 	lsl	r3, r3, #2
 c101e10:	e1a03803 	lsl	r3, r3, #16
 c101e14:	e1a0c823 	lsr	ip, r3, #16
 c101e18:	e15b31b4 	ldrh	r3, [fp, #-20]	; 0xffffffec
 c101e1c:	e08c3003 	add	r3, ip, r3
 c101e20:	e1a03803 	lsl	r3, r3, #16
 c101e24:	e1a03823 	lsr	r3, r3, #16
 c101e28:	e2433001 	sub	r3, r3, #1
 c101e2c:	e1a03803 	lsl	r3, r3, #16
 c101e30:	e1a03823 	lsr	r3, r3, #16
 c101e34:	e3a0c00f 	mov	ip, #15
 c101e38:	e58dc000 	str	ip, [sp]
 c101e3c:	e3a0c001 	mov	ip, #1
 c101e40:	e58dc004 	str	ip, [sp, #4]
 c101e44:	eb000991 	bl	c104490 <lcd_draw_box>
    uint8 row, col;

    // Grid principal centrado en pantalla
    // Cada celda 80x60 pixels
    for(row = 0; row < 2; row++) {
        for(col = 0; col < 4; col++) {
 c101e48:	e55b3010 	ldrb	r3, [fp, #-16]
 c101e4c:	e2833001 	add	r3, r3, #1
 c101e50:	e54b3010 	strb	r3, [fp, #-16]
 c101e54:	e55b3010 	ldrb	r3, [fp, #-16]
 c101e58:	e3530003 	cmp	r3, #3
 c101e5c:	9affffc0 	bls	c101d64 <drawParkingGrid+0x38>
    uint16 x = 40, y = 104, i;
    uint8 row, col;

    // Grid principal centrado en pantalla
    // Cada celda 80x60 pixels
    for(row = 0; row < 2; row++) {
 c101e60:	e55b300f 	ldrb	r3, [fp, #-15]
 c101e64:	e2833001 	add	r3, r3, #1
 c101e68:	e54b300f 	strb	r3, [fp, #-15]
 c101e6c:	e55b300f 	ldrb	r3, [fp, #-15]
 c101e70:	e3530001 	cmp	r3, #1
 c101e74:	9affffb7 	bls	c101d58 <drawParkingGrid+0x2c>
            lcd_draw_box(col*80, row*60 + y, (col+1)*80 - 1, (row+1)*60 + y - 1, BLACK, 1); //-1 en ydown y xright para que se vea la linea
        }
    }

    // Números o X en cada celda (centrados)
    x = 32;  // Posición inicial X para números
 c101e78:	e3a03020 	mov	r3, #32
 c101e7c:	e14b31b2 	strh	r3, [fp, #-18]	; 0xffffffee
    y = 116; // Primera fila de números
 c101e80:	e3a03074 	mov	r3, #116	; 0x74
 c101e84:	e14b31b4 	strh	r3, [fp, #-20]	; 0xffffffec

    for(i = 0; i < MAXPLACES/2; i++) {
 c101e88:	e3a03000 	mov	r3, #0
 c101e8c:	e14b30be 	strh	r3, [fp, #-14]
 c101e90:	ea000033 	b	c101f64 <drawParkingGrid+0x238>
        if(parking[i].occupied)
 c101e94:	e15b20be 	ldrh	r2, [fp, #-14]
 c101e98:	e59f01dc 	ldr	r0, [pc, #476]	; c10207c <drawParkingGrid+0x350>
 c101e9c:	e3a01008 	mov	r1, #8
 c101ea0:	e1a03002 	mov	r3, r2
 c101ea4:	e1a03203 	lsl	r3, r3, #4
 c101ea8:	e0623003 	rsb	r3, r2, r3
 c101eac:	e0803003 	add	r3, r0, r3
 c101eb0:	e0833001 	add	r3, r3, r1
 c101eb4:	e5d33006 	ldrb	r3, [r3, #6]
 c101eb8:	e3530000 	cmp	r3, #0
 c101ebc:	0a000011 	beq	c101f08 <drawParkingGrid+0x1dc>
            lcd_putchar_x2(x + (i*80), y, BLACK, 'X');
 c101ec0:	e15b30be 	ldrh	r3, [fp, #-14]
 c101ec4:	e1a02003 	mov	r2, r3
 c101ec8:	e1a02102 	lsl	r2, r2, #2
 c101ecc:	e0823003 	add	r3, r2, r3
 c101ed0:	e1a03203 	lsl	r3, r3, #4
 c101ed4:	e1a03803 	lsl	r3, r3, #16
 c101ed8:	e1a02823 	lsr	r2, r3, #16
 c101edc:	e15b31b2 	ldrh	r3, [fp, #-18]	; 0xffffffee
 c101ee0:	e0823003 	add	r3, r2, r3
 c101ee4:	e1a03803 	lsl	r3, r3, #16
 c101ee8:	e1a02823 	lsr	r2, r3, #16
 c101eec:	e15b31b4 	ldrh	r3, [fp, #-20]	; 0xffffffec
 c101ef0:	e1a00002 	mov	r0, r2
 c101ef4:	e1a01003 	mov	r1, r3
 c101ef8:	e3a0200f 	mov	r2, #15
 c101efc:	e3a03058 	mov	r3, #88	; 0x58
 c101f00:	eb000af3 	bl	c104ad4 <lcd_putchar_x2>
 c101f04:	ea000013 	b	c101f58 <drawParkingGrid+0x22c>
        else
            lcd_putchar_x2(x + (i*80), y, BLACK, '0'+i+1);
 c101f08:	e15b30be 	ldrh	r3, [fp, #-14]
 c101f0c:	e1a02003 	mov	r2, r3
 c101f10:	e1a02102 	lsl	r2, r2, #2
 c101f14:	e0823003 	add	r3, r2, r3
 c101f18:	e1a03203 	lsl	r3, r3, #4
 c101f1c:	e1a03803 	lsl	r3, r3, #16
 c101f20:	e1a02823 	lsr	r2, r3, #16
 c101f24:	e15b31b2 	ldrh	r3, [fp, #-18]	; 0xffffffee
 c101f28:	e0823003 	add	r3, r2, r3
 c101f2c:	e1a03803 	lsl	r3, r3, #16
 c101f30:	e1a01823 	lsr	r1, r3, #16
 c101f34:	e15b30be 	ldrh	r3, [fp, #-14]
 c101f38:	e20330ff 	and	r3, r3, #255	; 0xff
 c101f3c:	e2833031 	add	r3, r3, #49	; 0x31
 c101f40:	e20330ff 	and	r3, r3, #255	; 0xff
 c101f44:	e15b21b4 	ldrh	r2, [fp, #-20]	; 0xffffffec
 c101f48:	e1a00001 	mov	r0, r1
 c101f4c:	e1a01002 	mov	r1, r2
 c101f50:	e3a0200f 	mov	r2, #15
 c101f54:	eb000ade 	bl	c104ad4 <lcd_putchar_x2>

    // Números o X en cada celda (centrados)
    x = 32;  // Posición inicial X para números
    y = 116; // Primera fila de números

    for(i = 0; i < MAXPLACES/2; i++) {
 c101f58:	e15b30be 	ldrh	r3, [fp, #-14]
 c101f5c:	e2833001 	add	r3, r3, #1
 c101f60:	e14b30be 	strh	r3, [fp, #-14]
 c101f64:	e15b30be 	ldrh	r3, [fp, #-14]
 c101f68:	e3530003 	cmp	r3, #3
 c101f6c:	9affffc8 	bls	c101e94 <drawParkingGrid+0x168>
            lcd_putchar_x2(x + (i*80), y, BLACK, 'X');
        else
            lcd_putchar_x2(x + (i*80), y, BLACK, '0'+i+1);
    }

    y = 178; // Segunda fila de números
 c101f70:	e3a030b2 	mov	r3, #178	; 0xb2
 c101f74:	e14b31b4 	strh	r3, [fp, #-20]	; 0xffffffec
    for(; i < MAXPLACES; i++) {
 c101f78:	ea000039 	b	c102064 <drawParkingGrid+0x338>
        if(parking[i].occupied)
 c101f7c:	e15b20be 	ldrh	r2, [fp, #-14]
 c101f80:	e59f00f4 	ldr	r0, [pc, #244]	; c10207c <drawParkingGrid+0x350>
 c101f84:	e3a01008 	mov	r1, #8
 c101f88:	e1a03002 	mov	r3, r2
 c101f8c:	e1a03203 	lsl	r3, r3, #4
 c101f90:	e0623003 	rsb	r3, r2, r3
 c101f94:	e0803003 	add	r3, r0, r3
 c101f98:	e0833001 	add	r3, r3, r1
 c101f9c:	e5d33006 	ldrb	r3, [r3, #6]
 c101fa0:	e3530000 	cmp	r3, #0
 c101fa4:	0a000014 	beq	c101ffc <drawParkingGrid+0x2d0>
            lcd_putchar_x2(x + ((i-4)*80), y, BLACK, 'X');
 c101fa8:	e15b30be 	ldrh	r3, [fp, #-14]
 c101fac:	e1a02003 	mov	r2, r3
 c101fb0:	e1a02102 	lsl	r2, r2, #2
 c101fb4:	e0823003 	add	r3, r2, r3
 c101fb8:	e1a03203 	lsl	r3, r3, #4
 c101fbc:	e1a03803 	lsl	r3, r3, #16
 c101fc0:	e1a02823 	lsr	r2, r3, #16
 c101fc4:	e15b31b2 	ldrh	r3, [fp, #-18]	; 0xffffffee
 c101fc8:	e0823003 	add	r3, r2, r3
 c101fcc:	e1a03803 	lsl	r3, r3, #16
 c101fd0:	e1a03823 	lsr	r3, r3, #16
 c101fd4:	e2433d05 	sub	r3, r3, #320	; 0x140
 c101fd8:	e1a03803 	lsl	r3, r3, #16
 c101fdc:	e1a02823 	lsr	r2, r3, #16
 c101fe0:	e15b31b4 	ldrh	r3, [fp, #-20]	; 0xffffffec
 c101fe4:	e1a00002 	mov	r0, r2
 c101fe8:	e1a01003 	mov	r1, r3
 c101fec:	e3a0200f 	mov	r2, #15
 c101ff0:	e3a03058 	mov	r3, #88	; 0x58
 c101ff4:	eb000ab6 	bl	c104ad4 <lcd_putchar_x2>
 c101ff8:	ea000016 	b	c102058 <drawParkingGrid+0x32c>
        else
            lcd_putchar_x2(x + ((i-4)*80), y, BLACK, '0'+i+1);
 c101ffc:	e15b30be 	ldrh	r3, [fp, #-14]
 c102000:	e1a02003 	mov	r2, r3
 c102004:	e1a02102 	lsl	r2, r2, #2
 c102008:	e0823003 	add	r3, r2, r3
 c10200c:	e1a03203 	lsl	r3, r3, #4
 c102010:	e1a03803 	lsl	r3, r3, #16
 c102014:	e1a02823 	lsr	r2, r3, #16
 c102018:	e15b31b2 	ldrh	r3, [fp, #-18]	; 0xffffffee
 c10201c:	e0823003 	add	r3, r2, r3
 c102020:	e1a03803 	lsl	r3, r3, #16
 c102024:	e1a03823 	lsr	r3, r3, #16
 c102028:	e2433d05 	sub	r3, r3, #320	; 0x140
 c10202c:	e1a03803 	lsl	r3, r3, #16
 c102030:	e1a01823 	lsr	r1, r3, #16
 c102034:	e15b30be 	ldrh	r3, [fp, #-14]
 c102038:	e20330ff 	and	r3, r3, #255	; 0xff
 c10203c:	e2833031 	add	r3, r3, #49	; 0x31
 c102040:	e20330ff 	and	r3, r3, #255	; 0xff
 c102044:	e15b21b4 	ldrh	r2, [fp, #-20]	; 0xffffffec
 c102048:	e1a00001 	mov	r0, r1
 c10204c:	e1a01002 	mov	r1, r2
 c102050:	e3a0200f 	mov	r2, #15
 c102054:	eb000a9e 	bl	c104ad4 <lcd_putchar_x2>
        else
            lcd_putchar_x2(x + (i*80), y, BLACK, '0'+i+1);
    }

    y = 178; // Segunda fila de números
    for(; i < MAXPLACES; i++) {
 c102058:	e15b30be 	ldrh	r3, [fp, #-14]
 c10205c:	e2833001 	add	r3, r3, #1
 c102060:	e14b30be 	strh	r3, [fp, #-14]
 c102064:	e15b30be 	ldrh	r3, [fp, #-14]
 c102068:	e3530007 	cmp	r3, #7
 c10206c:	9affffc2 	bls	c101f7c <drawParkingGrid+0x250>
        if(parking[i].occupied)
            lcd_putchar_x2(x + ((i-4)*80), y, BLACK, 'X');
        else
            lcd_putchar_x2(x + ((i-4)*80), y, BLACK, '0'+i+1);
    }
}
 c102070:	e24bd00c 	sub	sp, fp, #12
 c102074:	e89d6800 	ldm	sp, {fp, sp, lr}
 c102078:	e12fff1e 	bx	lr
 c10207c:	0c115520 	.word	0x0c115520

0c102080 <checkSelectedPlace>:

uint8 checkSelectedPlace(uint16 x, uint16 y) {//Revisado
 c102080:	e1a0c00d 	mov	ip, sp
 c102084:	e92dd800 	push	{fp, ip, lr, pc}
 c102088:	e24cb004 	sub	fp, ip, #4
 c10208c:	e24dd010 	sub	sp, sp, #16
 c102090:	e1a02000 	mov	r2, r0
 c102094:	e1a03001 	mov	r3, r1
 c102098:	e14b21b6 	strh	r2, [fp, #-22]	; 0xffffffea
 c10209c:	e14b31b8 	strh	r3, [fp, #-24]	; 0xffffffe8
    int col = x / 80;
 c1020a0:	e15b21b6 	ldrh	r2, [fp, #-22]	; 0xffffffea
 c1020a4:	e59f30a4 	ldr	r3, [pc, #164]	; c102150 <checkSelectedPlace+0xd0>
 c1020a8:	e0831392 	umull	r1, r3, r2, r3
 c1020ac:	e1a03323 	lsr	r3, r3, #6
 c1020b0:	e1a03803 	lsl	r3, r3, #16
 c1020b4:	e1a03823 	lsr	r3, r3, #16
 c1020b8:	e50b3010 	str	r3, [fp, #-16]
    int row = (y -119) / 60;
 c1020bc:	e15b31b8 	ldrh	r3, [fp, #-24]	; 0xffffffe8
 c1020c0:	e2433077 	sub	r3, r3, #119	; 0x77
 c1020c4:	e59f2088 	ldr	r2, [pc, #136]	; c102154 <checkSelectedPlace+0xd4>
 c1020c8:	e0c21293 	smull	r1, r2, r3, r2
 c1020cc:	e0822003 	add	r2, r2, r3
 c1020d0:	e1a022c2 	asr	r2, r2, #5
 c1020d4:	e1a03fc3 	asr	r3, r3, #31
 c1020d8:	e0633002 	rsb	r3, r3, r2
 c1020dc:	e50b3014 	str	r3, [fp, #-20]	; 0xffffffec

    // Verificamos que el toque esté dentro de los límites
    if (col >= 0 && col < 4 && row >= 0 && row < 2)
 c1020e0:	e51b3010 	ldr	r3, [fp, #-16]
 c1020e4:	e3530000 	cmp	r3, #0
 c1020e8:	ba000013 	blt	c10213c <checkSelectedPlace+0xbc>
 c1020ec:	e51b3010 	ldr	r3, [fp, #-16]
 c1020f0:	e3530003 	cmp	r3, #3
 c1020f4:	ca000010 	bgt	c10213c <checkSelectedPlace+0xbc>
 c1020f8:	e51b3014 	ldr	r3, [fp, #-20]	; 0xffffffec
 c1020fc:	e3530000 	cmp	r3, #0
 c102100:	ba00000d 	blt	c10213c <checkSelectedPlace+0xbc>
 c102104:	e51b3014 	ldr	r3, [fp, #-20]	; 0xffffffec
 c102108:	e3530001 	cmp	r3, #1
 c10210c:	ca00000a 	bgt	c10213c <checkSelectedPlace+0xbc>
    {
        return (row * 4) + col + 1;
 c102110:	e51b3014 	ldr	r3, [fp, #-20]	; 0xffffffec
 c102114:	e20330ff 	and	r3, r3, #255	; 0xff
 c102118:	e1a03103 	lsl	r3, r3, #2
 c10211c:	e20320ff 	and	r2, r3, #255	; 0xff
 c102120:	e51b3010 	ldr	r3, [fp, #-16]
 c102124:	e20330ff 	and	r3, r3, #255	; 0xff
 c102128:	e0823003 	add	r3, r2, r3
 c10212c:	e20330ff 	and	r3, r3, #255	; 0xff
 c102130:	e2833001 	add	r3, r3, #1
 c102134:	e20330ff 	and	r3, r3, #255	; 0xff
 c102138:	ea000000 	b	c102140 <checkSelectedPlace+0xc0>
    }

    return 0; // Retorna 0 si no se seleccionó ninguna plaza válida
 c10213c:	e3a03000 	mov	r3, #0
}
 c102140:	e1a00003 	mov	r0, r3
 c102144:	e24bd00c 	sub	sp, fp, #12
 c102148:	e89d6800 	ldm	sp, {fp, sp, lr}
 c10214c:	e12fff1e 	bx	lr
 c102150:	cccccccd 	.word	0xcccccccd
 c102154:	88888889 	.word	0x88888889

0c102158 <showPlaceOccupiedMessage>:

void showPlaceOccupiedMessage(uint8 placeNum) {
 c102158:	e1a0c00d 	mov	ip, sp
 c10215c:	e92dd800 	push	{fp, ip, lr, pc}
 c102160:	e24cb004 	sub	fp, ip, #4
 c102164:	e24dd008 	sub	sp, sp, #8
 c102168:	e1a03000 	mov	r3, r0
 c10216c:	e54b300d 	strb	r3, [fp, #-13]
	lcd_clear();
 c102170:	eb0007a0 	bl	c103ff8 <lcd_clear>

	    // Primera línea - Plaza X ocupada (en grande)
	    lcd_puts_x2(70, 60, BLACK, "Plaza ");
 c102174:	e3a00046 	mov	r0, #70	; 0x46
 c102178:	e3a0103c 	mov	r1, #60	; 0x3c
 c10217c:	e3a0200f 	mov	r2, #15
 c102180:	e59f31e8 	ldr	r3, [pc, #488]	; c102370 <showPlaceOccupiedMessage+0x218>
 c102184:	eb000af5 	bl	c104d60 <lcd_puts_x2>
	    lcd_putint_x2(140, 60, BLACK, placeNum);
 c102188:	e55b300d 	ldrb	r3, [fp, #-13]
 c10218c:	e3a0008c 	mov	r0, #140	; 0x8c
 c102190:	e3a0103c 	mov	r1, #60	; 0x3c
 c102194:	e3a0200f 	mov	r2, #15
 c102198:	eb000b0d 	bl	c104dd4 <lcd_putint_x2>
	    lcd_puts_x2(160, 60, BLACK, " ocupada");
 c10219c:	e3a000a0 	mov	r0, #160	; 0xa0
 c1021a0:	e3a0103c 	mov	r1, #60	; 0x3c
 c1021a4:	e3a0200f 	mov	r2, #15
 c1021a8:	e59f31c4 	ldr	r3, [pc, #452]	; c102374 <showPlaceOccupiedMessage+0x21c>
 c1021ac:	eb000aeb 	bl	c104d60 <lcd_puts_x2>

	    // Segunda línea - Fin de estacionamiento
	    lcd_puts(50, 120, BLACK, "Fin: ");
 c1021b0:	e3a00032 	mov	r0, #50	; 0x32
 c1021b4:	e3a01078 	mov	r1, #120	; 0x78
 c1021b8:	e3a0200f 	mov	r2, #15
 c1021bc:	e59f31b4 	ldr	r3, [pc, #436]	; c102378 <showPlaceOccupiedMessage+0x220>
 c1021c0:	eb00098f 	bl	c104804 <lcd_puts>
	    lcd_puts(80, 120, BLACK, calculate_weekday(parking[placeNum-1].endTime.wday));
 c1021c4:	e55b300d 	ldrb	r3, [fp, #-13]
 c1021c8:	e2432001 	sub	r2, r3, #1
 c1021cc:	e59f11a8 	ldr	r1, [pc, #424]	; c10237c <showPlaceOccupiedMessage+0x224>
 c1021d0:	e1a03002 	mov	r3, r2
 c1021d4:	e1a03203 	lsl	r3, r3, #4
 c1021d8:	e0623003 	rsb	r3, r2, r3
 c1021dc:	e0813003 	add	r3, r1, r3
 c1021e0:	e5d3300b 	ldrb	r3, [r3, #11]
 c1021e4:	e1a00003 	mov	r0, r3
 c1021e8:	ebfff784 	bl	c100000 <calculate_weekday>
 c1021ec:	e1a03000 	mov	r3, r0
 c1021f0:	e3a00050 	mov	r0, #80	; 0x50
 c1021f4:	e3a01078 	mov	r1, #120	; 0x78
 c1021f8:	e3a0200f 	mov	r2, #15
 c1021fc:	eb000980 	bl	c104804 <lcd_puts>
	    lcd_putchar(110, 120, BLACK, ',');
 c102200:	e3a0006e 	mov	r0, #110	; 0x6e
 c102204:	e3a01078 	mov	r1, #120	; 0x78
 c102208:	e3a0200f 	mov	r2, #15
 c10220c:	e3a0302c 	mov	r3, #44	; 0x2c
 c102210:	eb0008dc 	bl	c104588 <lcd_putchar>
	    lcd_putint(120, 120, BLACK, parking[placeNum-1].endTime.mday);
 c102214:	e55b300d 	ldrb	r3, [fp, #-13]
 c102218:	e2432001 	sub	r2, r3, #1
 c10221c:	e59f1158 	ldr	r1, [pc, #344]	; c10237c <showPlaceOccupiedMessage+0x224>
 c102220:	e1a03002 	mov	r3, r2
 c102224:	e1a03203 	lsl	r3, r3, #4
 c102228:	e0623003 	rsb	r3, r2, r3
 c10222c:	e0813003 	add	r3, r1, r3
 c102230:	e5d3300a 	ldrb	r3, [r3, #10]
 c102234:	e3a00078 	mov	r0, #120	; 0x78
 c102238:	e3a01078 	mov	r1, #120	; 0x78
 c10223c:	e3a0200f 	mov	r2, #15
 c102240:	eb00098c 	bl	c104878 <lcd_putint>
	    lcd_putchar(135, 120, BLACK, '/');
 c102244:	e3a00087 	mov	r0, #135	; 0x87
 c102248:	e3a01078 	mov	r1, #120	; 0x78
 c10224c:	e3a0200f 	mov	r2, #15
 c102250:	e3a0302f 	mov	r3, #47	; 0x2f
 c102254:	eb0008cb 	bl	c104588 <lcd_putchar>
	    lcd_putint(145, 120, BLACK, parking[placeNum-1].endTime.mon);
 c102258:	e55b300d 	ldrb	r3, [fp, #-13]
 c10225c:	e2432001 	sub	r2, r3, #1
 c102260:	e59f1114 	ldr	r1, [pc, #276]	; c10237c <showPlaceOccupiedMessage+0x224>
 c102264:	e1a03002 	mov	r3, r2
 c102268:	e1a03203 	lsl	r3, r3, #4
 c10226c:	e0623003 	rsb	r3, r2, r3
 c102270:	e0813003 	add	r3, r1, r3
 c102274:	e5d3300c 	ldrb	r3, [r3, #12]
 c102278:	e3a00091 	mov	r0, #145	; 0x91
 c10227c:	e3a01078 	mov	r1, #120	; 0x78
 c102280:	e3a0200f 	mov	r2, #15
 c102284:	eb00097b 	bl	c104878 <lcd_putint>
	    lcd_putchar(160, 120, BLACK, '/');
 c102288:	e3a000a0 	mov	r0, #160	; 0xa0
 c10228c:	e3a01078 	mov	r1, #120	; 0x78
 c102290:	e3a0200f 	mov	r2, #15
 c102294:	e3a0302f 	mov	r3, #47	; 0x2f
 c102298:	eb0008ba 	bl	c104588 <lcd_putchar>
	    lcd_putint(170, 120, BLACK, parking[placeNum-1].endTime.year);
 c10229c:	e55b300d 	ldrb	r3, [fp, #-13]
 c1022a0:	e2432001 	sub	r2, r3, #1
 c1022a4:	e59f10d0 	ldr	r1, [pc, #208]	; c10237c <showPlaceOccupiedMessage+0x224>
 c1022a8:	e1a03002 	mov	r3, r2
 c1022ac:	e1a03203 	lsl	r3, r3, #4
 c1022b0:	e0623003 	rsb	r3, r2, r3
 c1022b4:	e0813003 	add	r3, r1, r3
 c1022b8:	e5d3300d 	ldrb	r3, [r3, #13]
 c1022bc:	e3a000aa 	mov	r0, #170	; 0xaa
 c1022c0:	e3a01078 	mov	r1, #120	; 0x78
 c1022c4:	e3a0200f 	mov	r2, #15
 c1022c8:	eb00096a 	bl	c104878 <lcd_putint>
	    lcd_putchar(185, 120, BLACK, ' ');
 c1022cc:	e3a000b9 	mov	r0, #185	; 0xb9
 c1022d0:	e3a01078 	mov	r1, #120	; 0x78
 c1022d4:	e3a0200f 	mov	r2, #15
 c1022d8:	e3a03020 	mov	r3, #32
 c1022dc:	eb0008a9 	bl	c104588 <lcd_putchar>
	    lcd_putint(195, 120, BLACK, parking[placeNum-1].endTime.hour);
 c1022e0:	e55b300d 	ldrb	r3, [fp, #-13]
 c1022e4:	e2432001 	sub	r2, r3, #1
 c1022e8:	e59f108c 	ldr	r1, [pc, #140]	; c10237c <showPlaceOccupiedMessage+0x224>
 c1022ec:	e1a03002 	mov	r3, r2
 c1022f0:	e1a03203 	lsl	r3, r3, #4
 c1022f4:	e0623003 	rsb	r3, r2, r3
 c1022f8:	e0813003 	add	r3, r1, r3
 c1022fc:	e5d33009 	ldrb	r3, [r3, #9]
 c102300:	e3a000c3 	mov	r0, #195	; 0xc3
 c102304:	e3a01078 	mov	r1, #120	; 0x78
 c102308:	e3a0200f 	mov	r2, #15
 c10230c:	eb000959 	bl	c104878 <lcd_putint>
	    lcd_putchar(210, 120, BLACK, ':');
 c102310:	e3a000d2 	mov	r0, #210	; 0xd2
 c102314:	e3a01078 	mov	r1, #120	; 0x78
 c102318:	e3a0200f 	mov	r2, #15
 c10231c:	e3a0303a 	mov	r3, #58	; 0x3a
 c102320:	eb000898 	bl	c104588 <lcd_putchar>
	    lcd_putint(220, 120, BLACK, parking[placeNum-1].endTime.min);
 c102324:	e55b300d 	ldrb	r3, [fp, #-13]
 c102328:	e2432001 	sub	r2, r3, #1
 c10232c:	e59f1048 	ldr	r1, [pc, #72]	; c10237c <showPlaceOccupiedMessage+0x224>
 c102330:	e1a03002 	mov	r3, r2
 c102334:	e1a03203 	lsl	r3, r3, #4
 c102338:	e0623003 	rsb	r3, r2, r3
 c10233c:	e0813003 	add	r3, r1, r3
 c102340:	e5d33008 	ldrb	r3, [r3, #8]
 c102344:	e3a000dc 	mov	r0, #220	; 0xdc
 c102348:	e3a01078 	mov	r1, #120	; 0x78
 c10234c:	e3a0200f 	mov	r2, #15
 c102350:	eb000948 	bl	c104878 <lcd_putint>

	    sw_delay_ms(2000);
 c102354:	e3a00e7d 	mov	r0, #2000	; 0x7d0
 c102358:	eb0015aa 	bl	c107a08 <sw_delay_ms>
		lcd_clear();
 c10235c:	eb000725 	bl	c103ff8 <lcd_clear>
		drawParkingGrid();
 c102360:	ebfffe71 	bl	c101d2c <drawParkingGrid>
}
 c102364:	e24bd00c 	sub	sp, fp, #12
 c102368:	e89d6800 	ldm	sp, {fp, sp, lr}
 c10236c:	e12fff1e 	bx	lr
 c102370:	0c10a204 	.word	0x0c10a204
 c102374:	0c10a3b0 	.word	0x0c10a3b0
 c102378:	0c10a3bc 	.word	0x0c10a3bc
 c10237c:	0c115520 	.word	0x0c115520

0c102380 <showTariffScreen>:

void showTariffScreen(uint8 placeNum, uint16 credit)
{
 c102380:	e1a0c00d 	mov	ip, sp
 c102384:	e92dd800 	push	{fp, ip, lr, pc}
 c102388:	e24cb004 	sub	fp, ip, #4
 c10238c:	e24dd010 	sub	sp, sp, #16
 c102390:	e1a02000 	mov	r2, r0
 c102394:	e1a03001 	mov	r3, r1
 c102398:	e54b200d 	strb	r2, [fp, #-13]
 c10239c:	e14b31b0 	strh	r3, [fp, #-16]
    lcd_clear();
 c1023a0:	eb000714 	bl	c103ff8 <lcd_clear>

    // Dibujamos el rectángulo para la tarifa
    lcd_draw_box(1, 40, 319, 130, BLACK, 1);
 c1023a4:	e3a0300f 	mov	r3, #15
 c1023a8:	e58d3000 	str	r3, [sp]
 c1023ac:	e3a03001 	mov	r3, #1
 c1023b0:	e58d3004 	str	r3, [sp, #4]
 c1023b4:	e3a00001 	mov	r0, #1
 c1023b8:	e3a01028 	mov	r1, #40	; 0x28
 c1023bc:	e59f21bc 	ldr	r2, [pc, #444]	; c102580 <showTariffScreen+0x200>
 c1023c0:	e3a03082 	mov	r3, #130	; 0x82
 c1023c4:	eb000831 	bl	c104490 <lcd_draw_box>

    // Título centrado
    lcd_puts(128, 32, BLACK, "TARIFA");
 c1023c8:	e3a00080 	mov	r0, #128	; 0x80
 c1023cc:	e3a01020 	mov	r1, #32
 c1023d0:	e3a0200f 	mov	r2, #15
 c1023d4:	e59f31a8 	ldr	r3, [pc, #424]	; c102584 <showTariffScreen+0x204>
 c1023d8:	eb000909 	bl	c104804 <lcd_puts>

    // Información de tarifa dentro del rectángulo
    lcd_puts(32, 56, BLACK, "Precio por minuto: 0,01 euros");
 c1023dc:	e3a00020 	mov	r0, #32
 c1023e0:	e3a01038 	mov	r1, #56	; 0x38
 c1023e4:	e3a0200f 	mov	r2, #15
 c1023e8:	e59f3198 	ldr	r3, [pc, #408]	; c102588 <showTariffScreen+0x208>
 c1023ec:	eb000904 	bl	c104804 <lcd_puts>
    lcd_puts(32, 80, BLACK, "Estancia minima:  20 minutos");
 c1023f0:	e3a00020 	mov	r0, #32
 c1023f4:	e3a01050 	mov	r1, #80	; 0x50
 c1023f8:	e3a0200f 	mov	r2, #15
 c1023fc:	e59f3188 	ldr	r3, [pc, #392]	; c10258c <showTariffScreen+0x20c>
 c102400:	eb0008ff 	bl	c104804 <lcd_puts>
    lcd_puts(32, 104, BLACK, "Estancia maxima: 240 minutos");
 c102404:	e3a00020 	mov	r0, #32
 c102408:	e3a01068 	mov	r1, #104	; 0x68
 c10240c:	e3a0200f 	mov	r2, #15
 c102410:	e59f3178 	ldr	r3, [pc, #376]	; c102590 <showTariffScreen+0x210>
 c102414:	eb0008fa 	bl	c104804 <lcd_puts>

    // Información de plaza
    lcd_puts_x2(114, 142, BLACK, "Plaza ");
 c102418:	e3a00072 	mov	r0, #114	; 0x72
 c10241c:	e3a0108e 	mov	r1, #142	; 0x8e
 c102420:	e3a0200f 	mov	r2, #15
 c102424:	e59f3168 	ldr	r3, [pc, #360]	; c102594 <showTariffScreen+0x214>
 c102428:	eb000a4c 	bl	c104d60 <lcd_puts_x2>
    lcd_putint_x2(202, 142, BLACK, placeNum);
 c10242c:	e55b300d 	ldrb	r3, [fp, #-13]
 c102430:	e3a000ca 	mov	r0, #202	; 0xca
 c102434:	e3a0108e 	mov	r1, #142	; 0x8e
 c102438:	e3a0200f 	mov	r2, #15
 c10243c:	eb000a64 	bl	c104dd4 <lcd_putint_x2>

    // Crédito
    lcd_puts(100, 178, BLACK, "Credito: ");
 c102440:	e3a00064 	mov	r0, #100	; 0x64
 c102444:	e3a010b2 	mov	r1, #178	; 0xb2
 c102448:	e3a0200f 	mov	r2, #15
 c10244c:	e59f3144 	ldr	r3, [pc, #324]	; c102598 <showTariffScreen+0x218>
 c102450:	eb0008eb 	bl	c104804 <lcd_puts>
    lcd_putint(166, 178, BLACK, credit/100);
 c102454:	e15b21b0 	ldrh	r2, [fp, #-16]
 c102458:	e59f313c 	ldr	r3, [pc, #316]	; c10259c <showTariffScreen+0x21c>
 c10245c:	e0831392 	umull	r1, r3, r2, r3
 c102460:	e1a032a3 	lsr	r3, r3, #5
 c102464:	e1a03803 	lsl	r3, r3, #16
 c102468:	e1a03823 	lsr	r3, r3, #16
 c10246c:	e3a000a6 	mov	r0, #166	; 0xa6
 c102470:	e3a010b2 	mov	r1, #178	; 0xb2
 c102474:	e3a0200f 	mov	r2, #15
 c102478:	eb0008fe 	bl	c104878 <lcd_putint>
    lcd_putchar(174, 178, BLACK, ',');
 c10247c:	e3a000ae 	mov	r0, #174	; 0xae
 c102480:	e3a010b2 	mov	r1, #178	; 0xb2
 c102484:	e3a0200f 	mov	r2, #15
 c102488:	e3a0302c 	mov	r3, #44	; 0x2c
 c10248c:	eb00083d 	bl	c104588 <lcd_putchar>
    if(credit % 100 < 10) {
 c102490:	e15b21b0 	ldrh	r2, [fp, #-16]
 c102494:	e59f3100 	ldr	r3, [pc, #256]	; c10259c <showTariffScreen+0x21c>
 c102498:	e0831392 	umull	r1, r3, r2, r3
 c10249c:	e1a012a3 	lsr	r1, r3, #5
 c1024a0:	e1a03001 	mov	r3, r1
 c1024a4:	e1a03103 	lsl	r3, r3, #2
 c1024a8:	e0833001 	add	r3, r3, r1
 c1024ac:	e1a01103 	lsl	r1, r3, #2
 c1024b0:	e0833001 	add	r3, r3, r1
 c1024b4:	e1a03103 	lsl	r3, r3, #2
 c1024b8:	e0633002 	rsb	r3, r3, r2
 c1024bc:	e1a03803 	lsl	r3, r3, #16
 c1024c0:	e1a03823 	lsr	r3, r3, #16
 c1024c4:	e3530009 	cmp	r3, #9
 c1024c8:	8a000004 	bhi	c1024e0 <showTariffScreen+0x160>
        lcd_putchar(182, 178, BLACK, '0');
 c1024cc:	e3a000b6 	mov	r0, #182	; 0xb6
 c1024d0:	e3a010b2 	mov	r1, #178	; 0xb2
 c1024d4:	e3a0200f 	mov	r2, #15
 c1024d8:	e3a03030 	mov	r3, #48	; 0x30
 c1024dc:	eb000829 	bl	c104588 <lcd_putchar>
    }
    lcd_putint(190, 178, BLACK, credit % 100);
 c1024e0:	e15b21b0 	ldrh	r2, [fp, #-16]
 c1024e4:	e59f30b0 	ldr	r3, [pc, #176]	; c10259c <showTariffScreen+0x21c>
 c1024e8:	e0831392 	umull	r1, r3, r2, r3
 c1024ec:	e1a012a3 	lsr	r1, r3, #5
 c1024f0:	e1a03001 	mov	r3, r1
 c1024f4:	e1a03103 	lsl	r3, r3, #2
 c1024f8:	e0833001 	add	r3, r3, r1
 c1024fc:	e1a01103 	lsl	r1, r3, #2
 c102500:	e0833001 	add	r3, r3, r1
 c102504:	e1a03103 	lsl	r3, r3, #2
 c102508:	e0633002 	rsb	r3, r3, r2
 c10250c:	e1a03803 	lsl	r3, r3, #16
 c102510:	e1a03823 	lsr	r3, r3, #16
 c102514:	e3a000be 	mov	r0, #190	; 0xbe
 c102518:	e3a010b2 	mov	r1, #178	; 0xb2
 c10251c:	e3a0200f 	mov	r2, #15
 c102520:	eb0008d4 	bl	c104878 <lcd_putint>
    lcd_puts(202, 178, BLACK, " euros");
 c102524:	e3a000ca 	mov	r0, #202	; 0xca
 c102528:	e3a010b2 	mov	r1, #178	; 0xb2
 c10252c:	e3a0200f 	mov	r2, #15
 c102530:	e59f3068 	ldr	r3, [pc, #104]	; c1025a0 <showTariffScreen+0x220>
 c102534:	eb0008b2 	bl	c104804 <lcd_puts>

    lcd_puts(92, 194, BLACK, " Fin: "); //falta añadir fecha de fin
 c102538:	e3a0005c 	mov	r0, #92	; 0x5c
 c10253c:	e3a010c2 	mov	r1, #194	; 0xc2
 c102540:	e3a0200f 	mov	r2, #15
 c102544:	e59f3058 	ldr	r3, [pc, #88]	; c1025a4 <showTariffScreen+0x224>
 c102548:	eb0008ad 	bl	c104804 <lcd_puts>

    // Mensajes finales
    lcd_puts(106, 216, BLACK, "Inserte monedas");
 c10254c:	e3a0006a 	mov	r0, #106	; 0x6a
 c102550:	e3a010d8 	mov	r1, #216	; 0xd8
 c102554:	e3a0200f 	mov	r2, #15
 c102558:	e59f3048 	ldr	r3, [pc, #72]	; c1025a8 <showTariffScreen+0x228>
 c10255c:	eb0008a8 	bl	c104804 <lcd_puts>
    lcd_puts(48, 228, BLACK, "Pulse la pantalla para aceptar");
 c102560:	e3a00030 	mov	r0, #48	; 0x30
 c102564:	e3a010e4 	mov	r1, #228	; 0xe4
 c102568:	e3a0200f 	mov	r2, #15
 c10256c:	e59f3038 	ldr	r3, [pc, #56]	; c1025ac <showTariffScreen+0x22c>
 c102570:	eb0008a3 	bl	c104804 <lcd_puts>
}
 c102574:	e24bd00c 	sub	sp, fp, #12
 c102578:	e89d6800 	ldm	sp, {fp, sp, lr}
 c10257c:	e12fff1e 	bx	lr
 c102580:	0000013f 	.word	0x0000013f
 c102584:	0c10a3c4 	.word	0x0c10a3c4
 c102588:	0c10a3cc 	.word	0x0c10a3cc
 c10258c:	0c10a3ec 	.word	0x0c10a3ec
 c102590:	0c10a40c 	.word	0x0c10a40c
 c102594:	0c10a204 	.word	0x0c10a204
 c102598:	0c10a42c 	.word	0x0c10a42c
 c10259c:	51eb851f 	.word	0x51eb851f
 c1025a0:	0c10a438 	.word	0x0c10a438
 c1025a4:	0c10a440 	.word	0x0c10a440
 c1025a8:	0c10a448 	.word	0x0c10a448
 c1025ac:	0c10a458 	.word	0x0c10a458

0c1025b0 <memcpy>:
 c1025b0:	e1a0c00d 	mov	ip, sp
 c1025b4:	e92dd800 	push	{fp, ip, lr, pc}
 c1025b8:	e24cb004 	sub	fp, ip, #4
 c1025bc:	e24dd010 	sub	sp, sp, #16
 c1025c0:	e50b0010 	str	r0, [fp, #-16]
 c1025c4:	e50b1014 	str	r1, [fp, #-20]	; 0xffffffec
 c1025c8:	e50b2018 	str	r2, [fp, #-24]	; 0xffffffe8
 c1025cc:	ea00000c 	b	c102604 <memcpy+0x54>
 c1025d0:	e51b3014 	ldr	r3, [fp, #-20]	; 0xffffffec
 c1025d4:	e5d32000 	ldrb	r2, [r3]
 c1025d8:	e51b3010 	ldr	r3, [fp, #-16]
 c1025dc:	e5c32000 	strb	r2, [r3]
 c1025e0:	e51b3010 	ldr	r3, [fp, #-16]
 c1025e4:	e2833001 	add	r3, r3, #1
 c1025e8:	e50b3010 	str	r3, [fp, #-16]
 c1025ec:	e51b3014 	ldr	r3, [fp, #-20]	; 0xffffffec
 c1025f0:	e2833001 	add	r3, r3, #1
 c1025f4:	e50b3014 	str	r3, [fp, #-20]	; 0xffffffec
 c1025f8:	e51b3018 	ldr	r3, [fp, #-24]	; 0xffffffe8
 c1025fc:	e2433001 	sub	r3, r3, #1
 c102600:	e50b3018 	str	r3, [fp, #-24]	; 0xffffffe8
 c102604:	e51b3018 	ldr	r3, [fp, #-24]	; 0xffffffe8
 c102608:	e3530000 	cmp	r3, #0
 c10260c:	1affffef 	bne	c1025d0 <memcpy+0x20>
 c102610:	e24bd00c 	sub	sp, fp, #12
 c102614:	e89d6800 	ldm	sp, {fp, sp, lr}
 c102618:	e12fff1e 	bx	lr

0c10261c <memset>:
 c10261c:	e1a0c00d 	mov	ip, sp
 c102620:	e92dd800 	push	{fp, ip, lr, pc}
 c102624:	e24cb004 	sub	fp, ip, #4
 c102628:	e24dd010 	sub	sp, sp, #16
 c10262c:	e50b0010 	str	r0, [fp, #-16]
 c102630:	e1a03001 	mov	r3, r1
 c102634:	e50b2018 	str	r2, [fp, #-24]	; 0xffffffe8
 c102638:	e54b3011 	strb	r3, [fp, #-17]	; 0xffffffef
 c10263c:	ea000008 	b	c102664 <memset+0x48>
 c102640:	e51b3010 	ldr	r3, [fp, #-16]
 c102644:	e55b2011 	ldrb	r2, [fp, #-17]	; 0xffffffef
 c102648:	e5c32000 	strb	r2, [r3]
 c10264c:	e51b3010 	ldr	r3, [fp, #-16]
 c102650:	e2833001 	add	r3, r3, #1
 c102654:	e50b3010 	str	r3, [fp, #-16]
 c102658:	e51b3018 	ldr	r3, [fp, #-24]	; 0xffffffe8
 c10265c:	e2433001 	sub	r3, r3, #1
 c102660:	e50b3018 	str	r3, [fp, #-24]	; 0xffffffe8
 c102664:	e51b3018 	ldr	r3, [fp, #-24]	; 0xffffffe8
 c102668:	e3530000 	cmp	r3, #0
 c10266c:	1afffff3 	bne	c102640 <memset+0x24>
 c102670:	e24bd00c 	sub	sp, fp, #12
 c102674:	e89d6800 	ldm	sp, {fp, sp, lr}
 c102678:	e12fff1e 	bx	lr

0c10267c <memcmp>:
 c10267c:	e1a0c00d 	mov	ip, sp
 c102680:	e92dd800 	push	{fp, ip, lr, pc}
 c102684:	e24cb004 	sub	fp, ip, #4
 c102688:	e24dd018 	sub	sp, sp, #24
 c10268c:	e50b0018 	str	r0, [fp, #-24]	; 0xffffffe8
 c102690:	e50b101c 	str	r1, [fp, #-28]	; 0xffffffe4
 c102694:	e50b2020 	str	r2, [fp, #-32]	; 0xffffffe0
 c102698:	e3a03000 	mov	r3, #0
 c10269c:	e54b300d 	strb	r3, [fp, #-13]
 c1026a0:	ea00000e 	b	c1026e0 <memcmp+0x64>
 c1026a4:	e51b3018 	ldr	r3, [fp, #-24]	; 0xffffffe8
 c1026a8:	e5d32000 	ldrb	r2, [r3]
 c1026ac:	e51b301c 	ldr	r3, [fp, #-28]	; 0xffffffe4
 c1026b0:	e5d33000 	ldrb	r3, [r3]
 c1026b4:	e0633002 	rsb	r3, r3, r2
 c1026b8:	e54b300d 	strb	r3, [fp, #-13]
 c1026bc:	e51b3018 	ldr	r3, [fp, #-24]	; 0xffffffe8
 c1026c0:	e2833001 	add	r3, r3, #1
 c1026c4:	e50b3018 	str	r3, [fp, #-24]	; 0xffffffe8
 c1026c8:	e51b301c 	ldr	r3, [fp, #-28]	; 0xffffffe4
 c1026cc:	e2833001 	add	r3, r3, #1
 c1026d0:	e50b301c 	str	r3, [fp, #-28]	; 0xffffffe4
 c1026d4:	e51b3020 	ldr	r3, [fp, #-32]	; 0xffffffe0
 c1026d8:	e2433001 	sub	r3, r3, #1
 c1026dc:	e50b3020 	str	r3, [fp, #-32]	; 0xffffffe0
 c1026e0:	e51b3020 	ldr	r3, [fp, #-32]	; 0xffffffe0
 c1026e4:	e3530000 	cmp	r3, #0
 c1026e8:	0a000002 	beq	c1026f8 <memcmp+0x7c>
 c1026ec:	e55b300d 	ldrb	r3, [fp, #-13]
 c1026f0:	e3530000 	cmp	r3, #0
 c1026f4:	0affffea 	beq	c1026a4 <memcmp+0x28>
 c1026f8:	e55b300d 	ldrb	r3, [fp, #-13]
 c1026fc:	e1a00003 	mov	r0, r3
 c102700:	e24bd00c 	sub	sp, fp, #12
 c102704:	e89d6800 	ldm	sp, {fp, sp, lr}
 c102708:	e12fff1e 	bx	lr

0c10270c <random>:
 c10270c:	e1a0c00d 	mov	ip, sp
 c102710:	e92dd800 	push	{fp, ip, lr, pc}
 c102714:	e24cb004 	sub	fp, ip, #4
 c102718:	e24dd010 	sub	sp, sp, #16
 c10271c:	e50b0018 	str	r0, [fp, #-24]	; 0xffffffe8
 c102720:	e51b3018 	ldr	r3, [fp, #-24]	; 0xffffffe8
 c102724:	e3530000 	cmp	r3, #0
 c102728:	0a000002 	beq	c102738 <random+0x2c>
 c10272c:	e59f3084 	ldr	r3, [pc, #132]	; c1027b8 <random+0xac>
 c102730:	e51b2018 	ldr	r2, [fp, #-24]	; 0xffffffe8
 c102734:	e5832000 	str	r2, [r3]
 c102738:	e59f3078 	ldr	r3, [pc, #120]	; c1027b8 <random+0xac>
 c10273c:	e5933000 	ldr	r3, [r3]
 c102740:	e1a02fa3 	lsr	r2, r3, #31
 c102744:	e59f306c 	ldr	r3, [pc, #108]	; c1027b8 <random+0xac>
 c102748:	e5933000 	ldr	r3, [r3]
 c10274c:	e1a03aa3 	lsr	r3, r3, #21
 c102750:	e0222003 	eor	r2, r2, r3
 c102754:	e59f305c 	ldr	r3, [pc, #92]	; c1027b8 <random+0xac>
 c102758:	e5933000 	ldr	r3, [r3]
 c10275c:	e1a030a3 	lsr	r3, r3, #1
 c102760:	e0222003 	eor	r2, r2, r3
 c102764:	e59f304c 	ldr	r3, [pc, #76]	; c1027b8 <random+0xac>
 c102768:	e5933000 	ldr	r3, [r3]
 c10276c:	e0223003 	eor	r3, r2, r3
 c102770:	e2033001 	and	r3, r3, #1
 c102774:	e3530000 	cmp	r3, #0
 c102778:	13a03000 	movne	r3, #0
 c10277c:	03a03001 	moveq	r3, #1
 c102780:	e50b3010 	str	r3, [fp, #-16]
 c102784:	e59f302c 	ldr	r3, [pc, #44]	; c1027b8 <random+0xac>
 c102788:	e5933000 	ldr	r3, [r3]
 c10278c:	e1a02083 	lsl	r2, r3, #1
 c102790:	e51b3010 	ldr	r3, [fp, #-16]
 c102794:	e1822003 	orr	r2, r2, r3
 c102798:	e59f3018 	ldr	r3, [pc, #24]	; c1027b8 <random+0xac>
 c10279c:	e5832000 	str	r2, [r3]
 c1027a0:	e59f3010 	ldr	r3, [pc, #16]	; c1027b8 <random+0xac>
 c1027a4:	e5933000 	ldr	r3, [r3]
 c1027a8:	e1a00003 	mov	r0, r3
 c1027ac:	e24bd00c 	sub	sp, fp, #12
 c1027b0:	e89d6800 	ldm	sp, {fp, sp, lr}
 c1027b4:	e12fff1e 	bx	lr
 c1027b8:	0c1154b8 	.word	0x0c1154b8

0c1027bc <checksum>:
 c1027bc:	e1a0c00d 	mov	ip, sp
 c1027c0:	e92dd800 	push	{fp, ip, lr, pc}
 c1027c4:	e24cb004 	sub	fp, ip, #4
 c1027c8:	e24dd018 	sub	sp, sp, #24
 c1027cc:	e50b0020 	str	r0, [fp, #-32]	; 0xffffffe0
 c1027d0:	e1a03001 	mov	r3, r1
 c1027d4:	e14b32b2 	strh	r3, [fp, #-34]	; 0xffffffde
 c1027d8:	e3a03000 	mov	r3, #0
 c1027dc:	e50b3014 	str	r3, [fp, #-20]	; 0xffffffec
 c1027e0:	e51b3020 	ldr	r3, [fp, #-32]	; 0xffffffe0
 c1027e4:	e50b3018 	str	r3, [fp, #-24]	; 0xffffffe8
 c1027e8:	e3a03000 	mov	r3, #0
 c1027ec:	e14b30be 	strh	r3, [fp, #-14]
 c1027f0:	ea000017 	b	c102854 <checksum+0x98>
 c1027f4:	e15b30be 	ldrh	r3, [fp, #-14]
 c1027f8:	e1a03083 	lsl	r3, r3, #1
 c1027fc:	e51b2018 	ldr	r2, [fp, #-24]	; 0xffffffe8
 c102800:	e0823003 	add	r3, r2, r3
 c102804:	e1d330b0 	ldrh	r3, [r3]
 c102808:	e1a03403 	lsl	r3, r3, #8
 c10280c:	e1a03803 	lsl	r3, r3, #16
 c102810:	e1a03823 	lsr	r3, r3, #16
 c102814:	e15b20be 	ldrh	r2, [fp, #-14]
 c102818:	e1a02082 	lsl	r2, r2, #1
 c10281c:	e51b1018 	ldr	r1, [fp, #-24]	; 0xffffffe8
 c102820:	e0812002 	add	r2, r1, r2
 c102824:	e1d220b0 	ldrh	r2, [r2]
 c102828:	e1a02422 	lsr	r2, r2, #8
 c10282c:	e1a02802 	lsl	r2, r2, #16
 c102830:	e1a02822 	lsr	r2, r2, #16
 c102834:	e20220ff 	and	r2, r2, #255	; 0xff
 c102838:	e1833002 	orr	r3, r3, r2
 c10283c:	e51b2014 	ldr	r2, [fp, #-20]	; 0xffffffec
 c102840:	e0823003 	add	r3, r2, r3
 c102844:	e50b3014 	str	r3, [fp, #-20]	; 0xffffffec
 c102848:	e15b30be 	ldrh	r3, [fp, #-14]
 c10284c:	e2833001 	add	r3, r3, #1
 c102850:	e14b30be 	strh	r3, [fp, #-14]
 c102854:	e15b32b2 	ldrh	r3, [fp, #-34]	; 0xffffffde
 c102858:	e1a030a3 	lsr	r3, r3, #1
 c10285c:	e1a03803 	lsl	r3, r3, #16
 c102860:	e1a03823 	lsr	r3, r3, #16
 c102864:	e15b20be 	ldrh	r2, [fp, #-14]
 c102868:	e1520003 	cmp	r2, r3
 c10286c:	3affffe0 	bcc	c1027f4 <checksum+0x38>
 c102870:	e51b3014 	ldr	r3, [fp, #-20]	; 0xffffffec
 c102874:	e1a03823 	lsr	r3, r3, #16
 c102878:	e1a03803 	lsl	r3, r3, #16
 c10287c:	e1a02823 	lsr	r2, r3, #16
 c102880:	e51b3014 	ldr	r3, [fp, #-20]	; 0xffffffec
 c102884:	e1a03803 	lsl	r3, r3, #16
 c102888:	e1a03823 	lsr	r3, r3, #16
 c10288c:	e0823003 	add	r3, r2, r3
 c102890:	e1a03803 	lsl	r3, r3, #16
 c102894:	e1a03823 	lsr	r3, r3, #16
 c102898:	e1e03003 	mvn	r3, r3
 c10289c:	e1a03803 	lsl	r3, r3, #16
 c1028a0:	e1a03823 	lsr	r3, r3, #16
 c1028a4:	e1a00003 	mov	r0, r3
 c1028a8:	e24bd00c 	sub	sp, fp, #12
 c1028ac:	e89d6800 	ldm	sp, {fp, sp, lr}
 c1028b0:	e12fff1e 	bx	lr

0c1028b4 <uart0_putMac>:
 c1028b4:	e1a0c00d 	mov	ip, sp
 c1028b8:	e92dd800 	push	{fp, ip, lr, pc}
 c1028bc:	e24cb004 	sub	fp, ip, #4
 c1028c0:	e24dd010 	sub	sp, sp, #16
 c1028c4:	e50b0018 	str	r0, [fp, #-24]	; 0xffffffe8
 c1028c8:	e3a03000 	mov	r3, #0
 c1028cc:	e54b300d 	strb	r3, [fp, #-13]
 c1028d0:	ea000013 	b	c102924 <uart0_putMac+0x70>
 c1028d4:	e55b300d 	ldrb	r3, [fp, #-13]
 c1028d8:	e51b2018 	ldr	r2, [fp, #-24]	; 0xffffffe8
 c1028dc:	e0823003 	add	r3, r2, r3
 c1028e0:	e5d33000 	ldrb	r3, [r3]
 c1028e4:	e1a03223 	lsr	r3, r3, #4
 c1028e8:	e20330ff 	and	r3, r3, #255	; 0xff
 c1028ec:	e1a00003 	mov	r0, r3
 c1028f0:	eb0019ae 	bl	c108fb0 <uart0_puthex>
 c1028f4:	e55b300d 	ldrb	r3, [fp, #-13]
 c1028f8:	e51b2018 	ldr	r2, [fp, #-24]	; 0xffffffe8
 c1028fc:	e0823003 	add	r3, r2, r3
 c102900:	e5d33000 	ldrb	r3, [r3]
 c102904:	e203300f 	and	r3, r3, #15
 c102908:	e1a00003 	mov	r0, r3
 c10290c:	eb0019a7 	bl	c108fb0 <uart0_puthex>
 c102910:	e3a0003a 	mov	r0, #58	; 0x3a
 c102914:	eb001914 	bl	c108d6c <uart0_putchar>
 c102918:	e55b300d 	ldrb	r3, [fp, #-13]
 c10291c:	e2833001 	add	r3, r3, #1
 c102920:	e54b300d 	strb	r3, [fp, #-13]
 c102924:	e55b300d 	ldrb	r3, [fp, #-13]
 c102928:	e3530004 	cmp	r3, #4
 c10292c:	9affffe8 	bls	c1028d4 <uart0_putMac+0x20>
 c102930:	e55b300d 	ldrb	r3, [fp, #-13]
 c102934:	e51b2018 	ldr	r2, [fp, #-24]	; 0xffffffe8
 c102938:	e0823003 	add	r3, r2, r3
 c10293c:	e5d33000 	ldrb	r3, [r3]
 c102940:	e1a03223 	lsr	r3, r3, #4
 c102944:	e20330ff 	and	r3, r3, #255	; 0xff
 c102948:	e1a00003 	mov	r0, r3
 c10294c:	eb001997 	bl	c108fb0 <uart0_puthex>
 c102950:	e55b300d 	ldrb	r3, [fp, #-13]
 c102954:	e51b2018 	ldr	r2, [fp, #-24]	; 0xffffffe8
 c102958:	e0823003 	add	r3, r2, r3
 c10295c:	e5d33000 	ldrb	r3, [r3]
 c102960:	e203300f 	and	r3, r3, #15
 c102964:	e1a00003 	mov	r0, r3
 c102968:	eb001990 	bl	c108fb0 <uart0_puthex>
 c10296c:	e24bd00c 	sub	sp, fp, #12
 c102970:	e89d6800 	ldm	sp, {fp, sp, lr}
 c102974:	e12fff1e 	bx	lr

0c102978 <uart0_putIp>:
 c102978:	e1a0c00d 	mov	ip, sp
 c10297c:	e92dd800 	push	{fp, ip, lr, pc}
 c102980:	e24cb004 	sub	fp, ip, #4
 c102984:	e24dd008 	sub	sp, sp, #8
 c102988:	e50b0010 	str	r0, [fp, #-16]
 c10298c:	e51b3010 	ldr	r3, [fp, #-16]
 c102990:	e1a03c23 	lsr	r3, r3, #24
 c102994:	e1a00003 	mov	r0, r3
 c102998:	eb00192f 	bl	c108e5c <uart0_putint>
 c10299c:	e3a0002e 	mov	r0, #46	; 0x2e
 c1029a0:	eb0018f1 	bl	c108d6c <uart0_putchar>
 c1029a4:	e51b3010 	ldr	r3, [fp, #-16]
 c1029a8:	e20338ff 	and	r3, r3, #16711680	; 0xff0000
 c1029ac:	e1a03823 	lsr	r3, r3, #16
 c1029b0:	e1a00003 	mov	r0, r3
 c1029b4:	eb001928 	bl	c108e5c <uart0_putint>
 c1029b8:	e3a0002e 	mov	r0, #46	; 0x2e
 c1029bc:	eb0018ea 	bl	c108d6c <uart0_putchar>
 c1029c0:	e51b3010 	ldr	r3, [fp, #-16]
 c1029c4:	e2033cff 	and	r3, r3, #65280	; 0xff00
 c1029c8:	e1a03423 	lsr	r3, r3, #8
 c1029cc:	e1a00003 	mov	r0, r3
 c1029d0:	eb001921 	bl	c108e5c <uart0_putint>
 c1029d4:	e3a0002e 	mov	r0, #46	; 0x2e
 c1029d8:	eb0018e3 	bl	c108d6c <uart0_putchar>
 c1029dc:	e51b3010 	ldr	r3, [fp, #-16]
 c1029e0:	e20330ff 	and	r3, r3, #255	; 0xff
 c1029e4:	e1a00003 	mov	r0, r3
 c1029e8:	eb00191b 	bl	c108e5c <uart0_putint>
 c1029ec:	e24bd00c 	sub	sp, fp, #12
 c1029f0:	e89d6800 	ldm	sp, {fp, sp, lr}
 c1029f4:	e12fff1e 	bx	lr

0c1029f8 <uart0_putEthHeader>:
 c1029f8:	e1a0c00d 	mov	ip, sp
 c1029fc:	e92dd800 	push	{fp, ip, lr, pc}
 c102a00:	e24cb004 	sub	fp, ip, #4
 c102a04:	e24dd010 	sub	sp, sp, #16
 c102a08:	e50b0018 	str	r0, [fp, #-24]	; 0xffffffe8
 c102a0c:	e51b3018 	ldr	r3, [fp, #-24]	; 0xffffffe8
 c102a10:	e50b3010 	str	r3, [fp, #-16]
 c102a14:	e59f006c 	ldr	r0, [pc, #108]	; c102a88 <uart0_putEthHeader+0x90>
 c102a18:	eb0018fb 	bl	c108e0c <uart0_puts>
 c102a1c:	e59f0068 	ldr	r0, [pc, #104]	; c102a8c <uart0_putEthHeader+0x94>
 c102a20:	eb0018f9 	bl	c108e0c <uart0_puts>
 c102a24:	e51b3010 	ldr	r3, [fp, #-16]
 c102a28:	e5d3200c 	ldrb	r2, [r3, #12]
 c102a2c:	e5d3300d 	ldrb	r3, [r3, #13]
 c102a30:	e1a03403 	lsl	r3, r3, #8
 c102a34:	e1833002 	orr	r3, r3, r2
 c102a38:	e1a03803 	lsl	r3, r3, #16
 c102a3c:	e1a03823 	lsr	r3, r3, #16
 c102a40:	e1a00003 	mov	r0, r3
 c102a44:	eb001959 	bl	c108fb0 <uart0_puthex>
 c102a48:	e59f0040 	ldr	r0, [pc, #64]	; c102a90 <uart0_putEthHeader+0x98>
 c102a4c:	eb0018ee 	bl	c108e0c <uart0_puts>
 c102a50:	e51b3010 	ldr	r3, [fp, #-16]
 c102a54:	e1a00003 	mov	r0, r3
 c102a58:	ebffff95 	bl	c1028b4 <uart0_putMac>
 c102a5c:	e59f0030 	ldr	r0, [pc, #48]	; c102a94 <uart0_putEthHeader+0x9c>
 c102a60:	eb0018e9 	bl	c108e0c <uart0_puts>
 c102a64:	e51b3010 	ldr	r3, [fp, #-16]
 c102a68:	e2833006 	add	r3, r3, #6
 c102a6c:	e1a00003 	mov	r0, r3
 c102a70:	ebffff8f 	bl	c1028b4 <uart0_putMac>
 c102a74:	e3a0000a 	mov	r0, #10
 c102a78:	eb0018bb 	bl	c108d6c <uart0_putchar>
 c102a7c:	e24bd00c 	sub	sp, fp, #12
 c102a80:	e89d6800 	ldm	sp, {fp, sp, lr}
 c102a84:	e12fff1e 	bx	lr
 c102a88:	0c10a478 	.word	0x0c10a478
 c102a8c:	0c10a48c 	.word	0x0c10a48c
 c102a90:	0c10a494 	.word	0x0c10a494
 c102a94:	0c10a49c 	.word	0x0c10a49c

0c102a98 <uart0_putArpHeader>:
 c102a98:	e1a0c00d 	mov	ip, sp
 c102a9c:	e92dd800 	push	{fp, ip, lr, pc}
 c102aa0:	e24cb004 	sub	fp, ip, #4
 c102aa4:	e24dd010 	sub	sp, sp, #16
 c102aa8:	e50b0018 	str	r0, [fp, #-24]	; 0xffffffe8
 c102aac:	e51b3018 	ldr	r3, [fp, #-24]	; 0xffffffe8
 c102ab0:	e50b3010 	str	r3, [fp, #-16]
 c102ab4:	e59f029c 	ldr	r0, [pc, #668]	; c102d58 <uart0_putArpHeader+0x2c0>
 c102ab8:	eb0018d3 	bl	c108e0c <uart0_puts>
 c102abc:	e59f0298 	ldr	r0, [pc, #664]	; c102d5c <uart0_putArpHeader+0x2c4>
 c102ac0:	eb0018d1 	bl	c108e0c <uart0_puts>
 c102ac4:	e51b3010 	ldr	r3, [fp, #-16]
 c102ac8:	e5d32006 	ldrb	r2, [r3, #6]
 c102acc:	e5d33007 	ldrb	r3, [r3, #7]
 c102ad0:	e1a03403 	lsl	r3, r3, #8
 c102ad4:	e1833002 	orr	r3, r3, r2
 c102ad8:	e1a03803 	lsl	r3, r3, #16
 c102adc:	e1a03823 	lsr	r3, r3, #16
 c102ae0:	e3530c01 	cmp	r3, #256	; 0x100
 c102ae4:	1a000002 	bne	c102af4 <uart0_putArpHeader+0x5c>
 c102ae8:	e59f0270 	ldr	r0, [pc, #624]	; c102d60 <uart0_putArpHeader+0x2c8>
 c102aec:	eb0018c6 	bl	c108e0c <uart0_puts>
 c102af0:	ea00000d 	b	c102b2c <uart0_putArpHeader+0x94>
 c102af4:	e51b3010 	ldr	r3, [fp, #-16]
 c102af8:	e5d32006 	ldrb	r2, [r3, #6]
 c102afc:	e5d33007 	ldrb	r3, [r3, #7]
 c102b00:	e1a03403 	lsl	r3, r3, #8
 c102b04:	e1833002 	orr	r3, r3, r2
 c102b08:	e1a03803 	lsl	r3, r3, #16
 c102b0c:	e1a03823 	lsr	r3, r3, #16
 c102b10:	e3530c02 	cmp	r3, #512	; 0x200
 c102b14:	1a000002 	bne	c102b24 <uart0_putArpHeader+0x8c>
 c102b18:	e59f0244 	ldr	r0, [pc, #580]	; c102d64 <uart0_putArpHeader+0x2cc>
 c102b1c:	eb0018ba 	bl	c108e0c <uart0_puts>
 c102b20:	ea000001 	b	c102b2c <uart0_putArpHeader+0x94>
 c102b24:	e59f023c 	ldr	r0, [pc, #572]	; c102d68 <uart0_putArpHeader+0x2d0>
 c102b28:	eb0018b7 	bl	c108e0c <uart0_puts>
 c102b2c:	e3a0000a 	mov	r0, #10
 c102b30:	eb00188d 	bl	c108d6c <uart0_putchar>
 c102b34:	e59f0230 	ldr	r0, [pc, #560]	; c102d6c <uart0_putArpHeader+0x2d4>
 c102b38:	eb0018b3 	bl	c108e0c <uart0_puts>
 c102b3c:	e51b3010 	ldr	r3, [fp, #-16]
 c102b40:	e2833008 	add	r3, r3, #8
 c102b44:	e1a00003 	mov	r0, r3
 c102b48:	ebffff59 	bl	c1028b4 <uart0_putMac>
 c102b4c:	e3a0000a 	mov	r0, #10
 c102b50:	eb001885 	bl	c108d6c <uart0_putchar>
 c102b54:	e59f0214 	ldr	r0, [pc, #532]	; c102d70 <uart0_putArpHeader+0x2d8>
 c102b58:	eb0018ab 	bl	c108e0c <uart0_puts>
 c102b5c:	e51b3010 	ldr	r3, [fp, #-16]
 c102b60:	e5d3200e 	ldrb	r2, [r3, #14]
 c102b64:	e5d3100f 	ldrb	r1, [r3, #15]
 c102b68:	e1a01401 	lsl	r1, r1, #8
 c102b6c:	e1812002 	orr	r2, r1, r2
 c102b70:	e5d31010 	ldrb	r1, [r3, #16]
 c102b74:	e1a01801 	lsl	r1, r1, #16
 c102b78:	e1812002 	orr	r2, r1, r2
 c102b7c:	e5d33011 	ldrb	r3, [r3, #17]
 c102b80:	e1a03c03 	lsl	r3, r3, #24
 c102b84:	e1833002 	orr	r3, r3, r2
 c102b88:	e1a02c03 	lsl	r2, r3, #24
 c102b8c:	e51b3010 	ldr	r3, [fp, #-16]
 c102b90:	e5d3100e 	ldrb	r1, [r3, #14]
 c102b94:	e5d3000f 	ldrb	r0, [r3, #15]
 c102b98:	e1a00400 	lsl	r0, r0, #8
 c102b9c:	e1801001 	orr	r1, r0, r1
 c102ba0:	e5d30010 	ldrb	r0, [r3, #16]
 c102ba4:	e1a00800 	lsl	r0, r0, #16
 c102ba8:	e1801001 	orr	r1, r0, r1
 c102bac:	e5d33011 	ldrb	r3, [r3, #17]
 c102bb0:	e1a03c03 	lsl	r3, r3, #24
 c102bb4:	e1833001 	orr	r3, r3, r1
 c102bb8:	e1a03403 	lsl	r3, r3, #8
 c102bbc:	e20338ff 	and	r3, r3, #16711680	; 0xff0000
 c102bc0:	e1822003 	orr	r2, r2, r3
 c102bc4:	e51b3010 	ldr	r3, [fp, #-16]
 c102bc8:	e5d3100e 	ldrb	r1, [r3, #14]
 c102bcc:	e5d3000f 	ldrb	r0, [r3, #15]
 c102bd0:	e1a00400 	lsl	r0, r0, #8
 c102bd4:	e1801001 	orr	r1, r0, r1
 c102bd8:	e5d30010 	ldrb	r0, [r3, #16]
 c102bdc:	e1a00800 	lsl	r0, r0, #16
 c102be0:	e1801001 	orr	r1, r0, r1
 c102be4:	e5d33011 	ldrb	r3, [r3, #17]
 c102be8:	e1a03c03 	lsl	r3, r3, #24
 c102bec:	e1833001 	orr	r3, r3, r1
 c102bf0:	e1a03423 	lsr	r3, r3, #8
 c102bf4:	e2033cff 	and	r3, r3, #65280	; 0xff00
 c102bf8:	e1822003 	orr	r2, r2, r3
 c102bfc:	e51b3010 	ldr	r3, [fp, #-16]
 c102c00:	e5d3100e 	ldrb	r1, [r3, #14]
 c102c04:	e5d3000f 	ldrb	r0, [r3, #15]
 c102c08:	e1a00400 	lsl	r0, r0, #8
 c102c0c:	e1801001 	orr	r1, r0, r1
 c102c10:	e5d30010 	ldrb	r0, [r3, #16]
 c102c14:	e1a00800 	lsl	r0, r0, #16
 c102c18:	e1801001 	orr	r1, r0, r1
 c102c1c:	e5d33011 	ldrb	r3, [r3, #17]
 c102c20:	e1a03c03 	lsl	r3, r3, #24
 c102c24:	e1833001 	orr	r3, r3, r1
 c102c28:	e1a03c23 	lsr	r3, r3, #24
 c102c2c:	e1823003 	orr	r3, r2, r3
 c102c30:	e1a00003 	mov	r0, r3
 c102c34:	ebffff4f 	bl	c102978 <uart0_putIp>
 c102c38:	e3a0000a 	mov	r0, #10
 c102c3c:	eb00184a 	bl	c108d6c <uart0_putchar>
 c102c40:	e59f012c 	ldr	r0, [pc, #300]	; c102d74 <uart0_putArpHeader+0x2dc>
 c102c44:	eb001870 	bl	c108e0c <uart0_puts>
 c102c48:	e51b3010 	ldr	r3, [fp, #-16]
 c102c4c:	e2833012 	add	r3, r3, #18
 c102c50:	e1a00003 	mov	r0, r3
 c102c54:	ebffff16 	bl	c1028b4 <uart0_putMac>
 c102c58:	e3a0000a 	mov	r0, #10
 c102c5c:	eb001842 	bl	c108d6c <uart0_putchar>
 c102c60:	e59f0110 	ldr	r0, [pc, #272]	; c102d78 <uart0_putArpHeader+0x2e0>
 c102c64:	eb001868 	bl	c108e0c <uart0_puts>
 c102c68:	e51b3010 	ldr	r3, [fp, #-16]
 c102c6c:	e5d32018 	ldrb	r2, [r3, #24]
 c102c70:	e5d31019 	ldrb	r1, [r3, #25]
 c102c74:	e1a01401 	lsl	r1, r1, #8
 c102c78:	e1812002 	orr	r2, r1, r2
 c102c7c:	e5d3101a 	ldrb	r1, [r3, #26]
 c102c80:	e1a01801 	lsl	r1, r1, #16
 c102c84:	e1812002 	orr	r2, r1, r2
 c102c88:	e5d3301b 	ldrb	r3, [r3, #27]
 c102c8c:	e1a03c03 	lsl	r3, r3, #24
 c102c90:	e1833002 	orr	r3, r3, r2
 c102c94:	e1a02c03 	lsl	r2, r3, #24
 c102c98:	e51b3010 	ldr	r3, [fp, #-16]
 c102c9c:	e5d31018 	ldrb	r1, [r3, #24]
 c102ca0:	e5d30019 	ldrb	r0, [r3, #25]
 c102ca4:	e1a00400 	lsl	r0, r0, #8
 c102ca8:	e1801001 	orr	r1, r0, r1
 c102cac:	e5d3001a 	ldrb	r0, [r3, #26]
 c102cb0:	e1a00800 	lsl	r0, r0, #16
 c102cb4:	e1801001 	orr	r1, r0, r1
 c102cb8:	e5d3301b 	ldrb	r3, [r3, #27]
 c102cbc:	e1a03c03 	lsl	r3, r3, #24
 c102cc0:	e1833001 	orr	r3, r3, r1
 c102cc4:	e1a03403 	lsl	r3, r3, #8
 c102cc8:	e20338ff 	and	r3, r3, #16711680	; 0xff0000
 c102ccc:	e1822003 	orr	r2, r2, r3
 c102cd0:	e51b3010 	ldr	r3, [fp, #-16]
 c102cd4:	e5d31018 	ldrb	r1, [r3, #24]
 c102cd8:	e5d30019 	ldrb	r0, [r3, #25]
 c102cdc:	e1a00400 	lsl	r0, r0, #8
 c102ce0:	e1801001 	orr	r1, r0, r1
 c102ce4:	e5d3001a 	ldrb	r0, [r3, #26]
 c102ce8:	e1a00800 	lsl	r0, r0, #16
 c102cec:	e1801001 	orr	r1, r0, r1
 c102cf0:	e5d3301b 	ldrb	r3, [r3, #27]
 c102cf4:	e1a03c03 	lsl	r3, r3, #24
 c102cf8:	e1833001 	orr	r3, r3, r1
 c102cfc:	e1a03423 	lsr	r3, r3, #8
 c102d00:	e2033cff 	and	r3, r3, #65280	; 0xff00
 c102d04:	e1822003 	orr	r2, r2, r3
 c102d08:	e51b3010 	ldr	r3, [fp, #-16]
 c102d0c:	e5d31018 	ldrb	r1, [r3, #24]
 c102d10:	e5d30019 	ldrb	r0, [r3, #25]
 c102d14:	e1a00400 	lsl	r0, r0, #8
 c102d18:	e1801001 	orr	r1, r0, r1
 c102d1c:	e5d3001a 	ldrb	r0, [r3, #26]
 c102d20:	e1a00800 	lsl	r0, r0, #16
 c102d24:	e1801001 	orr	r1, r0, r1
 c102d28:	e5d3301b 	ldrb	r3, [r3, #27]
 c102d2c:	e1a03c03 	lsl	r3, r3, #24
 c102d30:	e1833001 	orr	r3, r3, r1
 c102d34:	e1a03c23 	lsr	r3, r3, #24
 c102d38:	e1823003 	orr	r3, r2, r3
 c102d3c:	e1a00003 	mov	r0, r3
 c102d40:	ebffff0c 	bl	c102978 <uart0_putIp>
 c102d44:	e3a0000a 	mov	r0, #10
 c102d48:	eb001807 	bl	c108d6c <uart0_putchar>
 c102d4c:	e24bd00c 	sub	sp, fp, #12
 c102d50:	e89d6800 	ldm	sp, {fp, sp, lr}
 c102d54:	e12fff1e 	bx	lr
 c102d58:	0c10a4a8 	.word	0x0c10a4a8
 c102d5c:	0c10a4b8 	.word	0x0c10a4b8
 c102d60:	0c10a4c8 	.word	0x0c10a4c8
 c102d64:	0c10a4d0 	.word	0x0c10a4d0
 c102d68:	0c10a4d8 	.word	0x0c10a4d8
 c102d6c:	0c10a4e0 	.word	0x0c10a4e0
 c102d70:	0c10a4f0 	.word	0x0c10a4f0
 c102d74:	0c10a500 	.word	0x0c10a500
 c102d78:	0c10a510 	.word	0x0c10a510

0c102d7c <uart0_putIpHeader>:
 c102d7c:	e1a0c00d 	mov	ip, sp
 c102d80:	e92dd800 	push	{fp, ip, lr, pc}
 c102d84:	e24cb004 	sub	fp, ip, #4
 c102d88:	e24dd010 	sub	sp, sp, #16
 c102d8c:	e50b0018 	str	r0, [fp, #-24]	; 0xffffffe8
 c102d90:	e51b3018 	ldr	r3, [fp, #-24]	; 0xffffffe8
 c102d94:	e50b3010 	str	r3, [fp, #-16]
 c102d98:	e59f048c 	ldr	r0, [pc, #1164]	; c10322c <uart0_putIpHeader+0x4b0>
 c102d9c:	eb00181a 	bl	c108e0c <uart0_puts>
 c102da0:	e59f0488 	ldr	r0, [pc, #1160]	; c103230 <uart0_putIpHeader+0x4b4>
 c102da4:	eb001818 	bl	c108e0c <uart0_puts>
 c102da8:	e51b3010 	ldr	r3, [fp, #-16]
 c102dac:	e5d33000 	ldrb	r3, [r3]
 c102db0:	e1a03223 	lsr	r3, r3, #4
 c102db4:	e20330ff 	and	r3, r3, #255	; 0xff
 c102db8:	e1a03243 	asr	r3, r3, #4
 c102dbc:	e1a00003 	mov	r0, r3
 c102dc0:	eb001825 	bl	c108e5c <uart0_putint>
 c102dc4:	e3a0000a 	mov	r0, #10
 c102dc8:	eb0017e7 	bl	c108d6c <uart0_putchar>
 c102dcc:	e59f0460 	ldr	r0, [pc, #1120]	; c103234 <uart0_putIpHeader+0x4b8>
 c102dd0:	eb00180d 	bl	c108e0c <uart0_puts>
 c102dd4:	e51b3010 	ldr	r3, [fp, #-16]
 c102dd8:	e5d33009 	ldrb	r3, [r3, #9]
 c102ddc:	e3530006 	cmp	r3, #6
 c102de0:	0a000006 	beq	c102e00 <uart0_putIpHeader+0x84>
 c102de4:	e3530011 	cmp	r3, #17
 c102de8:	0a000007 	beq	c102e0c <uart0_putIpHeader+0x90>
 c102dec:	e3530001 	cmp	r3, #1
 c102df0:	1a000008 	bne	c102e18 <uart0_putIpHeader+0x9c>
 c102df4:	e59f043c 	ldr	r0, [pc, #1084]	; c103238 <uart0_putIpHeader+0x4bc>
 c102df8:	eb001803 	bl	c108e0c <uart0_puts>
 c102dfc:	ea000008 	b	c102e24 <uart0_putIpHeader+0xa8>
 c102e00:	e59f0434 	ldr	r0, [pc, #1076]	; c10323c <uart0_putIpHeader+0x4c0>
 c102e04:	eb001800 	bl	c108e0c <uart0_puts>
 c102e08:	ea000005 	b	c102e24 <uart0_putIpHeader+0xa8>
 c102e0c:	e59f042c 	ldr	r0, [pc, #1068]	; c103240 <uart0_putIpHeader+0x4c4>
 c102e10:	eb0017fd 	bl	c108e0c <uart0_puts>
 c102e14:	ea000002 	b	c102e24 <uart0_putIpHeader+0xa8>
 c102e18:	e59f0424 	ldr	r0, [pc, #1060]	; c103244 <uart0_putIpHeader+0x4c8>
 c102e1c:	eb0017fa 	bl	c108e0c <uart0_puts>
 c102e20:	e1a00000 	nop			; (mov r0, r0)
 c102e24:	e3a0000a 	mov	r0, #10
 c102e28:	eb0017cf 	bl	c108d6c <uart0_putchar>
 c102e2c:	e59f0414 	ldr	r0, [pc, #1044]	; c103248 <uart0_putIpHeader+0x4cc>
 c102e30:	eb0017f5 	bl	c108e0c <uart0_puts>
 c102e34:	e51b3010 	ldr	r3, [fp, #-16]
 c102e38:	e5d3200c 	ldrb	r2, [r3, #12]
 c102e3c:	e5d3100d 	ldrb	r1, [r3, #13]
 c102e40:	e1a01401 	lsl	r1, r1, #8
 c102e44:	e1812002 	orr	r2, r1, r2
 c102e48:	e5d3100e 	ldrb	r1, [r3, #14]
 c102e4c:	e1a01801 	lsl	r1, r1, #16
 c102e50:	e1812002 	orr	r2, r1, r2
 c102e54:	e5d3300f 	ldrb	r3, [r3, #15]
 c102e58:	e1a03c03 	lsl	r3, r3, #24
 c102e5c:	e1833002 	orr	r3, r3, r2
 c102e60:	e1a02c03 	lsl	r2, r3, #24
 c102e64:	e51b3010 	ldr	r3, [fp, #-16]
 c102e68:	e5d3100c 	ldrb	r1, [r3, #12]
 c102e6c:	e5d3000d 	ldrb	r0, [r3, #13]
 c102e70:	e1a00400 	lsl	r0, r0, #8
 c102e74:	e1801001 	orr	r1, r0, r1
 c102e78:	e5d3000e 	ldrb	r0, [r3, #14]
 c102e7c:	e1a00800 	lsl	r0, r0, #16
 c102e80:	e1801001 	orr	r1, r0, r1
 c102e84:	e5d3300f 	ldrb	r3, [r3, #15]
 c102e88:	e1a03c03 	lsl	r3, r3, #24
 c102e8c:	e1833001 	orr	r3, r3, r1
 c102e90:	e1a03403 	lsl	r3, r3, #8
 c102e94:	e20338ff 	and	r3, r3, #16711680	; 0xff0000
 c102e98:	e1822003 	orr	r2, r2, r3
 c102e9c:	e51b3010 	ldr	r3, [fp, #-16]
 c102ea0:	e5d3100c 	ldrb	r1, [r3, #12]
 c102ea4:	e5d3000d 	ldrb	r0, [r3, #13]
 c102ea8:	e1a00400 	lsl	r0, r0, #8
 c102eac:	e1801001 	orr	r1, r0, r1
 c102eb0:	e5d3000e 	ldrb	r0, [r3, #14]
 c102eb4:	e1a00800 	lsl	r0, r0, #16
 c102eb8:	e1801001 	orr	r1, r0, r1
 c102ebc:	e5d3300f 	ldrb	r3, [r3, #15]
 c102ec0:	e1a03c03 	lsl	r3, r3, #24
 c102ec4:	e1833001 	orr	r3, r3, r1
 c102ec8:	e1a03423 	lsr	r3, r3, #8
 c102ecc:	e2033cff 	and	r3, r3, #65280	; 0xff00
 c102ed0:	e1822003 	orr	r2, r2, r3
 c102ed4:	e51b3010 	ldr	r3, [fp, #-16]
 c102ed8:	e5d3100c 	ldrb	r1, [r3, #12]
 c102edc:	e5d3000d 	ldrb	r0, [r3, #13]
 c102ee0:	e1a00400 	lsl	r0, r0, #8
 c102ee4:	e1801001 	orr	r1, r0, r1
 c102ee8:	e5d3000e 	ldrb	r0, [r3, #14]
 c102eec:	e1a00800 	lsl	r0, r0, #16
 c102ef0:	e1801001 	orr	r1, r0, r1
 c102ef4:	e5d3300f 	ldrb	r3, [r3, #15]
 c102ef8:	e1a03c03 	lsl	r3, r3, #24
 c102efc:	e1833001 	orr	r3, r3, r1
 c102f00:	e1a03c23 	lsr	r3, r3, #24
 c102f04:	e1823003 	orr	r3, r2, r3
 c102f08:	e1a00003 	mov	r0, r3
 c102f0c:	ebfffe99 	bl	c102978 <uart0_putIp>
 c102f10:	e3a0000a 	mov	r0, #10
 c102f14:	eb001794 	bl	c108d6c <uart0_putchar>
 c102f18:	e59f032c 	ldr	r0, [pc, #812]	; c10324c <uart0_putIpHeader+0x4d0>
 c102f1c:	eb0017ba 	bl	c108e0c <uart0_puts>
 c102f20:	e51b3010 	ldr	r3, [fp, #-16]
 c102f24:	e5d32010 	ldrb	r2, [r3, #16]
 c102f28:	e5d31011 	ldrb	r1, [r3, #17]
 c102f2c:	e1a01401 	lsl	r1, r1, #8
 c102f30:	e1812002 	orr	r2, r1, r2
 c102f34:	e5d31012 	ldrb	r1, [r3, #18]
 c102f38:	e1a01801 	lsl	r1, r1, #16
 c102f3c:	e1812002 	orr	r2, r1, r2
 c102f40:	e5d33013 	ldrb	r3, [r3, #19]
 c102f44:	e1a03c03 	lsl	r3, r3, #24
 c102f48:	e1833002 	orr	r3, r3, r2
 c102f4c:	e1a02c03 	lsl	r2, r3, #24
 c102f50:	e51b3010 	ldr	r3, [fp, #-16]
 c102f54:	e5d31010 	ldrb	r1, [r3, #16]
 c102f58:	e5d30011 	ldrb	r0, [r3, #17]
 c102f5c:	e1a00400 	lsl	r0, r0, #8
 c102f60:	e1801001 	orr	r1, r0, r1
 c102f64:	e5d30012 	ldrb	r0, [r3, #18]
 c102f68:	e1a00800 	lsl	r0, r0, #16
 c102f6c:	e1801001 	orr	r1, r0, r1
 c102f70:	e5d33013 	ldrb	r3, [r3, #19]
 c102f74:	e1a03c03 	lsl	r3, r3, #24
 c102f78:	e1833001 	orr	r3, r3, r1
 c102f7c:	e1a03403 	lsl	r3, r3, #8
 c102f80:	e20338ff 	and	r3, r3, #16711680	; 0xff0000
 c102f84:	e1822003 	orr	r2, r2, r3
 c102f88:	e51b3010 	ldr	r3, [fp, #-16]
 c102f8c:	e5d31010 	ldrb	r1, [r3, #16]
 c102f90:	e5d30011 	ldrb	r0, [r3, #17]
 c102f94:	e1a00400 	lsl	r0, r0, #8
 c102f98:	e1801001 	orr	r1, r0, r1
 c102f9c:	e5d30012 	ldrb	r0, [r3, #18]
 c102fa0:	e1a00800 	lsl	r0, r0, #16
 c102fa4:	e1801001 	orr	r1, r0, r1
 c102fa8:	e5d33013 	ldrb	r3, [r3, #19]
 c102fac:	e1a03c03 	lsl	r3, r3, #24
 c102fb0:	e1833001 	orr	r3, r3, r1
 c102fb4:	e1a03423 	lsr	r3, r3, #8
 c102fb8:	e2033cff 	and	r3, r3, #65280	; 0xff00
 c102fbc:	e1822003 	orr	r2, r2, r3
 c102fc0:	e51b3010 	ldr	r3, [fp, #-16]
 c102fc4:	e5d31010 	ldrb	r1, [r3, #16]
 c102fc8:	e5d30011 	ldrb	r0, [r3, #17]
 c102fcc:	e1a00400 	lsl	r0, r0, #8
 c102fd0:	e1801001 	orr	r1, r0, r1
 c102fd4:	e5d30012 	ldrb	r0, [r3, #18]
 c102fd8:	e1a00800 	lsl	r0, r0, #16
 c102fdc:	e1801001 	orr	r1, r0, r1
 c102fe0:	e5d33013 	ldrb	r3, [r3, #19]
 c102fe4:	e1a03c03 	lsl	r3, r3, #24
 c102fe8:	e1833001 	orr	r3, r3, r1
 c102fec:	e1a03c23 	lsr	r3, r3, #24
 c102ff0:	e1823003 	orr	r3, r2, r3
 c102ff4:	e1a00003 	mov	r0, r3
 c102ff8:	ebfffe5e 	bl	c102978 <uart0_putIp>
 c102ffc:	e3a0000a 	mov	r0, #10
 c103000:	eb001759 	bl	c108d6c <uart0_putchar>
 c103004:	e59f0244 	ldr	r0, [pc, #580]	; c103250 <uart0_putIpHeader+0x4d4>
 c103008:	eb00177f 	bl	c108e0c <uart0_puts>
 c10300c:	e51b3010 	ldr	r3, [fp, #-16]
 c103010:	e5d32002 	ldrb	r2, [r3, #2]
 c103014:	e5d33003 	ldrb	r3, [r3, #3]
 c103018:	e1a03403 	lsl	r3, r3, #8
 c10301c:	e1833002 	orr	r3, r3, r2
 c103020:	e1a03803 	lsl	r3, r3, #16
 c103024:	e1a03823 	lsr	r3, r3, #16
 c103028:	e1a03c03 	lsl	r3, r3, #24
 c10302c:	e1a02003 	mov	r2, r3
 c103030:	e51b3010 	ldr	r3, [fp, #-16]
 c103034:	e5d31002 	ldrb	r1, [r3, #2]
 c103038:	e5d33003 	ldrb	r3, [r3, #3]
 c10303c:	e1a03403 	lsl	r3, r3, #8
 c103040:	e1833001 	orr	r3, r3, r1
 c103044:	e1a03803 	lsl	r3, r3, #16
 c103048:	e1a03823 	lsr	r3, r3, #16
 c10304c:	e1a03403 	lsl	r3, r3, #8
 c103050:	e20338ff 	and	r3, r3, #16711680	; 0xff0000
 c103054:	e1822003 	orr	r2, r2, r3
 c103058:	e51b3010 	ldr	r3, [fp, #-16]
 c10305c:	e5d31002 	ldrb	r1, [r3, #2]
 c103060:	e5d33003 	ldrb	r3, [r3, #3]
 c103064:	e1a03403 	lsl	r3, r3, #8
 c103068:	e1833001 	orr	r3, r3, r1
 c10306c:	e1a03803 	lsl	r3, r3, #16
 c103070:	e1a03823 	lsr	r3, r3, #16
 c103074:	e1a03423 	lsr	r3, r3, #8
 c103078:	e1a03803 	lsl	r3, r3, #16
 c10307c:	e1a03823 	lsr	r3, r3, #16
 c103080:	e2033cff 	and	r3, r3, #65280	; 0xff00
 c103084:	e1822003 	orr	r2, r2, r3
 c103088:	e51b3010 	ldr	r3, [fp, #-16]
 c10308c:	e5d31002 	ldrb	r1, [r3, #2]
 c103090:	e5d33003 	ldrb	r3, [r3, #3]
 c103094:	e1a03403 	lsl	r3, r3, #8
 c103098:	e1833001 	orr	r3, r3, r1
 c10309c:	e1a03803 	lsl	r3, r3, #16
 c1030a0:	e1a03823 	lsr	r3, r3, #16
 c1030a4:	e1a03c43 	asr	r3, r3, #24
 c1030a8:	e20330ff 	and	r3, r3, #255	; 0xff
 c1030ac:	e1823003 	orr	r3, r2, r3
 c1030b0:	e1a00003 	mov	r0, r3
 c1030b4:	ebfffe2f 	bl	c102978 <uart0_putIp>
 c1030b8:	e3a0000a 	mov	r0, #10
 c1030bc:	eb00172a 	bl	c108d6c <uart0_putchar>
 c1030c0:	e59f018c 	ldr	r0, [pc, #396]	; c103254 <uart0_putIpHeader+0x4d8>
 c1030c4:	eb001750 	bl	c108e0c <uart0_puts>
 c1030c8:	e51b3010 	ldr	r3, [fp, #-16]
 c1030cc:	e5d32006 	ldrb	r2, [r3, #6]
 c1030d0:	e5d33007 	ldrb	r3, [r3, #7]
 c1030d4:	e1a03403 	lsl	r3, r3, #8
 c1030d8:	e1833002 	orr	r3, r3, r2
 c1030dc:	e1a03803 	lsl	r3, r3, #16
 c1030e0:	e1a03823 	lsr	r3, r3, #16
 c1030e4:	e1a03403 	lsl	r3, r3, #8
 c1030e8:	e1a03803 	lsl	r3, r3, #16
 c1030ec:	e1a03823 	lsr	r3, r3, #16
 c1030f0:	e51b2010 	ldr	r2, [fp, #-16]
 c1030f4:	e5d21006 	ldrb	r1, [r2, #6]
 c1030f8:	e5d22007 	ldrb	r2, [r2, #7]
 c1030fc:	e1a02402 	lsl	r2, r2, #8
 c103100:	e1822001 	orr	r2, r2, r1
 c103104:	e1a02802 	lsl	r2, r2, #16
 c103108:	e1a02822 	lsr	r2, r2, #16
 c10310c:	e1a02422 	lsr	r2, r2, #8
 c103110:	e1a02802 	lsl	r2, r2, #16
 c103114:	e1a02822 	lsr	r2, r2, #16
 c103118:	e20220ff 	and	r2, r2, #255	; 0xff
 c10311c:	e1833002 	orr	r3, r3, r2
 c103120:	e1a03983 	lsl	r3, r3, #19
 c103124:	e1a039a3 	lsr	r3, r3, #19
 c103128:	e1a00003 	mov	r0, r3
 c10312c:	ebfffe11 	bl	c102978 <uart0_putIp>
 c103130:	e3a0000a 	mov	r0, #10
 c103134:	eb00170c 	bl	c108d6c <uart0_putchar>
 c103138:	e59f0118 	ldr	r0, [pc, #280]	; c103258 <uart0_putIpHeader+0x4dc>
 c10313c:	eb001732 	bl	c108e0c <uart0_puts>
 c103140:	e51b3010 	ldr	r3, [fp, #-16]
 c103144:	e5d32006 	ldrb	r2, [r3, #6]
 c103148:	e5d33007 	ldrb	r3, [r3, #7]
 c10314c:	e1a03403 	lsl	r3, r3, #8
 c103150:	e1833002 	orr	r3, r3, r2
 c103154:	e1a03803 	lsl	r3, r3, #16
 c103158:	e1a03823 	lsr	r3, r3, #16
 c10315c:	e1a03403 	lsl	r3, r3, #8
 c103160:	e1a03803 	lsl	r3, r3, #16
 c103164:	e1a03823 	lsr	r3, r3, #16
 c103168:	e51b2010 	ldr	r2, [fp, #-16]
 c10316c:	e5d21006 	ldrb	r1, [r2, #6]
 c103170:	e5d22007 	ldrb	r2, [r2, #7]
 c103174:	e1a02402 	lsl	r2, r2, #8
 c103178:	e1822001 	orr	r2, r2, r1
 c10317c:	e1a02802 	lsl	r2, r2, #16
 c103180:	e1a02822 	lsr	r2, r2, #16
 c103184:	e1a02422 	lsr	r2, r2, #8
 c103188:	e1a02802 	lsl	r2, r2, #16
 c10318c:	e1a02822 	lsr	r2, r2, #16
 c103190:	e20220ff 	and	r2, r2, #255	; 0xff
 c103194:	e1833002 	orr	r3, r3, r2
 c103198:	e2033901 	and	r3, r3, #16384	; 0x4000
 c10319c:	e3530000 	cmp	r3, #0
 c1031a0:	0a000001 	beq	c1031ac <uart0_putIpHeader+0x430>
 c1031a4:	e59f00b0 	ldr	r0, [pc, #176]	; c10325c <uart0_putIpHeader+0x4e0>
 c1031a8:	eb001717 	bl	c108e0c <uart0_puts>
 c1031ac:	e51b3010 	ldr	r3, [fp, #-16]
 c1031b0:	e5d32006 	ldrb	r2, [r3, #6]
 c1031b4:	e5d33007 	ldrb	r3, [r3, #7]
 c1031b8:	e1a03403 	lsl	r3, r3, #8
 c1031bc:	e1833002 	orr	r3, r3, r2
 c1031c0:	e1a03803 	lsl	r3, r3, #16
 c1031c4:	e1a03823 	lsr	r3, r3, #16
 c1031c8:	e1a03403 	lsl	r3, r3, #8
 c1031cc:	e1a03803 	lsl	r3, r3, #16
 c1031d0:	e1a03823 	lsr	r3, r3, #16
 c1031d4:	e51b2010 	ldr	r2, [fp, #-16]
 c1031d8:	e5d21006 	ldrb	r1, [r2, #6]
 c1031dc:	e5d22007 	ldrb	r2, [r2, #7]
 c1031e0:	e1a02402 	lsl	r2, r2, #8
 c1031e4:	e1822001 	orr	r2, r2, r1
 c1031e8:	e1a02802 	lsl	r2, r2, #16
 c1031ec:	e1a02822 	lsr	r2, r2, #16
 c1031f0:	e1a02422 	lsr	r2, r2, #8
 c1031f4:	e1a02802 	lsl	r2, r2, #16
 c1031f8:	e1a02822 	lsr	r2, r2, #16
 c1031fc:	e20220ff 	and	r2, r2, #255	; 0xff
 c103200:	e1833002 	orr	r3, r3, r2
 c103204:	e2033a02 	and	r3, r3, #8192	; 0x2000
 c103208:	e3530000 	cmp	r3, #0
 c10320c:	0a000001 	beq	c103218 <uart0_putIpHeader+0x49c>
 c103210:	e59f0048 	ldr	r0, [pc, #72]	; c103260 <uart0_putIpHeader+0x4e4>
 c103214:	eb0016fc 	bl	c108e0c <uart0_puts>
 c103218:	e3a0000a 	mov	r0, #10
 c10321c:	eb0016d2 	bl	c108d6c <uart0_putchar>
 c103220:	e24bd00c 	sub	sp, fp, #12
 c103224:	e89d6800 	ldm	sp, {fp, sp, lr}
 c103228:	e12fff1e 	bx	lr
 c10322c:	0c10a520 	.word	0x0c10a520
 c103230:	0c10a530 	.word	0x0c10a530
 c103234:	0c10a540 	.word	0x0c10a540
 c103238:	0c10a550 	.word	0x0c10a550
 c10323c:	0c10a558 	.word	0x0c10a558
 c103240:	0c10a55c 	.word	0x0c10a55c
 c103244:	0c10a4d8 	.word	0x0c10a4d8
 c103248:	0c10a560 	.word	0x0c10a560
 c10324c:	0c10a570 	.word	0x0c10a570
 c103250:	0c10a580 	.word	0x0c10a580
 c103254:	0c10a590 	.word	0x0c10a590
 c103258:	0c10a5a0 	.word	0x0c10a5a0
 c10325c:	0c10a5b0 	.word	0x0c10a5b0
 c103260:	0c10a5b4 	.word	0x0c10a5b4

0c103264 <uart0_putIcmpHeader>:
 c103264:	e1a0c00d 	mov	ip, sp
 c103268:	e92dd800 	push	{fp, ip, lr, pc}
 c10326c:	e24cb004 	sub	fp, ip, #4
 c103270:	e24dd010 	sub	sp, sp, #16
 c103274:	e50b0018 	str	r0, [fp, #-24]	; 0xffffffe8
 c103278:	e51b3018 	ldr	r3, [fp, #-24]	; 0xffffffe8
 c10327c:	e50b3010 	str	r3, [fp, #-16]
 c103280:	e59f0078 	ldr	r0, [pc, #120]	; c103300 <uart0_putIcmpHeader+0x9c>
 c103284:	eb0016e0 	bl	c108e0c <uart0_puts>
 c103288:	e59f0074 	ldr	r0, [pc, #116]	; c103304 <uart0_putIcmpHeader+0xa0>
 c10328c:	eb0016de 	bl	c108e0c <uart0_puts>
 c103290:	e51b3010 	ldr	r3, [fp, #-16]
 c103294:	e5d33000 	ldrb	r3, [r3]
 c103298:	e3530000 	cmp	r3, #0
 c10329c:	0a000004 	beq	c1032b4 <uart0_putIcmpHeader+0x50>
 c1032a0:	e3530008 	cmp	r3, #8
 c1032a4:	1a000005 	bne	c1032c0 <uart0_putIcmpHeader+0x5c>
 c1032a8:	e59f0058 	ldr	r0, [pc, #88]	; c103308 <uart0_putIcmpHeader+0xa4>
 c1032ac:	eb0016d6 	bl	c108e0c <uart0_puts>
 c1032b0:	ea000005 	b	c1032cc <uart0_putIcmpHeader+0x68>
 c1032b4:	e59f0050 	ldr	r0, [pc, #80]	; c10330c <uart0_putIcmpHeader+0xa8>
 c1032b8:	eb0016d3 	bl	c108e0c <uart0_puts>
 c1032bc:	ea000002 	b	c1032cc <uart0_putIcmpHeader+0x68>
 c1032c0:	e59f0048 	ldr	r0, [pc, #72]	; c103310 <uart0_putIcmpHeader+0xac>
 c1032c4:	eb0016d0 	bl	c108e0c <uart0_puts>
 c1032c8:	e1a00000 	nop			; (mov r0, r0)
 c1032cc:	e3a0000a 	mov	r0, #10
 c1032d0:	eb0016a5 	bl	c108d6c <uart0_putchar>
 c1032d4:	e59f0038 	ldr	r0, [pc, #56]	; c103314 <uart0_putIcmpHeader+0xb0>
 c1032d8:	eb0016cb 	bl	c108e0c <uart0_puts>
 c1032dc:	e51b3010 	ldr	r3, [fp, #-16]
 c1032e0:	e5d33001 	ldrb	r3, [r3, #1]
 c1032e4:	e1a00003 	mov	r0, r3
 c1032e8:	eb001730 	bl	c108fb0 <uart0_puthex>
 c1032ec:	e3a0000a 	mov	r0, #10
 c1032f0:	eb00169d 	bl	c108d6c <uart0_putchar>
 c1032f4:	e24bd00c 	sub	sp, fp, #12
 c1032f8:	e89d6800 	ldm	sp, {fp, sp, lr}
 c1032fc:	e12fff1e 	bx	lr
 c103300:	0c10a5b8 	.word	0x0c10a5b8
 c103304:	0c10a5c8 	.word	0x0c10a5c8
 c103308:	0c10a5d4 	.word	0x0c10a5d4
 c10330c:	0c10a5e4 	.word	0x0c10a5e4
 c103310:	0c10a4d8 	.word	0x0c10a4d8
 c103314:	0c10a5f0 	.word	0x0c10a5f0

0c103318 <uart0_putUdpHeader>:
 c103318:	e1a0c00d 	mov	ip, sp
 c10331c:	e92dd800 	push	{fp, ip, lr, pc}
 c103320:	e24cb004 	sub	fp, ip, #4
 c103324:	e24dd010 	sub	sp, sp, #16
 c103328:	e50b0018 	str	r0, [fp, #-24]	; 0xffffffe8
 c10332c:	e51b3018 	ldr	r3, [fp, #-24]	; 0xffffffe8
 c103330:	e50b3010 	str	r3, [fp, #-16]
 c103334:	e59f015c 	ldr	r0, [pc, #348]	; c103498 <uart0_putUdpHeader+0x180>
 c103338:	eb0016b3 	bl	c108e0c <uart0_puts>
 c10333c:	e59f0158 	ldr	r0, [pc, #344]	; c10349c <uart0_putUdpHeader+0x184>
 c103340:	eb0016b1 	bl	c108e0c <uart0_puts>
 c103344:	e51b3010 	ldr	r3, [fp, #-16]
 c103348:	e5d32000 	ldrb	r2, [r3]
 c10334c:	e5d33001 	ldrb	r3, [r3, #1]
 c103350:	e1a03403 	lsl	r3, r3, #8
 c103354:	e1833002 	orr	r3, r3, r2
 c103358:	e1a03803 	lsl	r3, r3, #16
 c10335c:	e1a03823 	lsr	r3, r3, #16
 c103360:	e1a03403 	lsl	r3, r3, #8
 c103364:	e1a03803 	lsl	r3, r3, #16
 c103368:	e1a03823 	lsr	r3, r3, #16
 c10336c:	e51b2010 	ldr	r2, [fp, #-16]
 c103370:	e5d21000 	ldrb	r1, [r2]
 c103374:	e5d22001 	ldrb	r2, [r2, #1]
 c103378:	e1a02402 	lsl	r2, r2, #8
 c10337c:	e1822001 	orr	r2, r2, r1
 c103380:	e1a02802 	lsl	r2, r2, #16
 c103384:	e1a02822 	lsr	r2, r2, #16
 c103388:	e1a02422 	lsr	r2, r2, #8
 c10338c:	e1a02802 	lsl	r2, r2, #16
 c103390:	e1a02822 	lsr	r2, r2, #16
 c103394:	e20220ff 	and	r2, r2, #255	; 0xff
 c103398:	e1833002 	orr	r3, r3, r2
 c10339c:	e1a00003 	mov	r0, r3
 c1033a0:	ebfffd74 	bl	c102978 <uart0_putIp>
 c1033a4:	e3a0000a 	mov	r0, #10
 c1033a8:	eb00166f 	bl	c108d6c <uart0_putchar>
 c1033ac:	e59f00ec 	ldr	r0, [pc, #236]	; c1034a0 <uart0_putUdpHeader+0x188>
 c1033b0:	eb001695 	bl	c108e0c <uart0_puts>
 c1033b4:	e51b3010 	ldr	r3, [fp, #-16]
 c1033b8:	e5d32002 	ldrb	r2, [r3, #2]
 c1033bc:	e5d33003 	ldrb	r3, [r3, #3]
 c1033c0:	e1a03403 	lsl	r3, r3, #8
 c1033c4:	e1833002 	orr	r3, r3, r2
 c1033c8:	e1a03803 	lsl	r3, r3, #16
 c1033cc:	e1a03823 	lsr	r3, r3, #16
 c1033d0:	e1a03403 	lsl	r3, r3, #8
 c1033d4:	e1a03803 	lsl	r3, r3, #16
 c1033d8:	e1a03823 	lsr	r3, r3, #16
 c1033dc:	e51b2010 	ldr	r2, [fp, #-16]
 c1033e0:	e5d21002 	ldrb	r1, [r2, #2]
 c1033e4:	e5d22003 	ldrb	r2, [r2, #3]
 c1033e8:	e1a02402 	lsl	r2, r2, #8
 c1033ec:	e1822001 	orr	r2, r2, r1
 c1033f0:	e1a02802 	lsl	r2, r2, #16
 c1033f4:	e1a02822 	lsr	r2, r2, #16
 c1033f8:	e1a02422 	lsr	r2, r2, #8
 c1033fc:	e1a02802 	lsl	r2, r2, #16
 c103400:	e1a02822 	lsr	r2, r2, #16
 c103404:	e20220ff 	and	r2, r2, #255	; 0xff
 c103408:	e1833002 	orr	r3, r3, r2
 c10340c:	e1a00003 	mov	r0, r3
 c103410:	ebfffd58 	bl	c102978 <uart0_putIp>
 c103414:	e3a0000a 	mov	r0, #10
 c103418:	eb001653 	bl	c108d6c <uart0_putchar>
 c10341c:	e59f0080 	ldr	r0, [pc, #128]	; c1034a4 <uart0_putUdpHeader+0x18c>
 c103420:	eb001679 	bl	c108e0c <uart0_puts>
 c103424:	e51b3010 	ldr	r3, [fp, #-16]
 c103428:	e5d32004 	ldrb	r2, [r3, #4]
 c10342c:	e5d33005 	ldrb	r3, [r3, #5]
 c103430:	e1a03403 	lsl	r3, r3, #8
 c103434:	e1833002 	orr	r3, r3, r2
 c103438:	e1a03803 	lsl	r3, r3, #16
 c10343c:	e1a03823 	lsr	r3, r3, #16
 c103440:	e1a03403 	lsl	r3, r3, #8
 c103444:	e1a03803 	lsl	r3, r3, #16
 c103448:	e1a03823 	lsr	r3, r3, #16
 c10344c:	e51b2010 	ldr	r2, [fp, #-16]
 c103450:	e5d21004 	ldrb	r1, [r2, #4]
 c103454:	e5d22005 	ldrb	r2, [r2, #5]
 c103458:	e1a02402 	lsl	r2, r2, #8
 c10345c:	e1822001 	orr	r2, r2, r1
 c103460:	e1a02802 	lsl	r2, r2, #16
 c103464:	e1a02822 	lsr	r2, r2, #16
 c103468:	e1a02422 	lsr	r2, r2, #8
 c10346c:	e1a02802 	lsl	r2, r2, #16
 c103470:	e1a02822 	lsr	r2, r2, #16
 c103474:	e20220ff 	and	r2, r2, #255	; 0xff
 c103478:	e1833002 	orr	r3, r3, r2
 c10347c:	e1a00003 	mov	r0, r3
 c103480:	ebfffd3c 	bl	c102978 <uart0_putIp>
 c103484:	e3a0000a 	mov	r0, #10
 c103488:	eb001637 	bl	c108d6c <uart0_putchar>
 c10348c:	e24bd00c 	sub	sp, fp, #12
 c103490:	e89d6800 	ldm	sp, {fp, sp, lr}
 c103494:	e12fff1e 	bx	lr
 c103498:	0c10a5fc 	.word	0x0c10a5fc
 c10349c:	0c10a60c 	.word	0x0c10a60c
 c1034a0:	0c10a620 	.word	0x0c10a620
 c1034a4:	0c10a634 	.word	0x0c10a634

0c1034a8 <uart0_putFrame>:
 c1034a8:	e1a0c00d 	mov	ip, sp
 c1034ac:	e92dd800 	push	{fp, ip, lr, pc}
 c1034b0:	e24cb004 	sub	fp, ip, #4
 c1034b4:	e24dd010 	sub	sp, sp, #16
 c1034b8:	e50b0018 	str	r0, [fp, #-24]	; 0xffffffe8
 c1034bc:	e1a03001 	mov	r3, r1
 c1034c0:	e14b31ba 	strh	r3, [fp, #-26]	; 0xffffffe6
 c1034c4:	e3a03000 	mov	r3, #0
 c1034c8:	e14b31b0 	strh	r3, [fp, #-16]
 c1034cc:	e3a03000 	mov	r3, #0
 c1034d0:	e14b31b2 	strh	r3, [fp, #-18]	; 0xffffffee
 c1034d4:	ea000054 	b	c10362c <uart0_putFrame+0x184>
 c1034d8:	e59f0324 	ldr	r0, [pc, #804]	; c103804 <uart0_putFrame+0x35c>
 c1034dc:	eb00164a 	bl	c108e0c <uart0_puts>
 c1034e0:	e15b21b0 	ldrh	r2, [fp, #-16]
 c1034e4:	e1a03002 	mov	r3, r2
 c1034e8:	e1a03103 	lsl	r3, r3, #2
 c1034ec:	e0833002 	add	r3, r3, r2
 c1034f0:	e1a03083 	lsl	r3, r3, #1
 c1034f4:	e1a02003 	mov	r2, r3
 c1034f8:	e59f3308 	ldr	r3, [pc, #776]	; c103808 <uart0_putFrame+0x360>
 c1034fc:	e1520003 	cmp	r2, r3
 c103500:	ca000001 	bgt	c10350c <uart0_putFrame+0x64>
 c103504:	e3a00030 	mov	r0, #48	; 0x30
 c103508:	eb001617 	bl	c108d6c <uart0_putchar>
 c10350c:	e15b21b0 	ldrh	r2, [fp, #-16]
 c103510:	e1a03002 	mov	r3, r2
 c103514:	e1a03103 	lsl	r3, r3, #2
 c103518:	e0833002 	add	r3, r3, r2
 c10351c:	e1a03083 	lsl	r3, r3, #1
 c103520:	e1a02003 	mov	r2, r3
 c103524:	e59f32e0 	ldr	r3, [pc, #736]	; c10380c <uart0_putFrame+0x364>
 c103528:	e1520003 	cmp	r2, r3
 c10352c:	ca000001 	bgt	c103538 <uart0_putFrame+0x90>
 c103530:	e3a00030 	mov	r0, #48	; 0x30
 c103534:	eb00160c 	bl	c108d6c <uart0_putchar>
 c103538:	e15b21b0 	ldrh	r2, [fp, #-16]
 c10353c:	e1a03002 	mov	r3, r2
 c103540:	e1a03103 	lsl	r3, r3, #2
 c103544:	e0833002 	add	r3, r3, r2
 c103548:	e1a03083 	lsl	r3, r3, #1
 c10354c:	e3530063 	cmp	r3, #99	; 0x63
 c103550:	ca000001 	bgt	c10355c <uart0_putFrame+0xb4>
 c103554:	e3a00030 	mov	r0, #48	; 0x30
 c103558:	eb001603 	bl	c108d6c <uart0_putchar>
 c10355c:	e15b21b0 	ldrh	r2, [fp, #-16]
 c103560:	e1a03002 	mov	r3, r2
 c103564:	e1a03103 	lsl	r3, r3, #2
 c103568:	e0833002 	add	r3, r3, r2
 c10356c:	e1a03083 	lsl	r3, r3, #1
 c103570:	e3530009 	cmp	r3, #9
 c103574:	ca000001 	bgt	c103580 <uart0_putFrame+0xd8>
 c103578:	e3a00030 	mov	r0, #48	; 0x30
 c10357c:	eb0015fa 	bl	c108d6c <uart0_putchar>
 c103580:	e15b21b0 	ldrh	r2, [fp, #-16]
 c103584:	e1a03002 	mov	r3, r2
 c103588:	e1a03103 	lsl	r3, r3, #2
 c10358c:	e0833002 	add	r3, r3, r2
 c103590:	e1a03083 	lsl	r3, r3, #1
 c103594:	e1a00003 	mov	r0, r3
 c103598:	eb00162f 	bl	c108e5c <uart0_putint>
 c10359c:	e59f026c 	ldr	r0, [pc, #620]	; c103810 <uart0_putFrame+0x368>
 c1035a0:	eb001619 	bl	c108e0c <uart0_puts>
 c1035a4:	e3a03000 	mov	r3, #0
 c1035a8:	e14b30be 	strh	r3, [fp, #-14]
 c1035ac:	ea000016 	b	c10360c <uart0_putFrame+0x164>
 c1035b0:	e15b31b2 	ldrh	r3, [fp, #-18]	; 0xffffffee
 c1035b4:	e51b2018 	ldr	r2, [fp, #-24]	; 0xffffffe8
 c1035b8:	e0823003 	add	r3, r2, r3
 c1035bc:	e5d33000 	ldrb	r3, [r3]
 c1035c0:	e1a03223 	lsr	r3, r3, #4
 c1035c4:	e20330ff 	and	r3, r3, #255	; 0xff
 c1035c8:	e1a00003 	mov	r0, r3
 c1035cc:	eb001677 	bl	c108fb0 <uart0_puthex>
 c1035d0:	e15b31b2 	ldrh	r3, [fp, #-18]	; 0xffffffee
 c1035d4:	e51b2018 	ldr	r2, [fp, #-24]	; 0xffffffe8
 c1035d8:	e0823003 	add	r3, r2, r3
 c1035dc:	e5d33000 	ldrb	r3, [r3]
 c1035e0:	e203300f 	and	r3, r3, #15
 c1035e4:	e15b21b2 	ldrh	r2, [fp, #-18]	; 0xffffffee
 c1035e8:	e2822001 	add	r2, r2, #1
 c1035ec:	e14b21b2 	strh	r2, [fp, #-18]	; 0xffffffee
 c1035f0:	e1a00003 	mov	r0, r3
 c1035f4:	eb00166d 	bl	c108fb0 <uart0_puthex>
 c1035f8:	e3a0003a 	mov	r0, #58	; 0x3a
 c1035fc:	eb0015da 	bl	c108d6c <uart0_putchar>
 c103600:	e15b30be 	ldrh	r3, [fp, #-14]
 c103604:	e2833001 	add	r3, r3, #1
 c103608:	e14b30be 	strh	r3, [fp, #-14]
 c10360c:	e15b30be 	ldrh	r3, [fp, #-14]
 c103610:	e3530009 	cmp	r3, #9
 c103614:	9affffe5 	bls	c1035b0 <uart0_putFrame+0x108>
 c103618:	e3a0000a 	mov	r0, #10
 c10361c:	eb0015d2 	bl	c108d6c <uart0_putchar>
 c103620:	e15b31b0 	ldrh	r3, [fp, #-16]
 c103624:	e2833001 	add	r3, r3, #1
 c103628:	e14b31b0 	strh	r3, [fp, #-16]
 c10362c:	e15b21ba 	ldrh	r2, [fp, #-26]	; 0xffffffe6
 c103630:	e59f31dc 	ldr	r3, [pc, #476]	; c103814 <uart0_putFrame+0x36c>
 c103634:	e0831392 	umull	r1, r3, r2, r3
 c103638:	e1a031a3 	lsr	r3, r3, #3
 c10363c:	e1a03803 	lsl	r3, r3, #16
 c103640:	e1a03823 	lsr	r3, r3, #16
 c103644:	e15b21b0 	ldrh	r2, [fp, #-16]
 c103648:	e1520003 	cmp	r2, r3
 c10364c:	3affffa1 	bcc	c1034d8 <uart0_putFrame+0x30>
 c103650:	e15b21ba 	ldrh	r2, [fp, #-26]	; 0xffffffe6
 c103654:	e59f31b8 	ldr	r3, [pc, #440]	; c103814 <uart0_putFrame+0x36c>
 c103658:	e0831392 	umull	r1, r3, r2, r3
 c10365c:	e1a011a3 	lsr	r1, r3, #3
 c103660:	e1a03001 	mov	r3, r1
 c103664:	e1a03103 	lsl	r3, r3, #2
 c103668:	e0833001 	add	r3, r3, r1
 c10366c:	e1a03083 	lsl	r3, r3, #1
 c103670:	e0633002 	rsb	r3, r3, r2
 c103674:	e1a03803 	lsl	r3, r3, #16
 c103678:	e1a03823 	lsr	r3, r3, #16
 c10367c:	e3530000 	cmp	r3, #0
 c103680:	0a00005c 	beq	c1037f8 <uart0_putFrame+0x350>
 c103684:	e59f0178 	ldr	r0, [pc, #376]	; c103804 <uart0_putFrame+0x35c>
 c103688:	eb0015df 	bl	c108e0c <uart0_puts>
 c10368c:	e15b21b0 	ldrh	r2, [fp, #-16]
 c103690:	e1a03002 	mov	r3, r2
 c103694:	e1a03103 	lsl	r3, r3, #2
 c103698:	e0833002 	add	r3, r3, r2
 c10369c:	e1a03083 	lsl	r3, r3, #1
 c1036a0:	e1a02003 	mov	r2, r3
 c1036a4:	e59f315c 	ldr	r3, [pc, #348]	; c103808 <uart0_putFrame+0x360>
 c1036a8:	e1520003 	cmp	r2, r3
 c1036ac:	ca000001 	bgt	c1036b8 <uart0_putFrame+0x210>
 c1036b0:	e3a00030 	mov	r0, #48	; 0x30
 c1036b4:	eb0015ac 	bl	c108d6c <uart0_putchar>
 c1036b8:	e15b21b0 	ldrh	r2, [fp, #-16]
 c1036bc:	e1a03002 	mov	r3, r2
 c1036c0:	e1a03103 	lsl	r3, r3, #2
 c1036c4:	e0833002 	add	r3, r3, r2
 c1036c8:	e1a03083 	lsl	r3, r3, #1
 c1036cc:	e1a02003 	mov	r2, r3
 c1036d0:	e59f3134 	ldr	r3, [pc, #308]	; c10380c <uart0_putFrame+0x364>
 c1036d4:	e1520003 	cmp	r2, r3
 c1036d8:	ca000001 	bgt	c1036e4 <uart0_putFrame+0x23c>
 c1036dc:	e3a00030 	mov	r0, #48	; 0x30
 c1036e0:	eb0015a1 	bl	c108d6c <uart0_putchar>
 c1036e4:	e15b21b0 	ldrh	r2, [fp, #-16]
 c1036e8:	e1a03002 	mov	r3, r2
 c1036ec:	e1a03103 	lsl	r3, r3, #2
 c1036f0:	e0833002 	add	r3, r3, r2
 c1036f4:	e1a03083 	lsl	r3, r3, #1
 c1036f8:	e3530063 	cmp	r3, #99	; 0x63
 c1036fc:	ca000001 	bgt	c103708 <uart0_putFrame+0x260>
 c103700:	e3a00030 	mov	r0, #48	; 0x30
 c103704:	eb001598 	bl	c108d6c <uart0_putchar>
 c103708:	e15b21b0 	ldrh	r2, [fp, #-16]
 c10370c:	e1a03002 	mov	r3, r2
 c103710:	e1a03103 	lsl	r3, r3, #2
 c103714:	e0833002 	add	r3, r3, r2
 c103718:	e1a03083 	lsl	r3, r3, #1
 c10371c:	e3530009 	cmp	r3, #9
 c103720:	ca000001 	bgt	c10372c <uart0_putFrame+0x284>
 c103724:	e3a00030 	mov	r0, #48	; 0x30
 c103728:	eb00158f 	bl	c108d6c <uart0_putchar>
 c10372c:	e15b21b0 	ldrh	r2, [fp, #-16]
 c103730:	e1a03002 	mov	r3, r2
 c103734:	e1a03103 	lsl	r3, r3, #2
 c103738:	e0833002 	add	r3, r3, r2
 c10373c:	e1a03083 	lsl	r3, r3, #1
 c103740:	e1a00003 	mov	r0, r3
 c103744:	eb0015c4 	bl	c108e5c <uart0_putint>
 c103748:	e59f00c0 	ldr	r0, [pc, #192]	; c103810 <uart0_putFrame+0x368>
 c10374c:	eb0015ae 	bl	c108e0c <uart0_puts>
 c103750:	e3a03000 	mov	r3, #0
 c103754:	e14b30be 	strh	r3, [fp, #-14]
 c103758:	ea000016 	b	c1037b8 <uart0_putFrame+0x310>
 c10375c:	e15b31b2 	ldrh	r3, [fp, #-18]	; 0xffffffee
 c103760:	e51b2018 	ldr	r2, [fp, #-24]	; 0xffffffe8
 c103764:	e0823003 	add	r3, r2, r3
 c103768:	e5d33000 	ldrb	r3, [r3]
 c10376c:	e1a03223 	lsr	r3, r3, #4
 c103770:	e20330ff 	and	r3, r3, #255	; 0xff
 c103774:	e1a00003 	mov	r0, r3
 c103778:	eb00160c 	bl	c108fb0 <uart0_puthex>
 c10377c:	e15b31b2 	ldrh	r3, [fp, #-18]	; 0xffffffee
 c103780:	e51b2018 	ldr	r2, [fp, #-24]	; 0xffffffe8
 c103784:	e0823003 	add	r3, r2, r3
 c103788:	e5d33000 	ldrb	r3, [r3]
 c10378c:	e203300f 	and	r3, r3, #15
 c103790:	e15b21b2 	ldrh	r2, [fp, #-18]	; 0xffffffee
 c103794:	e2822001 	add	r2, r2, #1
 c103798:	e14b21b2 	strh	r2, [fp, #-18]	; 0xffffffee
 c10379c:	e1a00003 	mov	r0, r3
 c1037a0:	eb001602 	bl	c108fb0 <uart0_puthex>
 c1037a4:	e3a0003a 	mov	r0, #58	; 0x3a
 c1037a8:	eb00156f 	bl	c108d6c <uart0_putchar>
 c1037ac:	e15b30be 	ldrh	r3, [fp, #-14]
 c1037b0:	e2833001 	add	r3, r3, #1
 c1037b4:	e14b30be 	strh	r3, [fp, #-14]
 c1037b8:	e15b21ba 	ldrh	r2, [fp, #-26]	; 0xffffffe6
 c1037bc:	e59f3050 	ldr	r3, [pc, #80]	; c103814 <uart0_putFrame+0x36c>
 c1037c0:	e0831392 	umull	r1, r3, r2, r3
 c1037c4:	e1a011a3 	lsr	r1, r3, #3
 c1037c8:	e1a03001 	mov	r3, r1
 c1037cc:	e1a03103 	lsl	r3, r3, #2
 c1037d0:	e0833001 	add	r3, r3, r1
 c1037d4:	e1a03083 	lsl	r3, r3, #1
 c1037d8:	e0633002 	rsb	r3, r3, r2
 c1037dc:	e1a03803 	lsl	r3, r3, #16
 c1037e0:	e1a03823 	lsr	r3, r3, #16
 c1037e4:	e15b20be 	ldrh	r2, [fp, #-14]
 c1037e8:	e1520003 	cmp	r2, r3
 c1037ec:	3affffda 	bcc	c10375c <uart0_putFrame+0x2b4>
 c1037f0:	e3a0000a 	mov	r0, #10
 c1037f4:	eb00155c 	bl	c108d6c <uart0_putchar>
 c1037f8:	e24bd00c 	sub	sp, fp, #12
 c1037fc:	e89d6800 	ldm	sp, {fp, sp, lr}
 c103800:	e12fff1e 	bx	lr
 c103804:	0c10a648 	.word	0x0c10a648
 c103808:	0000270f 	.word	0x0000270f
 c10380c:	000003e7 	.word	0x000003e7
 c103810:	0c10a650 	.word	0x0c10a650
 c103814:	cccccccd 	.word	0xcccccccd

0c103818 <keypad_scan>:
 c103818:	e1a0c00d 	mov	ip, sp
 c10381c:	e92dd800 	push	{fp, ip, lr, pc}
 c103820:	e24cb004 	sub	fp, ip, #4
 c103824:	e24dd008 	sub	sp, sp, #8
 c103828:	e59f31fc 	ldr	r3, [pc, #508]	; c103a2c <keypad_scan+0x214>
 c10382c:	e5d33000 	ldrb	r3, [r3]
 c103830:	e54b300d 	strb	r3, [fp, #-13]
 c103834:	e55b300d 	ldrb	r3, [fp, #-13]
 c103838:	e203300f 	and	r3, r3, #15
 c10383c:	e353000f 	cmp	r3, #15
 c103840:	0a000017 	beq	c1038a4 <keypad_scan+0x8c>
 c103844:	e55b300d 	ldrb	r3, [fp, #-13]
 c103848:	e2033008 	and	r3, r3, #8
 c10384c:	e3530000 	cmp	r3, #0
 c103850:	1a000001 	bne	c10385c <keypad_scan+0x44>
 c103854:	e3a03000 	mov	r3, #0
 c103858:	ea00006f 	b	c103a1c <keypad_scan+0x204>
 c10385c:	e55b300d 	ldrb	r3, [fp, #-13]
 c103860:	e2033004 	and	r3, r3, #4
 c103864:	e3530000 	cmp	r3, #0
 c103868:	1a000001 	bne	c103874 <keypad_scan+0x5c>
 c10386c:	e3a03001 	mov	r3, #1
 c103870:	ea000069 	b	c103a1c <keypad_scan+0x204>
 c103874:	e55b300d 	ldrb	r3, [fp, #-13]
 c103878:	e2033002 	and	r3, r3, #2
 c10387c:	e3530000 	cmp	r3, #0
 c103880:	1a000001 	bne	c10388c <keypad_scan+0x74>
 c103884:	e3a03002 	mov	r3, #2
 c103888:	ea000063 	b	c103a1c <keypad_scan+0x204>
 c10388c:	e55b300d 	ldrb	r3, [fp, #-13]
 c103890:	e2033001 	and	r3, r3, #1
 c103894:	e3530000 	cmp	r3, #0
 c103898:	1a000001 	bne	c1038a4 <keypad_scan+0x8c>
 c10389c:	e3a03003 	mov	r3, #3
 c1038a0:	ea00005d 	b	c103a1c <keypad_scan+0x204>
 c1038a4:	e59f3184 	ldr	r3, [pc, #388]	; c103a30 <keypad_scan+0x218>
 c1038a8:	e5d33000 	ldrb	r3, [r3]
 c1038ac:	e54b300d 	strb	r3, [fp, #-13]
 c1038b0:	e55b300d 	ldrb	r3, [fp, #-13]
 c1038b4:	e203300f 	and	r3, r3, #15
 c1038b8:	e353000f 	cmp	r3, #15
 c1038bc:	0a000017 	beq	c103920 <keypad_scan+0x108>
 c1038c0:	e55b300d 	ldrb	r3, [fp, #-13]
 c1038c4:	e2033008 	and	r3, r3, #8
 c1038c8:	e3530000 	cmp	r3, #0
 c1038cc:	1a000001 	bne	c1038d8 <keypad_scan+0xc0>
 c1038d0:	e3a03004 	mov	r3, #4
 c1038d4:	ea000050 	b	c103a1c <keypad_scan+0x204>
 c1038d8:	e55b300d 	ldrb	r3, [fp, #-13]
 c1038dc:	e2033004 	and	r3, r3, #4
 c1038e0:	e3530000 	cmp	r3, #0
 c1038e4:	1a000001 	bne	c1038f0 <keypad_scan+0xd8>
 c1038e8:	e3a03005 	mov	r3, #5
 c1038ec:	ea00004a 	b	c103a1c <keypad_scan+0x204>
 c1038f0:	e55b300d 	ldrb	r3, [fp, #-13]
 c1038f4:	e2033002 	and	r3, r3, #2
 c1038f8:	e3530000 	cmp	r3, #0
 c1038fc:	1a000001 	bne	c103908 <keypad_scan+0xf0>
 c103900:	e3a03006 	mov	r3, #6
 c103904:	ea000044 	b	c103a1c <keypad_scan+0x204>
 c103908:	e55b300d 	ldrb	r3, [fp, #-13]
 c10390c:	e2033001 	and	r3, r3, #1
 c103910:	e3530000 	cmp	r3, #0
 c103914:	1a000001 	bne	c103920 <keypad_scan+0x108>
 c103918:	e3a03007 	mov	r3, #7
 c10391c:	ea00003e 	b	c103a1c <keypad_scan+0x204>
 c103920:	e59f310c 	ldr	r3, [pc, #268]	; c103a34 <keypad_scan+0x21c>
 c103924:	e5d33000 	ldrb	r3, [r3]
 c103928:	e54b300d 	strb	r3, [fp, #-13]
 c10392c:	e55b300d 	ldrb	r3, [fp, #-13]
 c103930:	e203300f 	and	r3, r3, #15
 c103934:	e353000f 	cmp	r3, #15
 c103938:	0a000017 	beq	c10399c <keypad_scan+0x184>
 c10393c:	e55b300d 	ldrb	r3, [fp, #-13]
 c103940:	e2033008 	and	r3, r3, #8
 c103944:	e3530000 	cmp	r3, #0
 c103948:	1a000001 	bne	c103954 <keypad_scan+0x13c>
 c10394c:	e3a03008 	mov	r3, #8
 c103950:	ea000031 	b	c103a1c <keypad_scan+0x204>
 c103954:	e55b300d 	ldrb	r3, [fp, #-13]
 c103958:	e2033004 	and	r3, r3, #4
 c10395c:	e3530000 	cmp	r3, #0
 c103960:	1a000001 	bne	c10396c <keypad_scan+0x154>
 c103964:	e3a03009 	mov	r3, #9
 c103968:	ea00002b 	b	c103a1c <keypad_scan+0x204>
 c10396c:	e55b300d 	ldrb	r3, [fp, #-13]
 c103970:	e2033002 	and	r3, r3, #2
 c103974:	e3530000 	cmp	r3, #0
 c103978:	1a000001 	bne	c103984 <keypad_scan+0x16c>
 c10397c:	e3a0300a 	mov	r3, #10
 c103980:	ea000025 	b	c103a1c <keypad_scan+0x204>
 c103984:	e55b300d 	ldrb	r3, [fp, #-13]
 c103988:	e2033001 	and	r3, r3, #1
 c10398c:	e3530000 	cmp	r3, #0
 c103990:	1a000001 	bne	c10399c <keypad_scan+0x184>
 c103994:	e3a0300b 	mov	r3, #11
 c103998:	ea00001f 	b	c103a1c <keypad_scan+0x204>
 c10399c:	e59f3094 	ldr	r3, [pc, #148]	; c103a38 <keypad_scan+0x220>
 c1039a0:	e5d33000 	ldrb	r3, [r3]
 c1039a4:	e54b300d 	strb	r3, [fp, #-13]
 c1039a8:	e55b300d 	ldrb	r3, [fp, #-13]
 c1039ac:	e203300f 	and	r3, r3, #15
 c1039b0:	e353000f 	cmp	r3, #15
 c1039b4:	0a000017 	beq	c103a18 <keypad_scan+0x200>
 c1039b8:	e55b300d 	ldrb	r3, [fp, #-13]
 c1039bc:	e2033008 	and	r3, r3, #8
 c1039c0:	e3530000 	cmp	r3, #0
 c1039c4:	1a000001 	bne	c1039d0 <keypad_scan+0x1b8>
 c1039c8:	e3a0300c 	mov	r3, #12
 c1039cc:	ea000012 	b	c103a1c <keypad_scan+0x204>
 c1039d0:	e55b300d 	ldrb	r3, [fp, #-13]
 c1039d4:	e2033004 	and	r3, r3, #4
 c1039d8:	e3530000 	cmp	r3, #0
 c1039dc:	1a000001 	bne	c1039e8 <keypad_scan+0x1d0>
 c1039e0:	e3a0300d 	mov	r3, #13
 c1039e4:	ea00000c 	b	c103a1c <keypad_scan+0x204>
 c1039e8:	e55b300d 	ldrb	r3, [fp, #-13]
 c1039ec:	e2033002 	and	r3, r3, #2
 c1039f0:	e3530000 	cmp	r3, #0
 c1039f4:	1a000001 	bne	c103a00 <keypad_scan+0x1e8>
 c1039f8:	e3a0300e 	mov	r3, #14
 c1039fc:	ea000006 	b	c103a1c <keypad_scan+0x204>
 c103a00:	e55b300d 	ldrb	r3, [fp, #-13]
 c103a04:	e2033001 	and	r3, r3, #1
 c103a08:	e3530000 	cmp	r3, #0
 c103a0c:	1a000001 	bne	c103a18 <keypad_scan+0x200>
 c103a10:	e3a0300f 	mov	r3, #15
 c103a14:	ea000000 	b	c103a1c <keypad_scan+0x204>
 c103a18:	e3a030ff 	mov	r3, #255	; 0xff
 c103a1c:	e1a00003 	mov	r0, r3
 c103a20:	e24bd00c 	sub	sp, fp, #12
 c103a24:	e89d6800 	ldm	sp, {fp, sp, lr}
 c103a28:	e12fff1e 	bx	lr
 c103a2c:	0600001c 	.word	0x0600001c
 c103a30:	0600001a 	.word	0x0600001a
 c103a34:	06000016 	.word	0x06000016
 c103a38:	0600000e 	.word	0x0600000e

0c103a3c <keypad_pressed>:
 c103a3c:	e1a0c00d 	mov	ip, sp
 c103a40:	e92dd800 	push	{fp, ip, lr, pc}
 c103a44:	e24cb004 	sub	fp, ip, #4
 c103a48:	e59f3024 	ldr	r3, [pc, #36]	; c103a74 <keypad_pressed+0x38>
 c103a4c:	e5933000 	ldr	r3, [r3]
 c103a50:	e2033002 	and	r3, r3, #2
 c103a54:	e3530000 	cmp	r3, #0
 c103a58:	13a03000 	movne	r3, #0
 c103a5c:	03a03001 	moveq	r3, #1
 c103a60:	e20330ff 	and	r3, r3, #255	; 0xff
 c103a64:	e1a00003 	mov	r0, r3
 c103a68:	e24bd00c 	sub	sp, fp, #12
 c103a6c:	e89d6800 	ldm	sp, {fp, sp, lr}
 c103a70:	e12fff1e 	bx	lr
 c103a74:	01d20044 	.word	0x01d20044

0c103a78 <keypad_getchartime>:
 c103a78:	e1a0c00d 	mov	ip, sp
 c103a7c:	e92dd800 	push	{fp, ip, lr, pc}
 c103a80:	e24cb004 	sub	fp, ip, #4
 c103a84:	e24dd010 	sub	sp, sp, #16
 c103a88:	e50b0018 	str	r0, [fp, #-24]	; 0xffffffe8
 c103a8c:	e1a00000 	nop			; (mov r0, r0)
 c103a90:	e59f3080 	ldr	r3, [pc, #128]	; c103b18 <keypad_getchartime+0xa0>
 c103a94:	e5933000 	ldr	r3, [r3]
 c103a98:	e2033002 	and	r3, r3, #2
 c103a9c:	e3530000 	cmp	r3, #0
 c103aa0:	1afffffa 	bne	c103a90 <keypad_getchartime+0x18>
 c103aa4:	eb001042 	bl	c107bb4 <timer3_start>
 c103aa8:	e3a0001e 	mov	r0, #30
 c103aac:	eb000fd5 	bl	c107a08 <sw_delay_ms>
 c103ab0:	ebffff58 	bl	c103818 <keypad_scan>
 c103ab4:	e1a03000 	mov	r3, r0
 c103ab8:	e54b300d 	strb	r3, [fp, #-13]
 c103abc:	e1a00000 	nop			; (mov r0, r0)
 c103ac0:	e59f3050 	ldr	r3, [pc, #80]	; c103b18 <keypad_getchartime+0xa0>
 c103ac4:	e5933000 	ldr	r3, [r3]
 c103ac8:	e2033002 	and	r3, r3, #2
 c103acc:	e3530000 	cmp	r3, #0
 c103ad0:	0afffffa 	beq	c103ac0 <keypad_getchartime+0x48>
 c103ad4:	eb00106d 	bl	c107c90 <timer3_stop>
 c103ad8:	e1a03000 	mov	r3, r0
 c103adc:	e1a02003 	mov	r2, r3
 c103ae0:	e59f3034 	ldr	r3, [pc, #52]	; c103b1c <keypad_getchartime+0xa4>
 c103ae4:	e0831392 	umull	r1, r3, r2, r3
 c103ae8:	e1a031a3 	lsr	r3, r3, #3
 c103aec:	e1a03803 	lsl	r3, r3, #16
 c103af0:	e1a02823 	lsr	r2, r3, #16
 c103af4:	e51b3018 	ldr	r3, [fp, #-24]	; 0xffffffe8
 c103af8:	e1c320b0 	strh	r2, [r3]
 c103afc:	e3a00064 	mov	r0, #100	; 0x64
 c103b00:	eb000fc0 	bl	c107a08 <sw_delay_ms>
 c103b04:	e55b300d 	ldrb	r3, [fp, #-13]
 c103b08:	e1a00003 	mov	r0, r3
 c103b0c:	e24bd00c 	sub	sp, fp, #12
 c103b10:	e89d6800 	ldm	sp, {fp, sp, lr}
 c103b14:	e12fff1e 	bx	lr
 c103b18:	01d20044 	.word	0x01d20044
 c103b1c:	cccccccd 	.word	0xcccccccd

0c103b20 <keypad_timeout_getchar>:
 c103b20:	e1a0c00d 	mov	ip, sp
 c103b24:	e92dd800 	push	{fp, ip, lr, pc}
 c103b28:	e24cb004 	sub	fp, ip, #4
 c103b2c:	e24dd010 	sub	sp, sp, #16
 c103b30:	e1a03000 	mov	r3, r0
 c103b34:	e14b31b6 	strh	r3, [fp, #-22]	; 0xffffffea
 c103b38:	e15b31b6 	ldrh	r3, [fp, #-22]	; 0xffffffea
 c103b3c:	e1a02003 	mov	r2, r3
 c103b40:	e1a02102 	lsl	r2, r2, #2
 c103b44:	e0823003 	add	r3, r2, r3
 c103b48:	e1a03083 	lsl	r3, r3, #1
 c103b4c:	e1a03803 	lsl	r3, r3, #16
 c103b50:	e1a03823 	lsr	r3, r3, #16
 c103b54:	e1a00003 	mov	r0, r3
 c103b58:	eb001061 	bl	c107ce4 <timer3_start_timeout>
 c103b5c:	e1a00000 	nop			; (mov r0, r0)
 c103b60:	e59f30a4 	ldr	r3, [pc, #164]	; c103c0c <keypad_timeout_getchar+0xec>
 c103b64:	e5933000 	ldr	r3, [r3]
 c103b68:	e2033002 	and	r3, r3, #2
 c103b6c:	e3530000 	cmp	r3, #0
 c103b70:	0a000003 	beq	c103b84 <keypad_timeout_getchar+0x64>
 c103b74:	eb001093 	bl	c107dc8 <timer3_timeout>
 c103b78:	e1a03000 	mov	r3, r0
 c103b7c:	e3530000 	cmp	r3, #0
 c103b80:	0afffff6 	beq	c103b60 <keypad_timeout_getchar+0x40>
 c103b84:	eb00108f 	bl	c107dc8 <timer3_timeout>
 c103b88:	e1a03000 	mov	r3, r0
 c103b8c:	e3530000 	cmp	r3, #0
 c103b90:	0a000001 	beq	c103b9c <keypad_timeout_getchar+0x7c>
 c103b94:	e3a030fe 	mov	r3, #254	; 0xfe
 c103b98:	ea000017 	b	c103bfc <keypad_timeout_getchar+0xdc>
 c103b9c:	e3a0001e 	mov	r0, #30
 c103ba0:	eb000f98 	bl	c107a08 <sw_delay_ms>
 c103ba4:	ebffff1b 	bl	c103818 <keypad_scan>
 c103ba8:	e1a03000 	mov	r3, r0
 c103bac:	e54b300d 	strb	r3, [fp, #-13]
 c103bb0:	e1a00000 	nop			; (mov r0, r0)
 c103bb4:	e59f3050 	ldr	r3, [pc, #80]	; c103c0c <keypad_timeout_getchar+0xec>
 c103bb8:	e5933000 	ldr	r3, [r3]
 c103bbc:	e2033002 	and	r3, r3, #2
 c103bc0:	e3530000 	cmp	r3, #0
 c103bc4:	1a000003 	bne	c103bd8 <keypad_timeout_getchar+0xb8>
 c103bc8:	eb00107e 	bl	c107dc8 <timer3_timeout>
 c103bcc:	e1a03000 	mov	r3, r0
 c103bd0:	e3530000 	cmp	r3, #0
 c103bd4:	0afffff6 	beq	c103bb4 <keypad_timeout_getchar+0x94>
 c103bd8:	eb00107a 	bl	c107dc8 <timer3_timeout>
 c103bdc:	e1a03000 	mov	r3, r0
 c103be0:	e3530000 	cmp	r3, #0
 c103be4:	0a000001 	beq	c103bf0 <keypad_timeout_getchar+0xd0>
 c103be8:	e3a030fe 	mov	r3, #254	; 0xfe
 c103bec:	ea000002 	b	c103bfc <keypad_timeout_getchar+0xdc>
 c103bf0:	e3a00064 	mov	r0, #100	; 0x64
 c103bf4:	eb000f83 	bl	c107a08 <sw_delay_ms>
 c103bf8:	e55b300d 	ldrb	r3, [fp, #-13]
 c103bfc:	e1a00003 	mov	r0, r3
 c103c00:	e24bd00c 	sub	sp, fp, #12
 c103c04:	e89d6800 	ldm	sp, {fp, sp, lr}
 c103c08:	e12fff1e 	bx	lr
 c103c0c:	01d20044 	.word	0x01d20044

0c103c10 <keypad_open>:
 c103c10:	e1a0c00d 	mov	ip, sp
 c103c14:	e92dd800 	push	{fp, ip, lr, pc}
 c103c18:	e24cb004 	sub	fp, ip, #4
 c103c1c:	e24dd008 	sub	sp, sp, #8
 c103c20:	e50b0010 	str	r0, [fp, #-16]
 c103c24:	e59f3030 	ldr	r3, [pc, #48]	; c103c5c <keypad_open+0x4c>
 c103c28:	e51b2010 	ldr	r2, [fp, #-16]
 c103c2c:	e5832000 	str	r2, [r3]
 c103c30:	e59f3028 	ldr	r3, [pc, #40]	; c103c60 <keypad_open+0x50>
 c103c34:	e3a02401 	mov	r2, #16777216	; 0x1000000
 c103c38:	e5832000 	str	r2, [r3]
 c103c3c:	e59f3020 	ldr	r3, [pc, #32]	; c103c64 <keypad_open+0x54>
 c103c40:	e59f201c 	ldr	r2, [pc, #28]	; c103c64 <keypad_open+0x54>
 c103c44:	e5922000 	ldr	r2, [r2]
 c103c48:	e3c22405 	bic	r2, r2, #83886080	; 0x5000000
 c103c4c:	e5832000 	str	r2, [r3]
 c103c50:	e24bd00c 	sub	sp, fp, #12
 c103c54:	e89d6800 	ldm	sp, {fp, sp, lr}
 c103c58:	e12fff1e 	bx	lr
 c103c5c:	0c7fff80 	.word	0x0c7fff80
 c103c60:	01e00024 	.word	0x01e00024
 c103c64:	01e0000c 	.word	0x01e0000c

0c103c68 <keypad_close>:
 c103c68:	e1a0c00d 	mov	ip, sp
 c103c6c:	e92dd800 	push	{fp, ip, lr, pc}
 c103c70:	e24cb004 	sub	fp, ip, #4
 c103c74:	e59f3024 	ldr	r3, [pc, #36]	; c103ca0 <keypad_close+0x38>
 c103c78:	e59f2020 	ldr	r2, [pc, #32]	; c103ca0 <keypad_close+0x38>
 c103c7c:	e5922000 	ldr	r2, [r2]
 c103c80:	e3822401 	orr	r2, r2, #16777216	; 0x1000000
 c103c84:	e5832000 	str	r2, [r3]
 c103c88:	e59f3014 	ldr	r3, [pc, #20]	; c103ca4 <keypad_close+0x3c>
 c103c8c:	e59f2014 	ldr	r2, [pc, #20]	; c103ca8 <keypad_close+0x40>
 c103c90:	e5832000 	str	r2, [r3]
 c103c94:	e24bd00c 	sub	sp, fp, #12
 c103c98:	e89d6800 	ldm	sp, {fp, sp, lr}
 c103c9c:	e12fff1e 	bx	lr
 c103ca0:	01e0000c 	.word	0x01e0000c
 c103ca4:	0c7fff70 	.word	0x0c7fff70
 c103ca8:	0c107064 	.word	0x0c107064

0c103cac <keypad_init>:
 c103cac:	e1a0c00d 	mov	ip, sp
 c103cb0:	e92dd800 	push	{fp, ip, lr, pc}
 c103cb4:	e24cb004 	sub	fp, ip, #4
 c103cb8:	e3a0000a 	mov	r0, #10
 c103cbc:	eb00058c 	bl	c1052f4 <power_on>
 c103cc0:	e59f305c 	ldr	r3, [pc, #92]	; c103d24 <keypad_init+0x78>
 c103cc4:	e59f2058 	ldr	r2, [pc, #88]	; c103d24 <keypad_init+0x78>
 c103cc8:	e5922000 	ldr	r2, [r2]
 c103ccc:	e3822c01 	orr	r2, r2, #256	; 0x100
 c103cd0:	e5832000 	str	r2, [r3]
 c103cd4:	e59f304c 	ldr	r3, [pc, #76]	; c103d28 <keypad_init+0x7c>
 c103cd8:	e59f2048 	ldr	r2, [pc, #72]	; c103d28 <keypad_init+0x7c>
 c103cdc:	e5922000 	ldr	r2, [r2]
 c103ce0:	e382200c 	orr	r2, r2, #12
 c103ce4:	e5832000 	str	r2, [r3]
 c103ce8:	e59f303c 	ldr	r3, [pc, #60]	; c103d2c <keypad_init+0x80>
 c103cec:	e59f2038 	ldr	r2, [pc, #56]	; c103d2c <keypad_init+0x80>
 c103cf0:	e5922000 	ldr	r2, [r2]
 c103cf4:	e3c22002 	bic	r2, r2, #2
 c103cf8:	e5832000 	str	r2, [r3]
 c103cfc:	e59f302c 	ldr	r3, [pc, #44]	; c103d30 <keypad_init+0x84>
 c103d00:	e59f2028 	ldr	r2, [pc, #40]	; c103d30 <keypad_init+0x84>
 c103d04:	e5922000 	ldr	r2, [r2]
 c103d08:	e3c220f0 	bic	r2, r2, #240	; 0xf0
 c103d0c:	e3822020 	orr	r2, r2, #32
 c103d10:	e5832000 	str	r2, [r3]
 c103d14:	eb000e89 	bl	c107740 <timers_init>
 c103d18:	e24bd00c 	sub	sp, fp, #12
 c103d1c:	e89d6800 	ldm	sp, {fp, sp, lr}
 c103d20:	e12fff1e 	bx	lr
 c103d24:	01d20008 	.word	0x01d20008
 c103d28:	01d20040 	.word	0x01d20040
 c103d2c:	01d20048 	.word	0x01d20048
 c103d30:	01d20050 	.word	0x01d20050

0c103d34 <keypad_getchar>:
 c103d34:	e1a0c00d 	mov	ip, sp
 c103d38:	e92dd800 	push	{fp, ip, lr, pc}
 c103d3c:	e24cb004 	sub	fp, ip, #4
 c103d40:	e24dd008 	sub	sp, sp, #8
 c103d44:	e1a00000 	nop			; (mov r0, r0)
 c103d48:	e59f3054 	ldr	r3, [pc, #84]	; c103da4 <keypad_getchar+0x70>
 c103d4c:	e5933000 	ldr	r3, [r3]
 c103d50:	e2033002 	and	r3, r3, #2
 c103d54:	e3530000 	cmp	r3, #0
 c103d58:	1afffffa 	bne	c103d48 <keypad_getchar+0x14>
 c103d5c:	e3a0001e 	mov	r0, #30
 c103d60:	eb000f28 	bl	c107a08 <sw_delay_ms>
 c103d64:	ebfffeab 	bl	c103818 <keypad_scan>
 c103d68:	e1a03000 	mov	r3, r0
 c103d6c:	e54b300d 	strb	r3, [fp, #-13]
 c103d70:	e1a00000 	nop			; (mov r0, r0)
 c103d74:	e59f3028 	ldr	r3, [pc, #40]	; c103da4 <keypad_getchar+0x70>
 c103d78:	e5933000 	ldr	r3, [r3]
 c103d7c:	e2033002 	and	r3, r3, #2
 c103d80:	e3530000 	cmp	r3, #0
 c103d84:	0afffffa 	beq	c103d74 <keypad_getchar+0x40>
 c103d88:	e3a00064 	mov	r0, #100	; 0x64
 c103d8c:	eb000f1d 	bl	c107a08 <sw_delay_ms>
 c103d90:	e55b300d 	ldrb	r3, [fp, #-13]
 c103d94:	e1a00003 	mov	r0, r3
 c103d98:	e24bd00c 	sub	sp, fp, #12
 c103d9c:	e89d6800 	ldm	sp, {fp, sp, lr}
 c103da0:	e12fff1e 	bx	lr
 c103da4:	01d20044 	.word	0x01d20044

0c103da8 <lcd_init>:
 c103da8:	e1a0c00d 	mov	ip, sp
 c103dac:	e92dd800 	push	{fp, ip, lr, pc}
 c103db0:	e24cb004 	sub	fp, ip, #4
 c103db4:	e3a00006 	mov	r0, #6
 c103db8:	eb00054d 	bl	c1052f4 <power_on>
 c103dbc:	e59f3114 	ldr	r3, [pc, #276]	; c103ed8 <lcd_init+0x130>
 c103dc0:	e59f2114 	ldr	r2, [pc, #276]	; c103edc <lcd_init+0x134>
 c103dc4:	e5832000 	str	r2, [r3]
 c103dc8:	e59f3110 	ldr	r3, [pc, #272]	; c103ee0 <lcd_init+0x138>
 c103dcc:	e3a020ff 	mov	r2, #255	; 0xff
 c103dd0:	e5832000 	str	r2, [r3]
 c103dd4:	e59f3108 	ldr	r3, [pc, #264]	; c103ee4 <lcd_init+0x13c>
 c103dd8:	e59f2108 	ldr	r2, [pc, #264]	; c103ee8 <lcd_init+0x140>
 c103ddc:	e5832000 	str	r2, [r3]
 c103de0:	e59f3104 	ldr	r3, [pc, #260]	; c103eec <lcd_init+0x144>
 c103de4:	e59f2104 	ldr	r2, [pc, #260]	; c103ef0 <lcd_init+0x148>
 c103de8:	e5832000 	str	r2, [r3]
 c103dec:	e59f3100 	ldr	r3, [pc, #256]	; c103ef4 <lcd_init+0x14c>
 c103df0:	e59f2100 	ldr	r2, [pc, #256]	; c103ef8 <lcd_init+0x150>
 c103df4:	e5832000 	str	r2, [r3]
 c103df8:	e59f30fc 	ldr	r3, [pc, #252]	; c103efc <lcd_init+0x154>
 c103dfc:	e59f20fc 	ldr	r2, [pc, #252]	; c103f00 <lcd_init+0x158>
 c103e00:	e5832000 	str	r2, [r3]
 c103e04:	e59f30f8 	ldr	r3, [pc, #248]	; c103f04 <lcd_init+0x15c>
 c103e08:	e59f20f8 	ldr	r2, [pc, #248]	; c103f08 <lcd_init+0x160>
 c103e0c:	e5832000 	str	r2, [r3]
 c103e10:	e59f30f4 	ldr	r3, [pc, #244]	; c103f0c <lcd_init+0x164>
 c103e14:	e59f20f4 	ldr	r2, [pc, #244]	; c103f10 <lcd_init+0x168>
 c103e18:	e5832000 	str	r2, [r3]
 c103e1c:	e59f30f0 	ldr	r3, [pc, #240]	; c103f14 <lcd_init+0x16c>
 c103e20:	e59f20f0 	ldr	r2, [pc, #240]	; c103f18 <lcd_init+0x170>
 c103e24:	e5832000 	str	r2, [r3]
 c103e28:	e59f30ec 	ldr	r3, [pc, #236]	; c103f1c <lcd_init+0x174>
 c103e2c:	e59f20ec 	ldr	r2, [pc, #236]	; c103f20 <lcd_init+0x178>
 c103e30:	e5832000 	str	r2, [r3]
 c103e34:	e59f30e8 	ldr	r3, [pc, #232]	; c103f24 <lcd_init+0x17c>
 c103e38:	e59f20e8 	ldr	r2, [pc, #232]	; c103f28 <lcd_init+0x180>
 c103e3c:	e5832000 	str	r2, [r3]
 c103e40:	e59f30e4 	ldr	r3, [pc, #228]	; c103f2c <lcd_init+0x184>
 c103e44:	e3a02000 	mov	r2, #0
 c103e48:	e5832000 	str	r2, [r3]
 c103e4c:	e59f30dc 	ldr	r3, [pc, #220]	; c103f30 <lcd_init+0x188>
 c103e50:	e3a02000 	mov	r2, #0
 c103e54:	e5832000 	str	r2, [r3]
 c103e58:	e59f30d4 	ldr	r3, [pc, #212]	; c103f34 <lcd_init+0x18c>
 c103e5c:	e3a02000 	mov	r2, #0
 c103e60:	e5832000 	str	r2, [r3]
 c103e64:	e59f30cc 	ldr	r3, [pc, #204]	; c103f38 <lcd_init+0x190>
 c103e68:	e59f20cc 	ldr	r2, [pc, #204]	; c103f3c <lcd_init+0x194>
 c103e6c:	e5832000 	str	r2, [r3]
 c103e70:	e59f30c8 	ldr	r3, [pc, #200]	; c103f40 <lcd_init+0x198>
 c103e74:	e3a02000 	mov	r2, #0
 c103e78:	e5832000 	str	r2, [r3]
 c103e7c:	e59f30c0 	ldr	r3, [pc, #192]	; c103f44 <lcd_init+0x19c>
 c103e80:	e59f20c0 	ldr	r2, [pc, #192]	; c103f48 <lcd_init+0x1a0>
 c103e84:	e1a020a2 	lsr	r2, r2, #1
 c103e88:	e3822201 	orr	r2, r2, #268435456	; 0x10000000
 c103e8c:	e5832000 	str	r2, [r3]
 c103e90:	e59f20b4 	ldr	r2, [pc, #180]	; c103f4c <lcd_init+0x1a4>
 c103e94:	e59f30ac 	ldr	r3, [pc, #172]	; c103f48 <lcd_init+0x1a0>
 c103e98:	e2833c96 	add	r3, r3, #38400	; 0x9600
 c103e9c:	e3c334ff 	bic	r3, r3, #-16777216	; 0xff000000
 c103ea0:	e3c33503 	bic	r3, r3, #12582912	; 0xc00000
 c103ea4:	e1a030a3 	lsr	r3, r3, #1
 c103ea8:	e3833202 	orr	r3, r3, #536870912	; 0x20000000
 c103eac:	e5823000 	str	r3, [r2]
 c103eb0:	e59f3098 	ldr	r3, [pc, #152]	; c103f50 <lcd_init+0x1a8>
 c103eb4:	e3a02050 	mov	r2, #80	; 0x50
 c103eb8:	e5832000 	str	r2, [r3]
 c103ebc:	e3a0361f 	mov	r3, #32505856	; 0x1f00000
 c103ec0:	e59f208c 	ldr	r2, [pc, #140]	; c103f54 <lcd_init+0x1ac>
 c103ec4:	e5832000 	str	r2, [r3]
 c103ec8:	eb000031 	bl	c103f94 <lcd_off>
 c103ecc:	e24bd00c 	sub	sp, fp, #12
 c103ed0:	e89d6800 	ldm	sp, {fp, sp, lr}
 c103ed4:	e12fff1e 	bx	lr
 c103ed8:	01d2001c 	.word	0x01d2001c
 c103edc:	0000aaaa 	.word	0x0000aaaa
 c103ee0:	01d20024 	.word	0x01d20024
 c103ee4:	01f00044 	.word	0x01f00044
 c103ee8:	00012210 	.word	0x00012210
 c103eec:	01f00020 	.word	0x01f00020
 c103ef0:	0000a5a5 	.word	0x0000a5a5
 c103ef4:	01f00024 	.word	0x01f00024
 c103ef8:	0ba5da65 	.word	0x0ba5da65
 c103efc:	01f00028 	.word	0x01f00028
 c103f00:	000a5a5f 	.word	0x000a5a5f
 c103f04:	01f0002c 	.word	0x01f0002c
 c103f08:	00000d6b 	.word	0x00000d6b
 c103f0c:	01f00030 	.word	0x01f00030
 c103f10:	0eb7b5ed 	.word	0x0eb7b5ed
 c103f14:	01f00034 	.word	0x01f00034
 c103f18:	00007dbe 	.word	0x00007dbe
 c103f1c:	01f00038 	.word	0x01f00038
 c103f20:	0007ebdf 	.word	0x0007ebdf
 c103f24:	01f0003c 	.word	0x01f0003c
 c103f28:	07fdfbfe 	.word	0x07fdfbfe
 c103f2c:	01f00014 	.word	0x01f00014
 c103f30:	01f00018 	.word	0x01f00018
 c103f34:	01f0001c 	.word	0x01f0001c
 c103f38:	01f00004 	.word	0x01f00004
 c103f3c:	00013cef 	.word	0x00013cef
 c103f40:	01f00040 	.word	0x01f00040
 c103f44:	01f00008 	.word	0x01f00008
 c103f48:	0c10be08 	.word	0x0c10be08
 c103f4c:	01f0000c 	.word	0x01f0000c
 c103f50:	01f00010 	.word	0x01f00010
 c103f54:	0001c020 	.word	0x0001c020

0c103f58 <lcd_on>:
 c103f58:	e1a0c00d 	mov	ip, sp
 c103f5c:	e92dd800 	push	{fp, ip, lr, pc}
 c103f60:	e24cb004 	sub	fp, ip, #4
 c103f64:	e3a0361f 	mov	r3, #32505856	; 0x1f00000
 c103f68:	e3a0261f 	mov	r2, #32505856	; 0x1f00000
 c103f6c:	e5922000 	ldr	r2, [r2]
 c103f70:	e3822001 	orr	r2, r2, #1
 c103f74:	e5832000 	str	r2, [r3]
 c103f78:	e59f3010 	ldr	r3, [pc, #16]	; c103f90 <lcd_on+0x38>
 c103f7c:	e3a02001 	mov	r2, #1
 c103f80:	e5c32000 	strb	r2, [r3]
 c103f84:	e24bd00c 	sub	sp, fp, #12
 c103f88:	e89d6800 	ldm	sp, {fp, sp, lr}
 c103f8c:	e12fff1e 	bx	lr
 c103f90:	0c1154bc 	.word	0x0c1154bc

0c103f94 <lcd_off>:
 c103f94:	e1a0c00d 	mov	ip, sp
 c103f98:	e92dd800 	push	{fp, ip, lr, pc}
 c103f9c:	e24cb004 	sub	fp, ip, #4
 c103fa0:	e3a0361f 	mov	r3, #32505856	; 0x1f00000
 c103fa4:	e3a0261f 	mov	r2, #32505856	; 0x1f00000
 c103fa8:	e5922000 	ldr	r2, [r2]
 c103fac:	e3c22001 	bic	r2, r2, #1
 c103fb0:	e5832000 	str	r2, [r3]
 c103fb4:	e59f3010 	ldr	r3, [pc, #16]	; c103fcc <lcd_off+0x38>
 c103fb8:	e3a02000 	mov	r2, #0
 c103fbc:	e5c32000 	strb	r2, [r3]
 c103fc0:	e24bd00c 	sub	sp, fp, #12
 c103fc4:	e89d6800 	ldm	sp, {fp, sp, lr}
 c103fc8:	e12fff1e 	bx	lr
 c103fcc:	0c1154bc 	.word	0x0c1154bc

0c103fd0 <lcd_status>:
 c103fd0:	e1a0c00d 	mov	ip, sp
 c103fd4:	e92dd800 	push	{fp, ip, lr, pc}
 c103fd8:	e24cb004 	sub	fp, ip, #4
 c103fdc:	e59f3010 	ldr	r3, [pc, #16]	; c103ff4 <lcd_status+0x24>
 c103fe0:	e5d33000 	ldrb	r3, [r3]
 c103fe4:	e1a00003 	mov	r0, r3
 c103fe8:	e24bd00c 	sub	sp, fp, #12
 c103fec:	e89d6800 	ldm	sp, {fp, sp, lr}
 c103ff0:	e12fff1e 	bx	lr
 c103ff4:	0c1154bc 	.word	0x0c1154bc

0c103ff8 <lcd_clear>:
 c103ff8:	e1a0c00d 	mov	ip, sp
 c103ffc:	e92dd800 	push	{fp, ip, lr, pc}
 c104000:	e24cb004 	sub	fp, ip, #4
 c104004:	e24dd008 	sub	sp, sp, #8
 c104008:	e3a03000 	mov	r3, #0
 c10400c:	e50b3010 	str	r3, [fp, #-16]
 c104010:	ea000007 	b	c104034 <lcd_clear+0x3c>
 c104014:	e59f2034 	ldr	r2, [pc, #52]	; c104050 <lcd_clear+0x58>
 c104018:	e51b3010 	ldr	r3, [fp, #-16]
 c10401c:	e0823003 	add	r3, r2, r3
 c104020:	e3a02000 	mov	r2, #0
 c104024:	e5c32000 	strb	r2, [r3]
 c104028:	e51b3010 	ldr	r3, [fp, #-16]
 c10402c:	e2833001 	add	r3, r3, #1
 c104030:	e50b3010 	str	r3, [fp, #-16]
 c104034:	e51b2010 	ldr	r2, [fp, #-16]
 c104038:	e59f3014 	ldr	r3, [pc, #20]	; c104054 <lcd_clear+0x5c>
 c10403c:	e1520003 	cmp	r2, r3
 c104040:	9afffff3 	bls	c104014 <lcd_clear+0x1c>
 c104044:	e24bd00c 	sub	sp, fp, #12
 c104048:	e89d6800 	ldm	sp, {fp, sp, lr}
 c10404c:	e12fff1e 	bx	lr
 c104050:	0c10be08 	.word	0x0c10be08
 c104054:	000095ff 	.word	0x000095ff

0c104058 <lcd_putpixel>:
 c104058:	e1a0c00d 	mov	ip, sp
 c10405c:	e92dd800 	push	{fp, ip, lr, pc}
 c104060:	e24cb004 	sub	fp, ip, #4
 c104064:	e24dd010 	sub	sp, sp, #16
 c104068:	e1a03002 	mov	r3, r2
 c10406c:	e14b01b6 	strh	r0, [fp, #-22]	; 0xffffffea
 c104070:	e14b11b8 	strh	r1, [fp, #-24]	; 0xffffffe8
 c104074:	e54b3019 	strb	r3, [fp, #-25]	; 0xffffffe7
 c104078:	e15b31b6 	ldrh	r3, [fp, #-22]	; 0xffffffea
 c10407c:	e1a030a3 	lsr	r3, r3, #1
 c104080:	e1a03803 	lsl	r3, r3, #16
 c104084:	e1a02823 	lsr	r2, r3, #16
 c104088:	e15b31b8 	ldrh	r3, [fp, #-24]	; 0xffffffe8
 c10408c:	e1a01003 	mov	r1, r3
 c104090:	e1a01101 	lsl	r1, r1, #2
 c104094:	e0813003 	add	r3, r1, r3
 c104098:	e1a03283 	lsl	r3, r3, #5
 c10409c:	e1a03803 	lsl	r3, r3, #16
 c1040a0:	e1a03823 	lsr	r3, r3, #16
 c1040a4:	e0823003 	add	r3, r2, r3
 c1040a8:	e14b30be 	strh	r3, [fp, #-14]
 c1040ac:	e15b31b6 	ldrh	r3, [fp, #-22]	; 0xffffffea
 c1040b0:	e2033001 	and	r3, r3, #1
 c1040b4:	e3530000 	cmp	r3, #0
 c1040b8:	1a000001 	bne	c1040c4 <lcd_putpixel+0x6c>
 c1040bc:	e3a03004 	mov	r3, #4
 c1040c0:	ea000000 	b	c1040c8 <lcd_putpixel+0x70>
 c1040c4:	e3a03000 	mov	r3, #0
 c1040c8:	e54b300f 	strb	r3, [fp, #-15]
 c1040cc:	e15b30be 	ldrh	r3, [fp, #-14]
 c1040d0:	e59f2068 	ldr	r2, [pc, #104]	; c104140 <lcd_putpixel+0xe8>
 c1040d4:	e7d23003 	ldrb	r3, [r2, r3]
 c1040d8:	e54b3010 	strb	r3, [fp, #-16]
 c1040dc:	e55b300f 	ldrb	r3, [fp, #-15]
 c1040e0:	e3a0200f 	mov	r2, #15
 c1040e4:	e1a03312 	lsl	r3, r2, r3
 c1040e8:	e20330ff 	and	r3, r3, #255	; 0xff
 c1040ec:	e1e03003 	mvn	r3, r3
 c1040f0:	e20320ff 	and	r2, r3, #255	; 0xff
 c1040f4:	e55b3010 	ldrb	r3, [fp, #-16]
 c1040f8:	e0023003 	and	r3, r2, r3
 c1040fc:	e20330ff 	and	r3, r3, #255	; 0xff
 c104100:	e54b3010 	strb	r3, [fp, #-16]
 c104104:	e55b2019 	ldrb	r2, [fp, #-25]	; 0xffffffe7
 c104108:	e55b300f 	ldrb	r3, [fp, #-15]
 c10410c:	e1a03312 	lsl	r3, r2, r3
 c104110:	e20320ff 	and	r2, r3, #255	; 0xff
 c104114:	e55b3010 	ldrb	r3, [fp, #-16]
 c104118:	e1823003 	orr	r3, r2, r3
 c10411c:	e20330ff 	and	r3, r3, #255	; 0xff
 c104120:	e54b3010 	strb	r3, [fp, #-16]
 c104124:	e15b30be 	ldrh	r3, [fp, #-14]
 c104128:	e59f2010 	ldr	r2, [pc, #16]	; c104140 <lcd_putpixel+0xe8>
 c10412c:	e55b1010 	ldrb	r1, [fp, #-16]
 c104130:	e7c21003 	strb	r1, [r2, r3]
 c104134:	e24bd00c 	sub	sp, fp, #12
 c104138:	e89d6800 	ldm	sp, {fp, sp, lr}
 c10413c:	e12fff1e 	bx	lr
 c104140:	0c10be08 	.word	0x0c10be08

0c104144 <lcd_getpixel>:
 c104144:	e1a0c00d 	mov	ip, sp
 c104148:	e92dd800 	push	{fp, ip, lr, pc}
 c10414c:	e24cb004 	sub	fp, ip, #4
 c104150:	e24dd010 	sub	sp, sp, #16
 c104154:	e1a02000 	mov	r2, r0
 c104158:	e1a03001 	mov	r3, r1
 c10415c:	e14b21b6 	strh	r2, [fp, #-22]	; 0xffffffea
 c104160:	e14b31b8 	strh	r3, [fp, #-24]	; 0xffffffe8
 c104164:	e15b31b6 	ldrh	r3, [fp, #-22]	; 0xffffffea
 c104168:	e1a030a3 	lsr	r3, r3, #1
 c10416c:	e1a03803 	lsl	r3, r3, #16
 c104170:	e1a03823 	lsr	r3, r3, #16
 c104174:	e1a01003 	mov	r1, r3
 c104178:	e15b21b8 	ldrh	r2, [fp, #-24]	; 0xffffffe8
 c10417c:	e1a03002 	mov	r3, r2
 c104180:	e1a03103 	lsl	r3, r3, #2
 c104184:	e0833002 	add	r3, r3, r2
 c104188:	e1a03283 	lsl	r3, r3, #5
 c10418c:	e0813003 	add	r3, r1, r3
 c104190:	e59f2044 	ldr	r2, [pc, #68]	; c1041dc <lcd_getpixel+0x98>
 c104194:	e7d23003 	ldrb	r3, [r2, r3]
 c104198:	e54b300d 	strb	r3, [fp, #-13]
 c10419c:	e55b200d 	ldrb	r2, [fp, #-13]
 c1041a0:	e15b31b6 	ldrh	r3, [fp, #-22]	; 0xffffffea
 c1041a4:	e2033001 	and	r3, r3, #1
 c1041a8:	e3530000 	cmp	r3, #0
 c1041ac:	1a000001 	bne	c1041b8 <lcd_getpixel+0x74>
 c1041b0:	e3a03004 	mov	r3, #4
 c1041b4:	ea000000 	b	c1041bc <lcd_getpixel+0x78>
 c1041b8:	e3a03000 	mov	r3, #0
 c1041bc:	e1a03352 	asr	r3, r2, r3
 c1041c0:	e20330ff 	and	r3, r3, #255	; 0xff
 c1041c4:	e203300f 	and	r3, r3, #15
 c1041c8:	e20330ff 	and	r3, r3, #255	; 0xff
 c1041cc:	e1a00003 	mov	r0, r3
 c1041d0:	e24bd00c 	sub	sp, fp, #12
 c1041d4:	e89d6800 	ldm	sp, {fp, sp, lr}
 c1041d8:	e12fff1e 	bx	lr
 c1041dc:	0c10be08 	.word	0x0c10be08

0c1041e0 <lcd_draw_hline>:
 c1041e0:	e1a0c00d 	mov	ip, sp
 c1041e4:	e92dd800 	push	{fp, ip, lr, pc}
 c1041e8:	e24cb004 	sub	fp, ip, #4
 c1041ec:	e24dd010 	sub	sp, sp, #16
 c1041f0:	e14b01b6 	strh	r0, [fp, #-22]	; 0xffffffea
 c1041f4:	e14b11b8 	strh	r1, [fp, #-24]	; 0xffffffe8
 c1041f8:	e14b21ba 	strh	r2, [fp, #-26]	; 0xffffffe6
 c1041fc:	e54b301b 	strb	r3, [fp, #-27]	; 0xffffffe5
 c104200:	ea00003e 	b	c104300 <lcd_draw_hline+0x120>
 c104204:	e15b31b6 	ldrh	r3, [fp, #-22]	; 0xffffffea
 c104208:	e14b30be 	strh	r3, [fp, #-14]
 c10420c:	ea000034 	b	c1042e4 <lcd_draw_hline+0x104>
 c104210:	e15b30be 	ldrh	r3, [fp, #-14]
 c104214:	e1a030a3 	lsr	r3, r3, #1
 c104218:	e1a03803 	lsl	r3, r3, #16
 c10421c:	e1a03823 	lsr	r3, r3, #16
 c104220:	e1a01003 	mov	r1, r3
 c104224:	e15b21ba 	ldrh	r2, [fp, #-26]	; 0xffffffe6
 c104228:	e1a03002 	mov	r3, r2
 c10422c:	e1a03103 	lsl	r3, r3, #2
 c104230:	e0833002 	add	r3, r3, r2
 c104234:	e1a03283 	lsl	r3, r3, #5
 c104238:	e0811003 	add	r1, r1, r3
 c10423c:	e15b30be 	ldrh	r3, [fp, #-14]
 c104240:	e1a030a3 	lsr	r3, r3, #1
 c104244:	e1a03803 	lsl	r3, r3, #16
 c104248:	e1a03823 	lsr	r3, r3, #16
 c10424c:	e1a00003 	mov	r0, r3
 c104250:	e15b21ba 	ldrh	r2, [fp, #-26]	; 0xffffffe6
 c104254:	e1a03002 	mov	r3, r2
 c104258:	e1a03103 	lsl	r3, r3, #2
 c10425c:	e0833002 	add	r3, r3, r2
 c104260:	e1a03283 	lsl	r3, r3, #5
 c104264:	e0803003 	add	r3, r0, r3
 c104268:	e59f20c4 	ldr	r2, [pc, #196]	; c104334 <lcd_draw_hline+0x154>
 c10426c:	e7d23003 	ldrb	r3, [r2, r3]
 c104270:	e20320ff 	and	r2, r3, #255	; 0xff
 c104274:	e15b30be 	ldrh	r3, [fp, #-14]
 c104278:	e2033001 	and	r3, r3, #1
 c10427c:	e1a03103 	lsl	r3, r3, #2
 c104280:	e3a000f0 	mov	r0, #240	; 0xf0
 c104284:	e1a03350 	asr	r3, r0, r3
 c104288:	e20330ff 	and	r3, r3, #255	; 0xff
 c10428c:	e1e03003 	mvn	r3, r3
 c104290:	e20330ff 	and	r3, r3, #255	; 0xff
 c104294:	e0023003 	and	r3, r2, r3
 c104298:	e20320ff 	and	r2, r3, #255	; 0xff
 c10429c:	e55b001b 	ldrb	r0, [fp, #-27]	; 0xffffffe5
 c1042a0:	e15b30be 	ldrh	r3, [fp, #-14]
 c1042a4:	e2033001 	and	r3, r3, #1
 c1042a8:	e3530000 	cmp	r3, #0
 c1042ac:	1a000001 	bne	c1042b8 <lcd_draw_hline+0xd8>
 c1042b0:	e3a03004 	mov	r3, #4
 c1042b4:	ea000000 	b	c1042bc <lcd_draw_hline+0xdc>
 c1042b8:	e3a03000 	mov	r3, #0
 c1042bc:	e1a03310 	lsl	r3, r0, r3
 c1042c0:	e20330ff 	and	r3, r3, #255	; 0xff
 c1042c4:	e1823003 	orr	r3, r2, r3
 c1042c8:	e20330ff 	and	r3, r3, #255	; 0xff
 c1042cc:	e20320ff 	and	r2, r3, #255	; 0xff
 c1042d0:	e59f305c 	ldr	r3, [pc, #92]	; c104334 <lcd_draw_hline+0x154>
 c1042d4:	e7c32001 	strb	r2, [r3, r1]
 c1042d8:	e15b30be 	ldrh	r3, [fp, #-14]
 c1042dc:	e2833001 	add	r3, r3, #1
 c1042e0:	e14b30be 	strh	r3, [fp, #-14]
 c1042e4:	e15b20be 	ldrh	r2, [fp, #-14]
 c1042e8:	e15b31b8 	ldrh	r3, [fp, #-24]	; 0xffffffe8
 c1042ec:	e1520003 	cmp	r2, r3
 c1042f0:	9affffc6 	bls	c104210 <lcd_draw_hline+0x30>
 c1042f4:	e15b31ba 	ldrh	r3, [fp, #-26]	; 0xffffffe6
 c1042f8:	e2833001 	add	r3, r3, #1
 c1042fc:	e14b31ba 	strh	r3, [fp, #-26]	; 0xffffffe6
 c104300:	e1db30b4 	ldrh	r3, [fp, #4]
 c104304:	e3530000 	cmp	r3, #0
 c104308:	03a03000 	moveq	r3, #0
 c10430c:	13a03001 	movne	r3, #1
 c104310:	e20330ff 	and	r3, r3, #255	; 0xff
 c104314:	e1db20b4 	ldrh	r2, [fp, #4]
 c104318:	e2422001 	sub	r2, r2, #1
 c10431c:	e1cb20b4 	strh	r2, [fp, #4]
 c104320:	e3530000 	cmp	r3, #0
 c104324:	1affffb6 	bne	c104204 <lcd_draw_hline+0x24>
 c104328:	e24bd00c 	sub	sp, fp, #12
 c10432c:	e89d6800 	ldm	sp, {fp, sp, lr}
 c104330:	e12fff1e 	bx	lr
 c104334:	0c10be08 	.word	0x0c10be08

0c104338 <lcd_draw_vline>:
 c104338:	e1a0c00d 	mov	ip, sp
 c10433c:	e92dd800 	push	{fp, ip, lr, pc}
 c104340:	e24cb004 	sub	fp, ip, #4
 c104344:	e24dd010 	sub	sp, sp, #16
 c104348:	e14b01b6 	strh	r0, [fp, #-22]	; 0xffffffea
 c10434c:	e14b11b8 	strh	r1, [fp, #-24]	; 0xffffffe8
 c104350:	e14b21ba 	strh	r2, [fp, #-26]	; 0xffffffe6
 c104354:	e54b301b 	strb	r3, [fp, #-27]	; 0xffffffe5
 c104358:	ea00003e 	b	c104458 <lcd_draw_vline+0x120>
 c10435c:	e15b31b6 	ldrh	r3, [fp, #-22]	; 0xffffffea
 c104360:	e14b30be 	strh	r3, [fp, #-14]
 c104364:	ea000034 	b	c10443c <lcd_draw_vline+0x104>
 c104368:	e15b31ba 	ldrh	r3, [fp, #-26]	; 0xffffffe6
 c10436c:	e1a030a3 	lsr	r3, r3, #1
 c104370:	e1a03803 	lsl	r3, r3, #16
 c104374:	e1a03823 	lsr	r3, r3, #16
 c104378:	e1a01003 	mov	r1, r3
 c10437c:	e15b20be 	ldrh	r2, [fp, #-14]
 c104380:	e1a03002 	mov	r3, r2
 c104384:	e1a03103 	lsl	r3, r3, #2
 c104388:	e0833002 	add	r3, r3, r2
 c10438c:	e1a03283 	lsl	r3, r3, #5
 c104390:	e0811003 	add	r1, r1, r3
 c104394:	e15b31ba 	ldrh	r3, [fp, #-26]	; 0xffffffe6
 c104398:	e1a030a3 	lsr	r3, r3, #1
 c10439c:	e1a03803 	lsl	r3, r3, #16
 c1043a0:	e1a03823 	lsr	r3, r3, #16
 c1043a4:	e1a00003 	mov	r0, r3
 c1043a8:	e15b20be 	ldrh	r2, [fp, #-14]
 c1043ac:	e1a03002 	mov	r3, r2
 c1043b0:	e1a03103 	lsl	r3, r3, #2
 c1043b4:	e0833002 	add	r3, r3, r2
 c1043b8:	e1a03283 	lsl	r3, r3, #5
 c1043bc:	e0803003 	add	r3, r0, r3
 c1043c0:	e59f20c4 	ldr	r2, [pc, #196]	; c10448c <lcd_draw_vline+0x154>
 c1043c4:	e7d23003 	ldrb	r3, [r2, r3]
 c1043c8:	e20320ff 	and	r2, r3, #255	; 0xff
 c1043cc:	e15b31ba 	ldrh	r3, [fp, #-26]	; 0xffffffe6
 c1043d0:	e2033001 	and	r3, r3, #1
 c1043d4:	e1a03103 	lsl	r3, r3, #2
 c1043d8:	e3a000f0 	mov	r0, #240	; 0xf0
 c1043dc:	e1a03350 	asr	r3, r0, r3
 c1043e0:	e20330ff 	and	r3, r3, #255	; 0xff
 c1043e4:	e1e03003 	mvn	r3, r3
 c1043e8:	e20330ff 	and	r3, r3, #255	; 0xff
 c1043ec:	e0023003 	and	r3, r2, r3
 c1043f0:	e20320ff 	and	r2, r3, #255	; 0xff
 c1043f4:	e55b001b 	ldrb	r0, [fp, #-27]	; 0xffffffe5
 c1043f8:	e15b31ba 	ldrh	r3, [fp, #-26]	; 0xffffffe6
 c1043fc:	e2033001 	and	r3, r3, #1
 c104400:	e3530000 	cmp	r3, #0
 c104404:	1a000001 	bne	c104410 <lcd_draw_vline+0xd8>
 c104408:	e3a03004 	mov	r3, #4
 c10440c:	ea000000 	b	c104414 <lcd_draw_vline+0xdc>
 c104410:	e3a03000 	mov	r3, #0
 c104414:	e1a03310 	lsl	r3, r0, r3
 c104418:	e20330ff 	and	r3, r3, #255	; 0xff
 c10441c:	e1823003 	orr	r3, r2, r3
 c104420:	e20330ff 	and	r3, r3, #255	; 0xff
 c104424:	e20320ff 	and	r2, r3, #255	; 0xff
 c104428:	e59f305c 	ldr	r3, [pc, #92]	; c10448c <lcd_draw_vline+0x154>
 c10442c:	e7c32001 	strb	r2, [r3, r1]
 c104430:	e15b30be 	ldrh	r3, [fp, #-14]
 c104434:	e2833001 	add	r3, r3, #1
 c104438:	e14b30be 	strh	r3, [fp, #-14]
 c10443c:	e15b20be 	ldrh	r2, [fp, #-14]
 c104440:	e15b31b8 	ldrh	r3, [fp, #-24]	; 0xffffffe8
 c104444:	e1520003 	cmp	r2, r3
 c104448:	9affffc6 	bls	c104368 <lcd_draw_vline+0x30>
 c10444c:	e15b31ba 	ldrh	r3, [fp, #-26]	; 0xffffffe6
 c104450:	e2833001 	add	r3, r3, #1
 c104454:	e14b31ba 	strh	r3, [fp, #-26]	; 0xffffffe6
 c104458:	e1db30b4 	ldrh	r3, [fp, #4]
 c10445c:	e3530000 	cmp	r3, #0
 c104460:	03a03000 	moveq	r3, #0
 c104464:	13a03001 	movne	r3, #1
 c104468:	e20330ff 	and	r3, r3, #255	; 0xff
 c10446c:	e1db20b4 	ldrh	r2, [fp, #4]
 c104470:	e2422001 	sub	r2, r2, #1
 c104474:	e1cb20b4 	strh	r2, [fp, #4]
 c104478:	e3530000 	cmp	r3, #0
 c10447c:	1affffb6 	bne	c10435c <lcd_draw_vline+0x24>
 c104480:	e24bd00c 	sub	sp, fp, #12
 c104484:	e89d6800 	ldm	sp, {fp, sp, lr}
 c104488:	e12fff1e 	bx	lr
 c10448c:	0c10be08 	.word	0x0c10be08

0c104490 <lcd_draw_box>:
 c104490:	e1a0c00d 	mov	ip, sp
 c104494:	e92dd800 	push	{fp, ip, lr, pc}
 c104498:	e24cb004 	sub	fp, ip, #4
 c10449c:	e24dd010 	sub	sp, sp, #16
 c1044a0:	e14b00be 	strh	r0, [fp, #-14]
 c1044a4:	e14b11b0 	strh	r1, [fp, #-16]
 c1044a8:	e14b21b2 	strh	r2, [fp, #-18]	; 0xffffffee
 c1044ac:	e14b31b4 	strh	r3, [fp, #-20]	; 0xffffffec
 c1044b0:	ea000027 	b	c104554 <lcd_draw_box+0xc4>
 c1044b4:	e15b00be 	ldrh	r0, [fp, #-14]
 c1044b8:	e15b11b2 	ldrh	r1, [fp, #-18]	; 0xffffffee
 c1044bc:	e15b21b0 	ldrh	r2, [fp, #-16]
 c1044c0:	e5db3004 	ldrb	r3, [fp, #4]
 c1044c4:	e3a0c001 	mov	ip, #1
 c1044c8:	e58dc000 	str	ip, [sp]
 c1044cc:	ebffff43 	bl	c1041e0 <lcd_draw_hline>
 c1044d0:	e15b00be 	ldrh	r0, [fp, #-14]
 c1044d4:	e15b11b2 	ldrh	r1, [fp, #-18]	; 0xffffffee
 c1044d8:	e15b21b4 	ldrh	r2, [fp, #-20]	; 0xffffffec
 c1044dc:	e5db3004 	ldrb	r3, [fp, #4]
 c1044e0:	e3a0c001 	mov	ip, #1
 c1044e4:	e58dc000 	str	ip, [sp]
 c1044e8:	ebffff3c 	bl	c1041e0 <lcd_draw_hline>
 c1044ec:	e15b01b0 	ldrh	r0, [fp, #-16]
 c1044f0:	e15b11b4 	ldrh	r1, [fp, #-20]	; 0xffffffec
 c1044f4:	e15b20be 	ldrh	r2, [fp, #-14]
 c1044f8:	e5db3004 	ldrb	r3, [fp, #4]
 c1044fc:	e3a0c001 	mov	ip, #1
 c104500:	e58dc000 	str	ip, [sp]
 c104504:	ebffff8b 	bl	c104338 <lcd_draw_vline>
 c104508:	e15b01b0 	ldrh	r0, [fp, #-16]
 c10450c:	e15b11b4 	ldrh	r1, [fp, #-20]	; 0xffffffec
 c104510:	e15b21b2 	ldrh	r2, [fp, #-18]	; 0xffffffee
 c104514:	e5db3004 	ldrb	r3, [fp, #4]
 c104518:	e3a0c001 	mov	ip, #1
 c10451c:	e58dc000 	str	ip, [sp]
 c104520:	ebffff84 	bl	c104338 <lcd_draw_vline>
 c104524:	e15b30be 	ldrh	r3, [fp, #-14]
 c104528:	e2833001 	add	r3, r3, #1
 c10452c:	e14b30be 	strh	r3, [fp, #-14]
 c104530:	e15b31b2 	ldrh	r3, [fp, #-18]	; 0xffffffee
 c104534:	e2433001 	sub	r3, r3, #1
 c104538:	e14b31b2 	strh	r3, [fp, #-18]	; 0xffffffee
 c10453c:	e15b31b0 	ldrh	r3, [fp, #-16]
 c104540:	e2833001 	add	r3, r3, #1
 c104544:	e14b31b0 	strh	r3, [fp, #-16]
 c104548:	e15b31b4 	ldrh	r3, [fp, #-20]	; 0xffffffec
 c10454c:	e2433001 	sub	r3, r3, #1
 c104550:	e14b31b4 	strh	r3, [fp, #-20]	; 0xffffffec
 c104554:	e1db30b8 	ldrh	r3, [fp, #8]
 c104558:	e3530000 	cmp	r3, #0
 c10455c:	03a03000 	moveq	r3, #0
 c104560:	13a03001 	movne	r3, #1
 c104564:	e20330ff 	and	r3, r3, #255	; 0xff
 c104568:	e1db20b8 	ldrh	r2, [fp, #8]
 c10456c:	e2422001 	sub	r2, r2, #1
 c104570:	e1cb20b8 	strh	r2, [fp, #8]
 c104574:	e3530000 	cmp	r3, #0
 c104578:	1affffcd 	bne	c1044b4 <lcd_draw_box+0x24>
 c10457c:	e24bd00c 	sub	sp, fp, #12
 c104580:	e89d6800 	ldm	sp, {fp, sp, lr}
 c104584:	e12fff1e 	bx	lr

0c104588 <lcd_putchar>:
 c104588:	e1a0c00d 	mov	ip, sp
 c10458c:	e92dd800 	push	{fp, ip, lr, pc}
 c104590:	e24cb004 	sub	fp, ip, #4
 c104594:	e24dd010 	sub	sp, sp, #16
 c104598:	e14b01b6 	strh	r0, [fp, #-22]	; 0xffffffea
 c10459c:	e14b11b8 	strh	r1, [fp, #-24]	; 0xffffffe8
 c1045a0:	e54b2019 	strb	r2, [fp, #-25]	; 0xffffffe7
 c1045a4:	e54b301a 	strb	r3, [fp, #-26]	; 0xffffffe6
 c1045a8:	e55b301a 	ldrb	r3, [fp, #-26]	; 0xffffffe6
 c1045ac:	e1a03203 	lsl	r3, r3, #4
 c1045b0:	e1a02003 	mov	r2, r3
 c1045b4:	e59f3240 	ldr	r3, [pc, #576]	; c1047fc <lcd_putchar+0x274>
 c1045b8:	e0823003 	add	r3, r2, r3
 c1045bc:	e50b3014 	str	r3, [fp, #-20]	; 0xffffffec
 c1045c0:	e3a03000 	mov	r3, #0
 c1045c4:	e54b300d 	strb	r3, [fp, #-13]
 c1045c8:	ea000085 	b	c1047e4 <lcd_putchar+0x25c>
 c1045cc:	e3a03000 	mov	r3, #0
 c1045d0:	e54b300e 	strb	r3, [fp, #-14]
 c1045d4:	ea00007c 	b	c1047cc <lcd_putchar+0x244>
 c1045d8:	e55b300d 	ldrb	r3, [fp, #-13]
 c1045dc:	e51b2014 	ldr	r2, [fp, #-20]	; 0xffffffec
 c1045e0:	e0823003 	add	r3, r2, r3
 c1045e4:	e5d33000 	ldrb	r3, [r3]
 c1045e8:	e1a02003 	mov	r2, r3
 c1045ec:	e55b300e 	ldrb	r3, [fp, #-14]
 c1045f0:	e3a01080 	mov	r1, #128	; 0x80
 c1045f4:	e1a03351 	asr	r3, r1, r3
 c1045f8:	e0023003 	and	r3, r2, r3
 c1045fc:	e3530000 	cmp	r3, #0
 c104600:	0a00003e 	beq	c104700 <lcd_putchar+0x178>
 c104604:	e15b21b6 	ldrh	r2, [fp, #-22]	; 0xffffffea
 c104608:	e55b300e 	ldrb	r3, [fp, #-14]
 c10460c:	e0823003 	add	r3, r2, r3
 c104610:	e1a02fa3 	lsr	r2, r3, #31
 c104614:	e0823003 	add	r3, r2, r3
 c104618:	e1a030c3 	asr	r3, r3, #1
 c10461c:	e1a01003 	mov	r1, r3
 c104620:	e15b21b8 	ldrh	r2, [fp, #-24]	; 0xffffffe8
 c104624:	e55b300d 	ldrb	r3, [fp, #-13]
 c104628:	e0822003 	add	r2, r2, r3
 c10462c:	e1a03002 	mov	r3, r2
 c104630:	e1a03103 	lsl	r3, r3, #2
 c104634:	e0833002 	add	r3, r3, r2
 c104638:	e1a03283 	lsl	r3, r3, #5
 c10463c:	e0811003 	add	r1, r1, r3
 c104640:	e15b21b6 	ldrh	r2, [fp, #-22]	; 0xffffffea
 c104644:	e55b300e 	ldrb	r3, [fp, #-14]
 c104648:	e0823003 	add	r3, r2, r3
 c10464c:	e1a02fa3 	lsr	r2, r3, #31
 c104650:	e0823003 	add	r3, r2, r3
 c104654:	e1a030c3 	asr	r3, r3, #1
 c104658:	e1a00003 	mov	r0, r3
 c10465c:	e15b21b8 	ldrh	r2, [fp, #-24]	; 0xffffffe8
 c104660:	e55b300d 	ldrb	r3, [fp, #-13]
 c104664:	e0822003 	add	r2, r2, r3
 c104668:	e1a03002 	mov	r3, r2
 c10466c:	e1a03103 	lsl	r3, r3, #2
 c104670:	e0833002 	add	r3, r3, r2
 c104674:	e1a03283 	lsl	r3, r3, #5
 c104678:	e0803003 	add	r3, r0, r3
 c10467c:	e59f217c 	ldr	r2, [pc, #380]	; c104800 <lcd_putchar+0x278>
 c104680:	e7d23003 	ldrb	r3, [r2, r3]
 c104684:	e20320ff 	and	r2, r3, #255	; 0xff
 c104688:	e15b01b6 	ldrh	r0, [fp, #-22]	; 0xffffffea
 c10468c:	e55b300e 	ldrb	r3, [fp, #-14]
 c104690:	e0803003 	add	r3, r0, r3
 c104694:	e2033001 	and	r3, r3, #1
 c104698:	e1a03103 	lsl	r3, r3, #2
 c10469c:	e3a000f0 	mov	r0, #240	; 0xf0
 c1046a0:	e1a03350 	asr	r3, r0, r3
 c1046a4:	e20330ff 	and	r3, r3, #255	; 0xff
 c1046a8:	e1e03003 	mvn	r3, r3
 c1046ac:	e20330ff 	and	r3, r3, #255	; 0xff
 c1046b0:	e0023003 	and	r3, r2, r3
 c1046b4:	e20320ff 	and	r2, r3, #255	; 0xff
 c1046b8:	e55b0019 	ldrb	r0, [fp, #-25]	; 0xffffffe7
 c1046bc:	e15bc1b6 	ldrh	ip, [fp, #-22]	; 0xffffffea
 c1046c0:	e55b300e 	ldrb	r3, [fp, #-14]
 c1046c4:	e08c3003 	add	r3, ip, r3
 c1046c8:	e2033001 	and	r3, r3, #1
 c1046cc:	e3530000 	cmp	r3, #0
 c1046d0:	1a000001 	bne	c1046dc <lcd_putchar+0x154>
 c1046d4:	e3a03004 	mov	r3, #4
 c1046d8:	ea000000 	b	c1046e0 <lcd_putchar+0x158>
 c1046dc:	e3a03000 	mov	r3, #0
 c1046e0:	e1a03310 	lsl	r3, r0, r3
 c1046e4:	e20330ff 	and	r3, r3, #255	; 0xff
 c1046e8:	e1823003 	orr	r3, r2, r3
 c1046ec:	e20330ff 	and	r3, r3, #255	; 0xff
 c1046f0:	e20320ff 	and	r2, r3, #255	; 0xff
 c1046f4:	e59f3104 	ldr	r3, [pc, #260]	; c104800 <lcd_putchar+0x278>
 c1046f8:	e7c32001 	strb	r2, [r3, r1]
 c1046fc:	ea00002f 	b	c1047c0 <lcd_putchar+0x238>
 c104700:	e15b21b6 	ldrh	r2, [fp, #-22]	; 0xffffffea
 c104704:	e55b300e 	ldrb	r3, [fp, #-14]
 c104708:	e0823003 	add	r3, r2, r3
 c10470c:	e1a02fa3 	lsr	r2, r3, #31
 c104710:	e0823003 	add	r3, r2, r3
 c104714:	e1a030c3 	asr	r3, r3, #1
 c104718:	e1a01003 	mov	r1, r3
 c10471c:	e15b21b8 	ldrh	r2, [fp, #-24]	; 0xffffffe8
 c104720:	e55b300d 	ldrb	r3, [fp, #-13]
 c104724:	e0822003 	add	r2, r2, r3
 c104728:	e1a03002 	mov	r3, r2
 c10472c:	e1a03103 	lsl	r3, r3, #2
 c104730:	e0833002 	add	r3, r3, r2
 c104734:	e1a03283 	lsl	r3, r3, #5
 c104738:	e0811003 	add	r1, r1, r3
 c10473c:	e15b21b6 	ldrh	r2, [fp, #-22]	; 0xffffffea
 c104740:	e55b300e 	ldrb	r3, [fp, #-14]
 c104744:	e0823003 	add	r3, r2, r3
 c104748:	e1a02fa3 	lsr	r2, r3, #31
 c10474c:	e0823003 	add	r3, r2, r3
 c104750:	e1a030c3 	asr	r3, r3, #1
 c104754:	e1a00003 	mov	r0, r3
 c104758:	e15b21b8 	ldrh	r2, [fp, #-24]	; 0xffffffe8
 c10475c:	e55b300d 	ldrb	r3, [fp, #-13]
 c104760:	e0822003 	add	r2, r2, r3
 c104764:	e1a03002 	mov	r3, r2
 c104768:	e1a03103 	lsl	r3, r3, #2
 c10476c:	e0833002 	add	r3, r3, r2
 c104770:	e1a03283 	lsl	r3, r3, #5
 c104774:	e0803003 	add	r3, r0, r3
 c104778:	e59f2080 	ldr	r2, [pc, #128]	; c104800 <lcd_putchar+0x278>
 c10477c:	e7d23003 	ldrb	r3, [r2, r3]
 c104780:	e20320ff 	and	r2, r3, #255	; 0xff
 c104784:	e15b01b6 	ldrh	r0, [fp, #-22]	; 0xffffffea
 c104788:	e55b300e 	ldrb	r3, [fp, #-14]
 c10478c:	e0803003 	add	r3, r0, r3
 c104790:	e2033001 	and	r3, r3, #1
 c104794:	e1a03103 	lsl	r3, r3, #2
 c104798:	e3a000f0 	mov	r0, #240	; 0xf0
 c10479c:	e1a03350 	asr	r3, r0, r3
 c1047a0:	e20330ff 	and	r3, r3, #255	; 0xff
 c1047a4:	e1e03003 	mvn	r3, r3
 c1047a8:	e20330ff 	and	r3, r3, #255	; 0xff
 c1047ac:	e0023003 	and	r3, r2, r3
 c1047b0:	e20330ff 	and	r3, r3, #255	; 0xff
 c1047b4:	e20320ff 	and	r2, r3, #255	; 0xff
 c1047b8:	e59f3040 	ldr	r3, [pc, #64]	; c104800 <lcd_putchar+0x278>
 c1047bc:	e7c32001 	strb	r2, [r3, r1]
 c1047c0:	e55b300e 	ldrb	r3, [fp, #-14]
 c1047c4:	e2833001 	add	r3, r3, #1
 c1047c8:	e54b300e 	strb	r3, [fp, #-14]
 c1047cc:	e55b300e 	ldrb	r3, [fp, #-14]
 c1047d0:	e3530007 	cmp	r3, #7
 c1047d4:	9affff7f 	bls	c1045d8 <lcd_putchar+0x50>
 c1047d8:	e55b300d 	ldrb	r3, [fp, #-13]
 c1047dc:	e2833001 	add	r3, r3, #1
 c1047e0:	e54b300d 	strb	r3, [fp, #-13]
 c1047e4:	e55b300d 	ldrb	r3, [fp, #-13]
 c1047e8:	e353000f 	cmp	r3, #15
 c1047ec:	9affff76 	bls	c1045cc <lcd_putchar+0x44>
 c1047f0:	e24bd00c 	sub	sp, fp, #12
 c1047f4:	e89d6800 	ldm	sp, {fp, sp, lr}
 c1047f8:	e12fff1e 	bx	lr
 c1047fc:	0c10adec 	.word	0x0c10adec
 c104800:	0c10be08 	.word	0x0c10be08

0c104804 <lcd_puts>:
 c104804:	e1a0c00d 	mov	ip, sp
 c104808:	e92dd800 	push	{fp, ip, lr, pc}
 c10480c:	e24cb004 	sub	fp, ip, #4
 c104810:	e24dd010 	sub	sp, sp, #16
 c104814:	e50b3018 	str	r3, [fp, #-24]	; 0xffffffe8
 c104818:	e14b00be 	strh	r0, [fp, #-14]
 c10481c:	e14b11b0 	strh	r1, [fp, #-16]
 c104820:	e1a03002 	mov	r3, r2
 c104824:	e54b3011 	strb	r3, [fp, #-17]	; 0xffffffef
 c104828:	ea00000b 	b	c10485c <lcd_puts+0x58>
 c10482c:	e51b3018 	ldr	r3, [fp, #-24]	; 0xffffffe8
 c104830:	e5d33000 	ldrb	r3, [r3]
 c104834:	e15b00be 	ldrh	r0, [fp, #-14]
 c104838:	e15b11b0 	ldrh	r1, [fp, #-16]
 c10483c:	e55b2011 	ldrb	r2, [fp, #-17]	; 0xffffffef
 c104840:	ebffff50 	bl	c104588 <lcd_putchar>
 c104844:	e51b3018 	ldr	r3, [fp, #-24]	; 0xffffffe8
 c104848:	e2833001 	add	r3, r3, #1
 c10484c:	e50b3018 	str	r3, [fp, #-24]	; 0xffffffe8
 c104850:	e15b30be 	ldrh	r3, [fp, #-14]
 c104854:	e2833008 	add	r3, r3, #8
 c104858:	e14b30be 	strh	r3, [fp, #-14]
 c10485c:	e51b3018 	ldr	r3, [fp, #-24]	; 0xffffffe8
 c104860:	e5d33000 	ldrb	r3, [r3]
 c104864:	e3530000 	cmp	r3, #0
 c104868:	1affffef 	bne	c10482c <lcd_puts+0x28>
 c10486c:	e24bd00c 	sub	sp, fp, #12
 c104870:	e89d6800 	ldm	sp, {fp, sp, lr}
 c104874:	e12fff1e 	bx	lr

0c104878 <lcd_putint>:
 c104878:	e1a0c00d 	mov	ip, sp
 c10487c:	e92dd800 	push	{fp, ip, lr, pc}
 c104880:	e24cb004 	sub	fp, ip, #4
 c104884:	e24dd018 	sub	sp, sp, #24
 c104888:	e50b3020 	str	r3, [fp, #-32]	; 0xffffffe0
 c10488c:	e14b01b6 	strh	r0, [fp, #-22]	; 0xffffffea
 c104890:	e14b11b8 	strh	r1, [fp, #-24]	; 0xffffffe8
 c104894:	e1a03002 	mov	r3, r2
 c104898:	e54b3019 	strb	r3, [fp, #-25]	; 0xffffffe7
 c10489c:	e59f3148 	ldr	r3, [pc, #328]	; c1049ec <lcd_putint+0x174>
 c1048a0:	e50b3010 	str	r3, [fp, #-16]
 c1048a4:	e51b3010 	ldr	r3, [fp, #-16]
 c1048a8:	e3a02000 	mov	r2, #0
 c1048ac:	e5c32000 	strb	r2, [r3]
 c1048b0:	e51b3020 	ldr	r3, [fp, #-32]	; 0xffffffe0
 c1048b4:	e3530000 	cmp	r3, #0
 c1048b8:	ba00001d 	blt	c104934 <lcd_putint+0xbc>
 c1048bc:	e51b3010 	ldr	r3, [fp, #-16]
 c1048c0:	e2433001 	sub	r3, r3, #1
 c1048c4:	e50b3010 	str	r3, [fp, #-16]
 c1048c8:	e51b1020 	ldr	r1, [fp, #-32]	; 0xffffffe0
 c1048cc:	e59f311c 	ldr	r3, [pc, #284]	; c1049f0 <lcd_putint+0x178>
 c1048d0:	e0c32391 	smull	r2, r3, r1, r3
 c1048d4:	e1a02143 	asr	r2, r3, #2
 c1048d8:	e1a03fc1 	asr	r3, r1, #31
 c1048dc:	e0632002 	rsb	r2, r3, r2
 c1048e0:	e1a03002 	mov	r3, r2
 c1048e4:	e1a03103 	lsl	r3, r3, #2
 c1048e8:	e0833002 	add	r3, r3, r2
 c1048ec:	e1a03083 	lsl	r3, r3, #1
 c1048f0:	e0632001 	rsb	r2, r3, r1
 c1048f4:	e20230ff 	and	r3, r2, #255	; 0xff
 c1048f8:	e2833030 	add	r3, r3, #48	; 0x30
 c1048fc:	e20320ff 	and	r2, r3, #255	; 0xff
 c104900:	e51b3010 	ldr	r3, [fp, #-16]
 c104904:	e5c32000 	strb	r2, [r3]
 c104908:	e51b3020 	ldr	r3, [fp, #-32]	; 0xffffffe0
 c10490c:	e59f20dc 	ldr	r2, [pc, #220]	; c1049f0 <lcd_putint+0x178>
 c104910:	e0c21293 	smull	r1, r2, r3, r2
 c104914:	e1a02142 	asr	r2, r2, #2
 c104918:	e1a03fc3 	asr	r3, r3, #31
 c10491c:	e0633002 	rsb	r3, r3, r2
 c104920:	e50b3020 	str	r3, [fp, #-32]	; 0xffffffe0
 c104924:	e51b3020 	ldr	r3, [fp, #-32]	; 0xffffffe0
 c104928:	e3530000 	cmp	r3, #0
 c10492c:	1affffe2 	bne	c1048bc <lcd_putint+0x44>
 c104930:	ea000022 	b	c1049c0 <lcd_putint+0x148>
 c104934:	e51b3010 	ldr	r3, [fp, #-16]
 c104938:	e2433001 	sub	r3, r3, #1
 c10493c:	e50b3010 	str	r3, [fp, #-16]
 c104940:	e51b1020 	ldr	r1, [fp, #-32]	; 0xffffffe0
 c104944:	e59f30a4 	ldr	r3, [pc, #164]	; c1049f0 <lcd_putint+0x178>
 c104948:	e0c32391 	smull	r2, r3, r1, r3
 c10494c:	e1a02143 	asr	r2, r3, #2
 c104950:	e1a03fc1 	asr	r3, r1, #31
 c104954:	e0632002 	rsb	r2, r3, r2
 c104958:	e1a03002 	mov	r3, r2
 c10495c:	e1a03103 	lsl	r3, r3, #2
 c104960:	e0833002 	add	r3, r3, r2
 c104964:	e1a03083 	lsl	r3, r3, #1
 c104968:	e0632001 	rsb	r2, r3, r1
 c10496c:	e20230ff 	and	r3, r2, #255	; 0xff
 c104970:	e2633030 	rsb	r3, r3, #48	; 0x30
 c104974:	e20320ff 	and	r2, r3, #255	; 0xff
 c104978:	e51b3010 	ldr	r3, [fp, #-16]
 c10497c:	e5c32000 	strb	r2, [r3]
 c104980:	e51b3020 	ldr	r3, [fp, #-32]	; 0xffffffe0
 c104984:	e59f2064 	ldr	r2, [pc, #100]	; c1049f0 <lcd_putint+0x178>
 c104988:	e0c21293 	smull	r1, r2, r3, r2
 c10498c:	e1a02142 	asr	r2, r2, #2
 c104990:	e1a03fc3 	asr	r3, r3, #31
 c104994:	e0633002 	rsb	r3, r3, r2
 c104998:	e50b3020 	str	r3, [fp, #-32]	; 0xffffffe0
 c10499c:	e51b3020 	ldr	r3, [fp, #-32]	; 0xffffffe0
 c1049a0:	e3530000 	cmp	r3, #0
 c1049a4:	1affffe2 	bne	c104934 <lcd_putint+0xbc>
 c1049a8:	e51b3010 	ldr	r3, [fp, #-16]
 c1049ac:	e2433001 	sub	r3, r3, #1
 c1049b0:	e50b3010 	str	r3, [fp, #-16]
 c1049b4:	e51b3010 	ldr	r3, [fp, #-16]
 c1049b8:	e3a0202d 	mov	r2, #45	; 0x2d
 c1049bc:	e5c32000 	strb	r2, [r3]
 c1049c0:	e15b11b6 	ldrh	r1, [fp, #-22]	; 0xffffffea
 c1049c4:	e15b21b8 	ldrh	r2, [fp, #-24]	; 0xffffffe8
 c1049c8:	e55b3019 	ldrb	r3, [fp, #-25]	; 0xffffffe7
 c1049cc:	e1a00001 	mov	r0, r1
 c1049d0:	e1a01002 	mov	r1, r2
 c1049d4:	e1a02003 	mov	r2, r3
 c1049d8:	e51b3010 	ldr	r3, [fp, #-16]
 c1049dc:	ebffff88 	bl	c104804 <lcd_puts>
 c1049e0:	e24bd00c 	sub	sp, fp, #12
 c1049e4:	e89d6800 	ldm	sp, {fp, sp, lr}
 c1049e8:	e12fff1e 	bx	lr
 c1049ec:	0c1154ef 	.word	0x0c1154ef
 c1049f0:	66666667 	.word	0x66666667

0c1049f4 <lcd_puthex>:
 c1049f4:	e1a0c00d 	mov	ip, sp
 c1049f8:	e92dd800 	push	{fp, ip, lr, pc}
 c1049fc:	e24cb004 	sub	fp, ip, #4
 c104a00:	e24dd018 	sub	sp, sp, #24
 c104a04:	e50b3020 	str	r3, [fp, #-32]	; 0xffffffe0
 c104a08:	e14b01b6 	strh	r0, [fp, #-22]	; 0xffffffea
 c104a0c:	e14b11b8 	strh	r1, [fp, #-24]	; 0xffffffe8
 c104a10:	e1a03002 	mov	r3, r2
 c104a14:	e54b3019 	strb	r3, [fp, #-25]	; 0xffffffe7
 c104a18:	e59f30b0 	ldr	r3, [pc, #176]	; c104ad0 <lcd_puthex+0xdc>
 c104a1c:	e50b3010 	str	r3, [fp, #-16]
 c104a20:	e51b3010 	ldr	r3, [fp, #-16]
 c104a24:	e3a02000 	mov	r2, #0
 c104a28:	e5c32000 	strb	r2, [r3]
 c104a2c:	e51b3020 	ldr	r3, [fp, #-32]	; 0xffffffe0
 c104a30:	e20330ff 	and	r3, r3, #255	; 0xff
 c104a34:	e203300f 	and	r3, r3, #15
 c104a38:	e54b3011 	strb	r3, [fp, #-17]	; 0xffffffef
 c104a3c:	e55b3011 	ldrb	r3, [fp, #-17]	; 0xffffffef
 c104a40:	e3530009 	cmp	r3, #9
 c104a44:	8a000008 	bhi	c104a6c <lcd_puthex+0x78>
 c104a48:	e51b3010 	ldr	r3, [fp, #-16]
 c104a4c:	e2433001 	sub	r3, r3, #1
 c104a50:	e50b3010 	str	r3, [fp, #-16]
 c104a54:	e55b3011 	ldrb	r3, [fp, #-17]	; 0xffffffef
 c104a58:	e2833030 	add	r3, r3, #48	; 0x30
 c104a5c:	e20320ff 	and	r2, r3, #255	; 0xff
 c104a60:	e51b3010 	ldr	r3, [fp, #-16]
 c104a64:	e5c32000 	strb	r2, [r3]
 c104a68:	ea000007 	b	c104a8c <lcd_puthex+0x98>
 c104a6c:	e51b3010 	ldr	r3, [fp, #-16]
 c104a70:	e2433001 	sub	r3, r3, #1
 c104a74:	e50b3010 	str	r3, [fp, #-16]
 c104a78:	e55b3011 	ldrb	r3, [fp, #-17]	; 0xffffffef
 c104a7c:	e2833057 	add	r3, r3, #87	; 0x57
 c104a80:	e20320ff 	and	r2, r3, #255	; 0xff
 c104a84:	e51b3010 	ldr	r3, [fp, #-16]
 c104a88:	e5c32000 	strb	r2, [r3]
 c104a8c:	e51b3020 	ldr	r3, [fp, #-32]	; 0xffffffe0
 c104a90:	e1a03223 	lsr	r3, r3, #4
 c104a94:	e50b3020 	str	r3, [fp, #-32]	; 0xffffffe0
 c104a98:	e51b3020 	ldr	r3, [fp, #-32]	; 0xffffffe0
 c104a9c:	e3530000 	cmp	r3, #0
 c104aa0:	1affffe1 	bne	c104a2c <lcd_puthex+0x38>
 c104aa4:	e15b11b6 	ldrh	r1, [fp, #-22]	; 0xffffffea
 c104aa8:	e15b21b8 	ldrh	r2, [fp, #-24]	; 0xffffffe8
 c104aac:	e55b3019 	ldrb	r3, [fp, #-25]	; 0xffffffe7
 c104ab0:	e1a00001 	mov	r0, r1
 c104ab4:	e1a01002 	mov	r1, r2
 c104ab8:	e1a02003 	mov	r2, r3
 c104abc:	e51b3010 	ldr	r3, [fp, #-16]
 c104ac0:	ebffff4f 	bl	c104804 <lcd_puts>
 c104ac4:	e24bd00c 	sub	sp, fp, #12
 c104ac8:	e89d6800 	ldm	sp, {fp, sp, lr}
 c104acc:	e12fff1e 	bx	lr
 c104ad0:	0c1154e0 	.word	0x0c1154e0

0c104ad4 <lcd_putchar_x2>:
 c104ad4:	e1a0c00d 	mov	ip, sp
 c104ad8:	e92dd800 	push	{fp, ip, lr, pc}
 c104adc:	e24cb004 	sub	fp, ip, #4
 c104ae0:	e24dd010 	sub	sp, sp, #16
 c104ae4:	e14b01b6 	strh	r0, [fp, #-22]	; 0xffffffea
 c104ae8:	e14b11b8 	strh	r1, [fp, #-24]	; 0xffffffe8
 c104aec:	e54b2019 	strb	r2, [fp, #-25]	; 0xffffffe7
 c104af0:	e54b301a 	strb	r3, [fp, #-26]	; 0xffffffe6
 c104af4:	e55b301a 	ldrb	r3, [fp, #-26]	; 0xffffffe6
 c104af8:	e1a03203 	lsl	r3, r3, #4
 c104afc:	e1a02003 	mov	r2, r3
 c104b00:	e59f3250 	ldr	r3, [pc, #592]	; c104d58 <lcd_putchar_x2+0x284>
 c104b04:	e0823003 	add	r3, r2, r3
 c104b08:	e50b3014 	str	r3, [fp, #-20]	; 0xffffffec
 c104b0c:	e3a03000 	mov	r3, #0
 c104b10:	e54b300d 	strb	r3, [fp, #-13]
 c104b14:	ea000089 	b	c104d40 <lcd_putchar_x2+0x26c>
 c104b18:	e3a03000 	mov	r3, #0
 c104b1c:	e54b300e 	strb	r3, [fp, #-14]
 c104b20:	ea000080 	b	c104d28 <lcd_putchar_x2+0x254>
 c104b24:	e55b300d 	ldrb	r3, [fp, #-13]
 c104b28:	e1a030a3 	lsr	r3, r3, #1
 c104b2c:	e20330ff 	and	r3, r3, #255	; 0xff
 c104b30:	e51b2014 	ldr	r2, [fp, #-20]	; 0xffffffec
 c104b34:	e0823003 	add	r3, r2, r3
 c104b38:	e5d33000 	ldrb	r3, [r3]
 c104b3c:	e1a02003 	mov	r2, r3
 c104b40:	e55b300e 	ldrb	r3, [fp, #-14]
 c104b44:	e1a030a3 	lsr	r3, r3, #1
 c104b48:	e20330ff 	and	r3, r3, #255	; 0xff
 c104b4c:	e3a01080 	mov	r1, #128	; 0x80
 c104b50:	e1a03351 	asr	r3, r1, r3
 c104b54:	e0023003 	and	r3, r2, r3
 c104b58:	e3530000 	cmp	r3, #0
 c104b5c:	0a00003e 	beq	c104c5c <lcd_putchar_x2+0x188>
 c104b60:	e15b21b6 	ldrh	r2, [fp, #-22]	; 0xffffffea
 c104b64:	e55b300e 	ldrb	r3, [fp, #-14]
 c104b68:	e0823003 	add	r3, r2, r3
 c104b6c:	e1a02fa3 	lsr	r2, r3, #31
 c104b70:	e0823003 	add	r3, r2, r3
 c104b74:	e1a030c3 	asr	r3, r3, #1
 c104b78:	e1a01003 	mov	r1, r3
 c104b7c:	e15b21b8 	ldrh	r2, [fp, #-24]	; 0xffffffe8
 c104b80:	e55b300d 	ldrb	r3, [fp, #-13]
 c104b84:	e0822003 	add	r2, r2, r3
 c104b88:	e1a03002 	mov	r3, r2
 c104b8c:	e1a03103 	lsl	r3, r3, #2
 c104b90:	e0833002 	add	r3, r3, r2
 c104b94:	e1a03283 	lsl	r3, r3, #5
 c104b98:	e0811003 	add	r1, r1, r3
 c104b9c:	e15b21b6 	ldrh	r2, [fp, #-22]	; 0xffffffea
 c104ba0:	e55b300e 	ldrb	r3, [fp, #-14]
 c104ba4:	e0823003 	add	r3, r2, r3
 c104ba8:	e1a02fa3 	lsr	r2, r3, #31
 c104bac:	e0823003 	add	r3, r2, r3
 c104bb0:	e1a030c3 	asr	r3, r3, #1
 c104bb4:	e1a00003 	mov	r0, r3
 c104bb8:	e15b21b8 	ldrh	r2, [fp, #-24]	; 0xffffffe8
 c104bbc:	e55b300d 	ldrb	r3, [fp, #-13]
 c104bc0:	e0822003 	add	r2, r2, r3
 c104bc4:	e1a03002 	mov	r3, r2
 c104bc8:	e1a03103 	lsl	r3, r3, #2
 c104bcc:	e0833002 	add	r3, r3, r2
 c104bd0:	e1a03283 	lsl	r3, r3, #5
 c104bd4:	e0803003 	add	r3, r0, r3
 c104bd8:	e59f217c 	ldr	r2, [pc, #380]	; c104d5c <lcd_putchar_x2+0x288>
 c104bdc:	e7d23003 	ldrb	r3, [r2, r3]
 c104be0:	e20320ff 	and	r2, r3, #255	; 0xff
 c104be4:	e15b01b6 	ldrh	r0, [fp, #-22]	; 0xffffffea
 c104be8:	e55b300e 	ldrb	r3, [fp, #-14]
 c104bec:	e0803003 	add	r3, r0, r3
 c104bf0:	e2033001 	and	r3, r3, #1
 c104bf4:	e1a03103 	lsl	r3, r3, #2
 c104bf8:	e3a000f0 	mov	r0, #240	; 0xf0
 c104bfc:	e1a03350 	asr	r3, r0, r3
 c104c00:	e20330ff 	and	r3, r3, #255	; 0xff
 c104c04:	e1e03003 	mvn	r3, r3
 c104c08:	e20330ff 	and	r3, r3, #255	; 0xff
 c104c0c:	e0023003 	and	r3, r2, r3
 c104c10:	e20320ff 	and	r2, r3, #255	; 0xff
 c104c14:	e55b0019 	ldrb	r0, [fp, #-25]	; 0xffffffe7
 c104c18:	e15bc1b6 	ldrh	ip, [fp, #-22]	; 0xffffffea
 c104c1c:	e55b300e 	ldrb	r3, [fp, #-14]
 c104c20:	e08c3003 	add	r3, ip, r3
 c104c24:	e2033001 	and	r3, r3, #1
 c104c28:	e3530000 	cmp	r3, #0
 c104c2c:	1a000001 	bne	c104c38 <lcd_putchar_x2+0x164>
 c104c30:	e3a03004 	mov	r3, #4
 c104c34:	ea000000 	b	c104c3c <lcd_putchar_x2+0x168>
 c104c38:	e3a03000 	mov	r3, #0
 c104c3c:	e1a03310 	lsl	r3, r0, r3
 c104c40:	e20330ff 	and	r3, r3, #255	; 0xff
 c104c44:	e1823003 	orr	r3, r2, r3
 c104c48:	e20330ff 	and	r3, r3, #255	; 0xff
 c104c4c:	e20320ff 	and	r2, r3, #255	; 0xff
 c104c50:	e59f3104 	ldr	r3, [pc, #260]	; c104d5c <lcd_putchar_x2+0x288>
 c104c54:	e7c32001 	strb	r2, [r3, r1]
 c104c58:	ea00002f 	b	c104d1c <lcd_putchar_x2+0x248>
 c104c5c:	e15b21b6 	ldrh	r2, [fp, #-22]	; 0xffffffea
 c104c60:	e55b300e 	ldrb	r3, [fp, #-14]
 c104c64:	e0823003 	add	r3, r2, r3
 c104c68:	e1a02fa3 	lsr	r2, r3, #31
 c104c6c:	e0823003 	add	r3, r2, r3
 c104c70:	e1a030c3 	asr	r3, r3, #1
 c104c74:	e1a01003 	mov	r1, r3
 c104c78:	e15b21b8 	ldrh	r2, [fp, #-24]	; 0xffffffe8
 c104c7c:	e55b300d 	ldrb	r3, [fp, #-13]
 c104c80:	e0822003 	add	r2, r2, r3
 c104c84:	e1a03002 	mov	r3, r2
 c104c88:	e1a03103 	lsl	r3, r3, #2
 c104c8c:	e0833002 	add	r3, r3, r2
 c104c90:	e1a03283 	lsl	r3, r3, #5
 c104c94:	e0811003 	add	r1, r1, r3
 c104c98:	e15b21b6 	ldrh	r2, [fp, #-22]	; 0xffffffea
 c104c9c:	e55b300e 	ldrb	r3, [fp, #-14]
 c104ca0:	e0823003 	add	r3, r2, r3
 c104ca4:	e1a02fa3 	lsr	r2, r3, #31
 c104ca8:	e0823003 	add	r3, r2, r3
 c104cac:	e1a030c3 	asr	r3, r3, #1
 c104cb0:	e1a00003 	mov	r0, r3
 c104cb4:	e15b21b8 	ldrh	r2, [fp, #-24]	; 0xffffffe8
 c104cb8:	e55b300d 	ldrb	r3, [fp, #-13]
 c104cbc:	e0822003 	add	r2, r2, r3
 c104cc0:	e1a03002 	mov	r3, r2
 c104cc4:	e1a03103 	lsl	r3, r3, #2
 c104cc8:	e0833002 	add	r3, r3, r2
 c104ccc:	e1a03283 	lsl	r3, r3, #5
 c104cd0:	e0803003 	add	r3, r0, r3
 c104cd4:	e59f2080 	ldr	r2, [pc, #128]	; c104d5c <lcd_putchar_x2+0x288>
 c104cd8:	e7d23003 	ldrb	r3, [r2, r3]
 c104cdc:	e20320ff 	and	r2, r3, #255	; 0xff
 c104ce0:	e15b01b6 	ldrh	r0, [fp, #-22]	; 0xffffffea
 c104ce4:	e55b300e 	ldrb	r3, [fp, #-14]
 c104ce8:	e0803003 	add	r3, r0, r3
 c104cec:	e2033001 	and	r3, r3, #1
 c104cf0:	e1a03103 	lsl	r3, r3, #2
 c104cf4:	e3a000f0 	mov	r0, #240	; 0xf0
 c104cf8:	e1a03350 	asr	r3, r0, r3
 c104cfc:	e20330ff 	and	r3, r3, #255	; 0xff
 c104d00:	e1e03003 	mvn	r3, r3
 c104d04:	e20330ff 	and	r3, r3, #255	; 0xff
 c104d08:	e0023003 	and	r3, r2, r3
 c104d0c:	e20330ff 	and	r3, r3, #255	; 0xff
 c104d10:	e20320ff 	and	r2, r3, #255	; 0xff
 c104d14:	e59f3040 	ldr	r3, [pc, #64]	; c104d5c <lcd_putchar_x2+0x288>
 c104d18:	e7c32001 	strb	r2, [r3, r1]
 c104d1c:	e55b300e 	ldrb	r3, [fp, #-14]
 c104d20:	e2833001 	add	r3, r3, #1
 c104d24:	e54b300e 	strb	r3, [fp, #-14]
 c104d28:	e55b300e 	ldrb	r3, [fp, #-14]
 c104d2c:	e353000f 	cmp	r3, #15
 c104d30:	9affff7b 	bls	c104b24 <lcd_putchar_x2+0x50>
 c104d34:	e55b300d 	ldrb	r3, [fp, #-13]
 c104d38:	e2833001 	add	r3, r3, #1
 c104d3c:	e54b300d 	strb	r3, [fp, #-13]
 c104d40:	e55b300d 	ldrb	r3, [fp, #-13]
 c104d44:	e353001f 	cmp	r3, #31
 c104d48:	9affff72 	bls	c104b18 <lcd_putchar_x2+0x44>
 c104d4c:	e24bd00c 	sub	sp, fp, #12
 c104d50:	e89d6800 	ldm	sp, {fp, sp, lr}
 c104d54:	e12fff1e 	bx	lr
 c104d58:	0c10adec 	.word	0x0c10adec
 c104d5c:	0c10be08 	.word	0x0c10be08

0c104d60 <lcd_puts_x2>:
 c104d60:	e1a0c00d 	mov	ip, sp
 c104d64:	e92dd800 	push	{fp, ip, lr, pc}
 c104d68:	e24cb004 	sub	fp, ip, #4
 c104d6c:	e24dd010 	sub	sp, sp, #16
 c104d70:	e50b3018 	str	r3, [fp, #-24]	; 0xffffffe8
 c104d74:	e14b00be 	strh	r0, [fp, #-14]
 c104d78:	e14b11b0 	strh	r1, [fp, #-16]
 c104d7c:	e1a03002 	mov	r3, r2
 c104d80:	e54b3011 	strb	r3, [fp, #-17]	; 0xffffffef
 c104d84:	ea00000b 	b	c104db8 <lcd_puts_x2+0x58>
 c104d88:	e51b3018 	ldr	r3, [fp, #-24]	; 0xffffffe8
 c104d8c:	e5d33000 	ldrb	r3, [r3]
 c104d90:	e15b00be 	ldrh	r0, [fp, #-14]
 c104d94:	e15b11b0 	ldrh	r1, [fp, #-16]
 c104d98:	e55b2011 	ldrb	r2, [fp, #-17]	; 0xffffffef
 c104d9c:	ebffff4c 	bl	c104ad4 <lcd_putchar_x2>
 c104da0:	e51b3018 	ldr	r3, [fp, #-24]	; 0xffffffe8
 c104da4:	e2833001 	add	r3, r3, #1
 c104da8:	e50b3018 	str	r3, [fp, #-24]	; 0xffffffe8
 c104dac:	e15b30be 	ldrh	r3, [fp, #-14]
 c104db0:	e2833010 	add	r3, r3, #16
 c104db4:	e14b30be 	strh	r3, [fp, #-14]
 c104db8:	e51b3018 	ldr	r3, [fp, #-24]	; 0xffffffe8
 c104dbc:	e5d33000 	ldrb	r3, [r3]
 c104dc0:	e3530000 	cmp	r3, #0
 c104dc4:	1affffef 	bne	c104d88 <lcd_puts_x2+0x28>
 c104dc8:	e24bd00c 	sub	sp, fp, #12
 c104dcc:	e89d6800 	ldm	sp, {fp, sp, lr}
 c104dd0:	e12fff1e 	bx	lr

0c104dd4 <lcd_putint_x2>:
 c104dd4:	e1a0c00d 	mov	ip, sp
 c104dd8:	e92dd800 	push	{fp, ip, lr, pc}
 c104ddc:	e24cb004 	sub	fp, ip, #4
 c104de0:	e24dd018 	sub	sp, sp, #24
 c104de4:	e50b3020 	str	r3, [fp, #-32]	; 0xffffffe0
 c104de8:	e14b01b6 	strh	r0, [fp, #-22]	; 0xffffffea
 c104dec:	e14b11b8 	strh	r1, [fp, #-24]	; 0xffffffe8
 c104df0:	e1a03002 	mov	r3, r2
 c104df4:	e54b3019 	strb	r3, [fp, #-25]	; 0xffffffe7
 c104df8:	e59f3148 	ldr	r3, [pc, #328]	; c104f48 <lcd_putint_x2+0x174>
 c104dfc:	e50b3010 	str	r3, [fp, #-16]
 c104e00:	e51b3010 	ldr	r3, [fp, #-16]
 c104e04:	e3a02000 	mov	r2, #0
 c104e08:	e5c32000 	strb	r2, [r3]
 c104e0c:	e51b3020 	ldr	r3, [fp, #-32]	; 0xffffffe0
 c104e10:	e3530000 	cmp	r3, #0
 c104e14:	ba00001d 	blt	c104e90 <lcd_putint_x2+0xbc>
 c104e18:	e51b3010 	ldr	r3, [fp, #-16]
 c104e1c:	e2433001 	sub	r3, r3, #1
 c104e20:	e50b3010 	str	r3, [fp, #-16]
 c104e24:	e51b1020 	ldr	r1, [fp, #-32]	; 0xffffffe0
 c104e28:	e59f311c 	ldr	r3, [pc, #284]	; c104f4c <lcd_putint_x2+0x178>
 c104e2c:	e0c32391 	smull	r2, r3, r1, r3
 c104e30:	e1a02143 	asr	r2, r3, #2
 c104e34:	e1a03fc1 	asr	r3, r1, #31
 c104e38:	e0632002 	rsb	r2, r3, r2
 c104e3c:	e1a03002 	mov	r3, r2
 c104e40:	e1a03103 	lsl	r3, r3, #2
 c104e44:	e0833002 	add	r3, r3, r2
 c104e48:	e1a03083 	lsl	r3, r3, #1
 c104e4c:	e0632001 	rsb	r2, r3, r1
 c104e50:	e20230ff 	and	r3, r2, #255	; 0xff
 c104e54:	e2833030 	add	r3, r3, #48	; 0x30
 c104e58:	e20320ff 	and	r2, r3, #255	; 0xff
 c104e5c:	e51b3010 	ldr	r3, [fp, #-16]
 c104e60:	e5c32000 	strb	r2, [r3]
 c104e64:	e51b3020 	ldr	r3, [fp, #-32]	; 0xffffffe0
 c104e68:	e59f20dc 	ldr	r2, [pc, #220]	; c104f4c <lcd_putint_x2+0x178>
 c104e6c:	e0c21293 	smull	r1, r2, r3, r2
 c104e70:	e1a02142 	asr	r2, r2, #2
 c104e74:	e1a03fc3 	asr	r3, r3, #31
 c104e78:	e0633002 	rsb	r3, r3, r2
 c104e7c:	e50b3020 	str	r3, [fp, #-32]	; 0xffffffe0
 c104e80:	e51b3020 	ldr	r3, [fp, #-32]	; 0xffffffe0
 c104e84:	e3530000 	cmp	r3, #0
 c104e88:	1affffe2 	bne	c104e18 <lcd_putint_x2+0x44>
 c104e8c:	ea000022 	b	c104f1c <lcd_putint_x2+0x148>
 c104e90:	e51b3010 	ldr	r3, [fp, #-16]
 c104e94:	e2433001 	sub	r3, r3, #1
 c104e98:	e50b3010 	str	r3, [fp, #-16]
 c104e9c:	e51b1020 	ldr	r1, [fp, #-32]	; 0xffffffe0
 c104ea0:	e59f30a4 	ldr	r3, [pc, #164]	; c104f4c <lcd_putint_x2+0x178>
 c104ea4:	e0c32391 	smull	r2, r3, r1, r3
 c104ea8:	e1a02143 	asr	r2, r3, #2
 c104eac:	e1a03fc1 	asr	r3, r1, #31
 c104eb0:	e0632002 	rsb	r2, r3, r2
 c104eb4:	e1a03002 	mov	r3, r2
 c104eb8:	e1a03103 	lsl	r3, r3, #2
 c104ebc:	e0833002 	add	r3, r3, r2
 c104ec0:	e1a03083 	lsl	r3, r3, #1
 c104ec4:	e0632001 	rsb	r2, r3, r1
 c104ec8:	e20230ff 	and	r3, r2, #255	; 0xff
 c104ecc:	e2633030 	rsb	r3, r3, #48	; 0x30
 c104ed0:	e20320ff 	and	r2, r3, #255	; 0xff
 c104ed4:	e51b3010 	ldr	r3, [fp, #-16]
 c104ed8:	e5c32000 	strb	r2, [r3]
 c104edc:	e51b3020 	ldr	r3, [fp, #-32]	; 0xffffffe0
 c104ee0:	e59f2064 	ldr	r2, [pc, #100]	; c104f4c <lcd_putint_x2+0x178>
 c104ee4:	e0c21293 	smull	r1, r2, r3, r2
 c104ee8:	e1a02142 	asr	r2, r2, #2
 c104eec:	e1a03fc3 	asr	r3, r3, #31
 c104ef0:	e0633002 	rsb	r3, r3, r2
 c104ef4:	e50b3020 	str	r3, [fp, #-32]	; 0xffffffe0
 c104ef8:	e51b3020 	ldr	r3, [fp, #-32]	; 0xffffffe0
 c104efc:	e3530000 	cmp	r3, #0
 c104f00:	1affffe2 	bne	c104e90 <lcd_putint_x2+0xbc>
 c104f04:	e51b3010 	ldr	r3, [fp, #-16]
 c104f08:	e2433001 	sub	r3, r3, #1
 c104f0c:	e50b3010 	str	r3, [fp, #-16]
 c104f10:	e51b3010 	ldr	r3, [fp, #-16]
 c104f14:	e3a0202d 	mov	r2, #45	; 0x2d
 c104f18:	e5c32000 	strb	r2, [r3]
 c104f1c:	e15b11b6 	ldrh	r1, [fp, #-22]	; 0xffffffea
 c104f20:	e15b21b8 	ldrh	r2, [fp, #-24]	; 0xffffffe8
 c104f24:	e55b3019 	ldrb	r3, [fp, #-25]	; 0xffffffe7
 c104f28:	e1a00001 	mov	r0, r1
 c104f2c:	e1a01002 	mov	r1, r2
 c104f30:	e1a02003 	mov	r2, r3
 c104f34:	e51b3010 	ldr	r3, [fp, #-16]
 c104f38:	ebffff88 	bl	c104d60 <lcd_puts_x2>
 c104f3c:	e24bd00c 	sub	sp, fp, #12
 c104f40:	e89d6800 	ldm	sp, {fp, sp, lr}
 c104f44:	e12fff1e 	bx	lr
 c104f48:	0c1154d7 	.word	0x0c1154d7
 c104f4c:	66666667 	.word	0x66666667

0c104f50 <lcd_puthex_x2>:
 c104f50:	e1a0c00d 	mov	ip, sp
 c104f54:	e92dd800 	push	{fp, ip, lr, pc}
 c104f58:	e24cb004 	sub	fp, ip, #4
 c104f5c:	e24dd018 	sub	sp, sp, #24
 c104f60:	e50b3020 	str	r3, [fp, #-32]	; 0xffffffe0
 c104f64:	e14b01b6 	strh	r0, [fp, #-22]	; 0xffffffea
 c104f68:	e14b11b8 	strh	r1, [fp, #-24]	; 0xffffffe8
 c104f6c:	e1a03002 	mov	r3, r2
 c104f70:	e54b3019 	strb	r3, [fp, #-25]	; 0xffffffe7
 c104f74:	e59f30b0 	ldr	r3, [pc, #176]	; c10502c <lcd_puthex_x2+0xdc>
 c104f78:	e50b3010 	str	r3, [fp, #-16]
 c104f7c:	e51b3010 	ldr	r3, [fp, #-16]
 c104f80:	e3a02000 	mov	r2, #0
 c104f84:	e5c32000 	strb	r2, [r3]
 c104f88:	e51b3020 	ldr	r3, [fp, #-32]	; 0xffffffe0
 c104f8c:	e20330ff 	and	r3, r3, #255	; 0xff
 c104f90:	e203300f 	and	r3, r3, #15
 c104f94:	e54b3011 	strb	r3, [fp, #-17]	; 0xffffffef
 c104f98:	e55b3011 	ldrb	r3, [fp, #-17]	; 0xffffffef
 c104f9c:	e3530009 	cmp	r3, #9
 c104fa0:	8a000008 	bhi	c104fc8 <lcd_puthex_x2+0x78>
 c104fa4:	e51b3010 	ldr	r3, [fp, #-16]
 c104fa8:	e2433001 	sub	r3, r3, #1
 c104fac:	e50b3010 	str	r3, [fp, #-16]
 c104fb0:	e55b3011 	ldrb	r3, [fp, #-17]	; 0xffffffef
 c104fb4:	e2833030 	add	r3, r3, #48	; 0x30
 c104fb8:	e20320ff 	and	r2, r3, #255	; 0xff
 c104fbc:	e51b3010 	ldr	r3, [fp, #-16]
 c104fc0:	e5c32000 	strb	r2, [r3]
 c104fc4:	ea000007 	b	c104fe8 <lcd_puthex_x2+0x98>
 c104fc8:	e51b3010 	ldr	r3, [fp, #-16]
 c104fcc:	e2433001 	sub	r3, r3, #1
 c104fd0:	e50b3010 	str	r3, [fp, #-16]
 c104fd4:	e55b3011 	ldrb	r3, [fp, #-17]	; 0xffffffef
 c104fd8:	e2833057 	add	r3, r3, #87	; 0x57
 c104fdc:	e20320ff 	and	r2, r3, #255	; 0xff
 c104fe0:	e51b3010 	ldr	r3, [fp, #-16]
 c104fe4:	e5c32000 	strb	r2, [r3]
 c104fe8:	e51b3020 	ldr	r3, [fp, #-32]	; 0xffffffe0
 c104fec:	e1a03223 	lsr	r3, r3, #4
 c104ff0:	e50b3020 	str	r3, [fp, #-32]	; 0xffffffe0
 c104ff4:	e51b3020 	ldr	r3, [fp, #-32]	; 0xffffffe0
 c104ff8:	e3530000 	cmp	r3, #0
 c104ffc:	1affffe1 	bne	c104f88 <lcd_puthex_x2+0x38>
 c105000:	e15b11b6 	ldrh	r1, [fp, #-22]	; 0xffffffea
 c105004:	e15b21b8 	ldrh	r2, [fp, #-24]	; 0xffffffe8
 c105008:	e55b3019 	ldrb	r3, [fp, #-25]	; 0xffffffe7
 c10500c:	e1a00001 	mov	r0, r1
 c105010:	e1a01002 	mov	r1, r2
 c105014:	e1a02003 	mov	r2, r3
 c105018:	e51b3010 	ldr	r3, [fp, #-16]
 c10501c:	ebffff4f 	bl	c104d60 <lcd_puts_x2>
 c105020:	e24bd00c 	sub	sp, fp, #12
 c105024:	e89d6800 	ldm	sp, {fp, sp, lr}
 c105028:	e12fff1e 	bx	lr
 c10502c:	0c1154c8 	.word	0x0c1154c8

0c105030 <lcd_putWallpaper>:
 c105030:	e1a0c00d 	mov	ip, sp
 c105034:	e92dd800 	push	{fp, ip, lr, pc}
 c105038:	e24cb004 	sub	fp, ip, #4
 c10503c:	e24dd018 	sub	sp, sp, #24
 c105040:	e50b0020 	str	r0, [fp, #-32]	; 0xffffffe0
 c105044:	e51b3020 	ldr	r3, [fp, #-32]	; 0xffffffe0
 c105048:	e283300a 	add	r3, r3, #10
 c10504c:	e5d33000 	ldrb	r3, [r3]
 c105050:	e1a02003 	mov	r2, r3
 c105054:	e51b3020 	ldr	r3, [fp, #-32]	; 0xffffffe0
 c105058:	e283300b 	add	r3, r3, #11
 c10505c:	e5d33000 	ldrb	r3, [r3]
 c105060:	e1a03403 	lsl	r3, r3, #8
 c105064:	e0822003 	add	r2, r2, r3
 c105068:	e51b3020 	ldr	r3, [fp, #-32]	; 0xffffffe0
 c10506c:	e283300c 	add	r3, r3, #12
 c105070:	e5d33000 	ldrb	r3, [r3]
 c105074:	e1a03803 	lsl	r3, r3, #16
 c105078:	e0822003 	add	r2, r2, r3
 c10507c:	e51b3020 	ldr	r3, [fp, #-32]	; 0xffffffe0
 c105080:	e283300d 	add	r3, r3, #13
 c105084:	e5d33000 	ldrb	r3, [r3]
 c105088:	e1a03c03 	lsl	r3, r3, #24
 c10508c:	e0823003 	add	r3, r2, r3
 c105090:	e50b3018 	str	r3, [fp, #-24]	; 0xffffffe8
 c105094:	e51b2020 	ldr	r2, [fp, #-32]	; 0xffffffe0
 c105098:	e51b3018 	ldr	r3, [fp, #-24]	; 0xffffffe8
 c10509c:	e0823003 	add	r3, r2, r3
 c1050a0:	e50b3020 	str	r3, [fp, #-32]	; 0xffffffe0
 c1050a4:	e3a03000 	mov	r3, #0
 c1050a8:	e14b31b0 	strh	r3, [fp, #-16]
 c1050ac:	e3a030ef 	mov	r3, #239	; 0xef
 c1050b0:	e14b31b2 	strh	r3, [fp, #-18]	; 0xffffffee
 c1050b4:	ea00002d 	b	c105170 <lcd_putWallpaper+0x140>
 c1050b8:	e15b21b2 	ldrh	r2, [fp, #-18]	; 0xffffffee
 c1050bc:	e1a03002 	mov	r3, r2
 c1050c0:	e1a03103 	lsl	r3, r3, #2
 c1050c4:	e0833002 	add	r3, r3, r2
 c1050c8:	e1a03303 	lsl	r3, r3, #6
 c1050cc:	e1a02fa3 	lsr	r2, r3, #31
 c1050d0:	e0823003 	add	r3, r2, r3
 c1050d4:	e1a030c3 	asr	r3, r3, #1
 c1050d8:	e14b31ba 	strh	r3, [fp, #-26]	; 0xffffffe6
 c1050dc:	e15b21b0 	ldrh	r2, [fp, #-16]
 c1050e0:	e1a03002 	mov	r3, r2
 c1050e4:	e1a03103 	lsl	r3, r3, #2
 c1050e8:	e0833002 	add	r3, r3, r2
 c1050ec:	e1a03303 	lsl	r3, r3, #6
 c1050f0:	e1a02fa3 	lsr	r2, r3, #31
 c1050f4:	e0823003 	add	r3, r2, r3
 c1050f8:	e1a030c3 	asr	r3, r3, #1
 c1050fc:	e14b31bc 	strh	r3, [fp, #-28]	; 0xffffffe4
 c105100:	e3a03000 	mov	r3, #0
 c105104:	e14b30be 	strh	r3, [fp, #-14]
 c105108:	ea00000f 	b	c10514c <lcd_putWallpaper+0x11c>
 c10510c:	e15b21ba 	ldrh	r2, [fp, #-26]	; 0xffffffe6
 c105110:	e15b30be 	ldrh	r3, [fp, #-14]
 c105114:	e0823003 	add	r3, r2, r3
 c105118:	e15b11bc 	ldrh	r1, [fp, #-28]	; 0xffffffe4
 c10511c:	e15b20be 	ldrh	r2, [fp, #-14]
 c105120:	e0812002 	add	r2, r1, r2
 c105124:	e51b1020 	ldr	r1, [fp, #-32]	; 0xffffffe0
 c105128:	e0812002 	add	r2, r1, r2
 c10512c:	e5d22000 	ldrb	r2, [r2]
 c105130:	e1e02002 	mvn	r2, r2
 c105134:	e20210ff 	and	r1, r2, #255	; 0xff
 c105138:	e59f2048 	ldr	r2, [pc, #72]	; c105188 <lcd_putWallpaper+0x158>
 c10513c:	e7c21003 	strb	r1, [r2, r3]
 c105140:	e15b30be 	ldrh	r3, [fp, #-14]
 c105144:	e2833001 	add	r3, r3, #1
 c105148:	e14b30be 	strh	r3, [fp, #-14]
 c10514c:	e15b30be 	ldrh	r3, [fp, #-14]
 c105150:	e353009f 	cmp	r3, #159	; 0x9f
 c105154:	9affffec 	bls	c10510c <lcd_putWallpaper+0xdc>
 c105158:	e15b31b0 	ldrh	r3, [fp, #-16]
 c10515c:	e2833001 	add	r3, r3, #1
 c105160:	e14b31b0 	strh	r3, [fp, #-16]
 c105164:	e15b31b2 	ldrh	r3, [fp, #-18]	; 0xffffffee
 c105168:	e2433001 	sub	r3, r3, #1
 c10516c:	e14b31b2 	strh	r3, [fp, #-18]	; 0xffffffee
 c105170:	e15b31b0 	ldrh	r3, [fp, #-16]
 c105174:	e35300ef 	cmp	r3, #239	; 0xef
 c105178:	9affffce 	bls	c1050b8 <lcd_putWallpaper+0x88>
 c10517c:	e24bd00c 	sub	sp, fp, #12
 c105180:	e89d6800 	ldm	sp, {fp, sp, lr}
 c105184:	e12fff1e 	bx	lr
 c105188:	0c10be08 	.word	0x0c10be08

0c10518c <leds_init>:
 c10518c:	e1a0c00d 	mov	ip, sp
 c105190:	e92dd800 	push	{fp, ip, lr, pc}
 c105194:	e24cb004 	sub	fp, ip, #4
 c105198:	e3a0000a 	mov	r0, #10
 c10519c:	eb000054 	bl	c1052f4 <power_on>
 c1051a0:	e59f3028 	ldr	r3, [pc, #40]	; c1051d0 <leds_init+0x44>
 c1051a4:	e59f2024 	ldr	r2, [pc, #36]	; c1051d0 <leds_init+0x44>
 c1051a8:	e5922000 	ldr	r2, [r2]
 c1051ac:	e3c22c06 	bic	r2, r2, #1536	; 0x600
 c1051b0:	e5832000 	str	r2, [r3]
 c1051b4:	e3a00002 	mov	r0, #2
 c1051b8:	eb000017 	bl	c10521c <led_off>
 c1051bc:	e3a00001 	mov	r0, #1
 c1051c0:	eb000015 	bl	c10521c <led_off>
 c1051c4:	e24bd00c 	sub	sp, fp, #12
 c1051c8:	e89d6800 	ldm	sp, {fp, sp, lr}
 c1051cc:	e12fff1e 	bx	lr
 c1051d0:	01d20008 	.word	0x01d20008

0c1051d4 <led_on>:
 c1051d4:	e1a0c00d 	mov	ip, sp
 c1051d8:	e92dd800 	push	{fp, ip, lr, pc}
 c1051dc:	e24cb004 	sub	fp, ip, #4
 c1051e0:	e24dd008 	sub	sp, sp, #8
 c1051e4:	e1a03000 	mov	r3, r0
 c1051e8:	e54b300d 	strb	r3, [fp, #-13]
 c1051ec:	e59f3024 	ldr	r3, [pc, #36]	; c105218 <led_on+0x44>
 c1051f0:	e59f2020 	ldr	r2, [pc, #32]	; c105218 <led_on+0x44>
 c1051f4:	e5921000 	ldr	r1, [r2]
 c1051f8:	e55b200d 	ldrb	r2, [fp, #-13]
 c1051fc:	e1a02482 	lsl	r2, r2, #9
 c105200:	e1e02002 	mvn	r2, r2
 c105204:	e0012002 	and	r2, r1, r2
 c105208:	e5832000 	str	r2, [r3]
 c10520c:	e24bd00c 	sub	sp, fp, #12
 c105210:	e89d6800 	ldm	sp, {fp, sp, lr}
 c105214:	e12fff1e 	bx	lr
 c105218:	01d2000c 	.word	0x01d2000c

0c10521c <led_off>:
 c10521c:	e1a0c00d 	mov	ip, sp
 c105220:	e92dd800 	push	{fp, ip, lr, pc}
 c105224:	e24cb004 	sub	fp, ip, #4
 c105228:	e24dd008 	sub	sp, sp, #8
 c10522c:	e1a03000 	mov	r3, r0
 c105230:	e54b300d 	strb	r3, [fp, #-13]
 c105234:	e59f3020 	ldr	r3, [pc, #32]	; c10525c <led_off+0x40>
 c105238:	e59f201c 	ldr	r2, [pc, #28]	; c10525c <led_off+0x40>
 c10523c:	e5921000 	ldr	r1, [r2]
 c105240:	e55b200d 	ldrb	r2, [fp, #-13]
 c105244:	e1a02482 	lsl	r2, r2, #9
 c105248:	e1812002 	orr	r2, r1, r2
 c10524c:	e5832000 	str	r2, [r3]
 c105250:	e24bd00c 	sub	sp, fp, #12
 c105254:	e89d6800 	ldm	sp, {fp, sp, lr}
 c105258:	e12fff1e 	bx	lr
 c10525c:	01d2000c 	.word	0x01d2000c

0c105260 <led_toggle>:
 c105260:	e1a0c00d 	mov	ip, sp
 c105264:	e92dd800 	push	{fp, ip, lr, pc}
 c105268:	e24cb004 	sub	fp, ip, #4
 c10526c:	e24dd008 	sub	sp, sp, #8
 c105270:	e1a03000 	mov	r3, r0
 c105274:	e54b300d 	strb	r3, [fp, #-13]
 c105278:	e59f3020 	ldr	r3, [pc, #32]	; c1052a0 <led_toggle+0x40>
 c10527c:	e59f201c 	ldr	r2, [pc, #28]	; c1052a0 <led_toggle+0x40>
 c105280:	e5921000 	ldr	r1, [r2]
 c105284:	e55b200d 	ldrb	r2, [fp, #-13]
 c105288:	e1a02482 	lsl	r2, r2, #9
 c10528c:	e0212002 	eor	r2, r1, r2
 c105290:	e5832000 	str	r2, [r3]
 c105294:	e24bd00c 	sub	sp, fp, #12
 c105298:	e89d6800 	ldm	sp, {fp, sp, lr}
 c10529c:	e12fff1e 	bx	lr
 c1052a0:	01d2000c 	.word	0x01d2000c

0c1052a4 <led_status>:
 c1052a4:	e1a0c00d 	mov	ip, sp
 c1052a8:	e92dd800 	push	{fp, ip, lr, pc}
 c1052ac:	e24cb004 	sub	fp, ip, #4
 c1052b0:	e24dd008 	sub	sp, sp, #8
 c1052b4:	e1a03000 	mov	r3, r0
 c1052b8:	e54b300d 	strb	r3, [fp, #-13]
 c1052bc:	e59f302c 	ldr	r3, [pc, #44]	; c1052f0 <led_status+0x4c>
 c1052c0:	e5932000 	ldr	r2, [r3]
 c1052c4:	e55b300d 	ldrb	r3, [fp, #-13]
 c1052c8:	e1a03483 	lsl	r3, r3, #9
 c1052cc:	e0023003 	and	r3, r2, r3
 c1052d0:	e3530000 	cmp	r3, #0
 c1052d4:	13a03000 	movne	r3, #0
 c1052d8:	03a03001 	moveq	r3, #1
 c1052dc:	e20330ff 	and	r3, r3, #255	; 0xff
 c1052e0:	e1a00003 	mov	r0, r3
 c1052e4:	e24bd00c 	sub	sp, fp, #12
 c1052e8:	e89d6800 	ldm	sp, {fp, sp, lr}
 c1052ec:	e12fff1e 	bx	lr
 c1052f0:	01d2000c 	.word	0x01d2000c

0c1052f4 <power_on>:
 c1052f4:	e1a0c00d 	mov	ip, sp
 c1052f8:	e92dd800 	push	{fp, ip, lr, pc}
 c1052fc:	e24cb004 	sub	fp, ip, #4
 c105300:	e24dd008 	sub	sp, sp, #8
 c105304:	e1a03000 	mov	r3, r0
 c105308:	e54b300d 	strb	r3, [fp, #-13]
 c10530c:	e55b300d 	ldrb	r3, [fp, #-13]
 c105310:	e353000e 	cmp	r3, #14
 c105314:	8a000029 	bhi	c1053c0 <power_on+0xcc>
 c105318:	e59f20ac 	ldr	r2, [pc, #172]	; c1053cc <power_on+0xd8>
 c10531c:	e1a02312 	lsl	r2, r2, r3
 c105320:	e3520000 	cmp	r2, #0
 c105324:	ba000008 	blt	c10534c <power_on+0x58>
 c105328:	e3a02409 	mov	r2, #150994944	; 0x9000000
 c10532c:	e1a02312 	lsl	r2, r2, r3
 c105330:	e3520000 	cmp	r2, #0
 c105334:	ba000018 	blt	c10539c <power_on+0xa8>
 c105338:	e3a02603 	mov	r2, #3145728	; 0x300000
 c10533c:	e1a03312 	lsl	r3, r2, r3
 c105340:	e3530000 	cmp	r3, #0
 c105344:	aa00001d 	bge	c1053c0 <power_on+0xcc>
 c105348:	ea000009 	b	c105374 <power_on+0x80>
 c10534c:	e59f307c 	ldr	r3, [pc, #124]	; c1053d0 <power_on+0xdc>
 c105350:	e59f2078 	ldr	r2, [pc, #120]	; c1053d0 <power_on+0xdc>
 c105354:	e5921000 	ldr	r1, [r2]
 c105358:	e55b200d 	ldrb	r2, [fp, #-13]
 c10535c:	e3a00001 	mov	r0, #1
 c105360:	e1a02210 	lsl	r2, r0, r2
 c105364:	e1812002 	orr	r2, r1, r2
 c105368:	e3822d12 	orr	r2, r2, #1152	; 0x480
 c10536c:	e5832000 	str	r2, [r3]
 c105370:	ea000012 	b	c1053c0 <power_on+0xcc>
 c105374:	e59f3054 	ldr	r3, [pc, #84]	; c1053d0 <power_on+0xdc>
 c105378:	e59f2050 	ldr	r2, [pc, #80]	; c1053d0 <power_on+0xdc>
 c10537c:	e5921000 	ldr	r1, [r2]
 c105380:	e55b200d 	ldrb	r2, [fp, #-13]
 c105384:	e3a00001 	mov	r0, #1
 c105388:	e1a02210 	lsl	r2, r0, r2
 c10538c:	e1812002 	orr	r2, r1, r2
 c105390:	e3822080 	orr	r2, r2, #128	; 0x80
 c105394:	e5832000 	str	r2, [r3]
 c105398:	ea000008 	b	c1053c0 <power_on+0xcc>
 c10539c:	e59f302c 	ldr	r3, [pc, #44]	; c1053d0 <power_on+0xdc>
 c1053a0:	e59f2028 	ldr	r2, [pc, #40]	; c1053d0 <power_on+0xdc>
 c1053a4:	e5921000 	ldr	r1, [r2]
 c1053a8:	e55b200d 	ldrb	r2, [fp, #-13]
 c1053ac:	e3a00001 	mov	r0, #1
 c1053b0:	e1a02210 	lsl	r2, r0, r2
 c1053b4:	e1812002 	orr	r2, r1, r2
 c1053b8:	e5832000 	str	r2, [r3]
 c1053bc:	e1a00000 	nop			; (mov r0, r0)
 c1053c0:	e24bd00c 	sub	sp, fp, #12
 c1053c4:	e89d6800 	ldm	sp, {fp, sp, lr}
 c1053c8:	e12fff1e 	bx	lr
 c1053cc:	16ce0000 	.word	0x16ce0000
 c1053d0:	01d80004 	.word	0x01d80004

0c1053d4 <power_off>:
 c1053d4:	e1a0c00d 	mov	ip, sp
 c1053d8:	e92dd800 	push	{fp, ip, lr, pc}
 c1053dc:	e24cb004 	sub	fp, ip, #4
 c1053e0:	e24dd008 	sub	sp, sp, #8
 c1053e4:	e1a03000 	mov	r3, r0
 c1053e8:	e54b300d 	strb	r3, [fp, #-13]
 c1053ec:	e55b300d 	ldrb	r3, [fp, #-13]
 c1053f0:	e353000e 	cmp	r3, #14
 c1053f4:	8a000029 	bhi	c1054a0 <power_off+0xcc>
 c1053f8:	e59f20ac 	ldr	r2, [pc, #172]	; c1054ac <power_off+0xd8>
 c1053fc:	e1a02312 	lsl	r2, r2, r3
 c105400:	e3520000 	cmp	r2, #0
 c105404:	ba000004 	blt	c10541c <power_off+0x48>
 c105408:	e3a02409 	mov	r2, #150994944	; 0x9000000
 c10540c:	e1a03312 	lsl	r3, r2, r3
 c105410:	e3530000 	cmp	r3, #0
 c105414:	aa000021 	bge	c1054a0 <power_off+0xcc>
 c105418:	ea000014 	b	c105470 <power_off+0x9c>
 c10541c:	e59f308c 	ldr	r3, [pc, #140]	; c1054b0 <power_off+0xdc>
 c105420:	e59f2088 	ldr	r2, [pc, #136]	; c1054b0 <power_off+0xdc>
 c105424:	e5921000 	ldr	r1, [r2]
 c105428:	e55b200d 	ldrb	r2, [fp, #-13]
 c10542c:	e3a00001 	mov	r0, #1
 c105430:	e1a02210 	lsl	r2, r0, r2
 c105434:	e1e02002 	mvn	r2, r2
 c105438:	e0012002 	and	r2, r1, r2
 c10543c:	e5832000 	str	r2, [r3]
 c105440:	e59f3068 	ldr	r3, [pc, #104]	; c1054b0 <power_off+0xdc>
 c105444:	e5932000 	ldr	r2, [r3]
 c105448:	e59f3064 	ldr	r3, [pc, #100]	; c1054b4 <power_off+0xe0>
 c10544c:	e0023003 	and	r3, r2, r3
 c105450:	e3530000 	cmp	r3, #0
 c105454:	1a000010 	bne	c10549c <power_off+0xc8>
 c105458:	e59f3050 	ldr	r3, [pc, #80]	; c1054b0 <power_off+0xdc>
 c10545c:	e59f204c 	ldr	r2, [pc, #76]	; c1054b0 <power_off+0xdc>
 c105460:	e5922000 	ldr	r2, [r2]
 c105464:	e3c22080 	bic	r2, r2, #128	; 0x80
 c105468:	e5832000 	str	r2, [r3]
 c10546c:	ea00000b 	b	c1054a0 <power_off+0xcc>
 c105470:	e59f3038 	ldr	r3, [pc, #56]	; c1054b0 <power_off+0xdc>
 c105474:	e59f2034 	ldr	r2, [pc, #52]	; c1054b0 <power_off+0xdc>
 c105478:	e5921000 	ldr	r1, [r2]
 c10547c:	e55b200d 	ldrb	r2, [fp, #-13]
 c105480:	e3a00001 	mov	r0, #1
 c105484:	e1a02210 	lsl	r2, r0, r2
 c105488:	e1e02002 	mvn	r2, r2
 c10548c:	e0012002 	and	r2, r1, r2
 c105490:	e5832000 	str	r2, [r3]
 c105494:	e1a00000 	nop			; (mov r0, r0)
 c105498:	ea000000 	b	c1054a0 <power_off+0xcc>
 c10549c:	e1a00000 	nop			; (mov r0, r0)
 c1054a0:	e24bd00c 	sub	sp, fp, #12
 c1054a4:	e89d6800 	ldm	sp, {fp, sp, lr}
 c1054a8:	e12fff1e 	bx	lr
 c1054ac:	16fe0000 	.word	0x16fe0000
 c1054b0:	01d80004 	.word	0x01d80004
 c1054b4:	00007f68 	.word	0x00007f68

0c1054b8 <power_status>:
 c1054b8:	e1a0c00d 	mov	ip, sp
 c1054bc:	e92dd800 	push	{fp, ip, lr, pc}
 c1054c0:	e24cb004 	sub	fp, ip, #4
 c1054c4:	e24dd008 	sub	sp, sp, #8
 c1054c8:	e1a03000 	mov	r3, r0
 c1054cc:	e54b300d 	strb	r3, [fp, #-13]
 c1054d0:	e59f302c 	ldr	r3, [pc, #44]	; c105504 <power_status+0x4c>
 c1054d4:	e5932000 	ldr	r2, [r3]
 c1054d8:	e55b300d 	ldrb	r3, [fp, #-13]
 c1054dc:	e3a01001 	mov	r1, #1
 c1054e0:	e1a03311 	lsl	r3, r1, r3
 c1054e4:	e0022003 	and	r2, r2, r3
 c1054e8:	e55b300d 	ldrb	r3, [fp, #-13]
 c1054ec:	e1a03332 	lsr	r3, r2, r3
 c1054f0:	e20330ff 	and	r3, r3, #255	; 0xff
 c1054f4:	e1a00003 	mov	r0, r3
 c1054f8:	e24bd00c 	sub	sp, fp, #12
 c1054fc:	e89d6800 	ldm	sp, {fp, sp, lr}
 c105500:	e12fff1e 	bx	lr
 c105504:	01d80004 	.word	0x01d80004

0c105508 <rtc_init>:
 c105508:	e1a0c00d 	mov	ip, sp
 c10550c:	e92dd800 	push	{fp, ip, lr, pc}
 c105510:	e24cb004 	sub	fp, ip, #4
 c105514:	e3a0000b 	mov	r0, #11
 c105518:	ebffff75 	bl	c1052f4 <power_on>
 c10551c:	e59f30e4 	ldr	r3, [pc, #228]	; c105608 <rtc_init+0x100>
 c105520:	e3a02000 	mov	r2, #0
 c105524:	e5832000 	str	r2, [r3]
 c105528:	e59f30dc 	ldr	r3, [pc, #220]	; c10560c <rtc_init+0x104>
 c10552c:	e3a02000 	mov	r2, #0
 c105530:	e5832000 	str	r2, [r3]
 c105534:	e59f30d4 	ldr	r3, [pc, #212]	; c105610 <rtc_init+0x108>
 c105538:	e3a02000 	mov	r2, #0
 c10553c:	e5832000 	str	r2, [r3]
 c105540:	e59f30cc 	ldr	r3, [pc, #204]	; c105614 <rtc_init+0x10c>
 c105544:	e3a02001 	mov	r2, #1
 c105548:	e5832000 	str	r2, [r3]
 c10554c:	e59f30c4 	ldr	r3, [pc, #196]	; c105618 <rtc_init+0x110>
 c105550:	e3a02013 	mov	r2, #19
 c105554:	e5832000 	str	r2, [r3]
 c105558:	e59f30bc 	ldr	r3, [pc, #188]	; c10561c <rtc_init+0x114>
 c10555c:	e3a02001 	mov	r2, #1
 c105560:	e5832000 	str	r2, [r3]
 c105564:	e59f30b4 	ldr	r3, [pc, #180]	; c105620 <rtc_init+0x118>
 c105568:	e3a02001 	mov	r2, #1
 c10556c:	e5832000 	str	r2, [r3]
 c105570:	e59f30ac 	ldr	r3, [pc, #172]	; c105624 <rtc_init+0x11c>
 c105574:	e3a02003 	mov	r2, #3
 c105578:	e5832000 	str	r2, [r3]
 c10557c:	e59f30a4 	ldr	r3, [pc, #164]	; c105628 <rtc_init+0x120>
 c105580:	e3a02000 	mov	r2, #0
 c105584:	e5832000 	str	r2, [r3]
 c105588:	e59f309c 	ldr	r3, [pc, #156]	; c10562c <rtc_init+0x124>
 c10558c:	e3a02000 	mov	r2, #0
 c105590:	e5832000 	str	r2, [r3]
 c105594:	e59f3094 	ldr	r3, [pc, #148]	; c105630 <rtc_init+0x128>
 c105598:	e3a02000 	mov	r2, #0
 c10559c:	e5832000 	str	r2, [r3]
 c1055a0:	e59f308c 	ldr	r3, [pc, #140]	; c105634 <rtc_init+0x12c>
 c1055a4:	e3a02000 	mov	r2, #0
 c1055a8:	e5832000 	str	r2, [r3]
 c1055ac:	e59f3084 	ldr	r3, [pc, #132]	; c105638 <rtc_init+0x130>
 c1055b0:	e3a02000 	mov	r2, #0
 c1055b4:	e5832000 	str	r2, [r3]
 c1055b8:	e59f307c 	ldr	r3, [pc, #124]	; c10563c <rtc_init+0x134>
 c1055bc:	e3a02000 	mov	r2, #0
 c1055c0:	e5832000 	str	r2, [r3]
 c1055c4:	e59f3074 	ldr	r3, [pc, #116]	; c105640 <rtc_init+0x138>
 c1055c8:	e3a02000 	mov	r2, #0
 c1055cc:	e5832000 	str	r2, [r3]
 c1055d0:	e59f306c 	ldr	r3, [pc, #108]	; c105644 <rtc_init+0x13c>
 c1055d4:	e3a02000 	mov	r2, #0
 c1055d8:	e5832000 	str	r2, [r3]
 c1055dc:	e59f3064 	ldr	r3, [pc, #100]	; c105648 <rtc_init+0x140>
 c1055e0:	e3a02000 	mov	r2, #0
 c1055e4:	e5832000 	str	r2, [r3]
 c1055e8:	e59f3024 	ldr	r3, [pc, #36]	; c105614 <rtc_init+0x10c>
 c1055ec:	e59f2020 	ldr	r2, [pc, #32]	; c105614 <rtc_init+0x10c>
 c1055f0:	e5922000 	ldr	r2, [r2]
 c1055f4:	e3c22001 	bic	r2, r2, #1
 c1055f8:	e5832000 	str	r2, [r3]
 c1055fc:	e24bd00c 	sub	sp, fp, #12
 c105600:	e89d6800 	ldm	sp, {fp, sp, lr}
 c105604:	e12fff1e 	bx	lr
 c105608:	01d7008c 	.word	0x01d7008c
 c10560c:	01d70050 	.word	0x01d70050
 c105610:	01d7006c 	.word	0x01d7006c
 c105614:	01d70040 	.word	0x01d70040
 c105618:	01d70088 	.word	0x01d70088
 c10561c:	01d70084 	.word	0x01d70084
 c105620:	01d7007c 	.word	0x01d7007c
 c105624:	01d70080 	.word	0x01d70080
 c105628:	01d70078 	.word	0x01d70078
 c10562c:	01d70074 	.word	0x01d70074
 c105630:	01d70070 	.word	0x01d70070
 c105634:	01d70068 	.word	0x01d70068
 c105638:	01d70064 	.word	0x01d70064
 c10563c:	01d70060 	.word	0x01d70060
 c105640:	01d7005c 	.word	0x01d7005c
 c105644:	01d70058 	.word	0x01d70058
 c105648:	01d70054 	.word	0x01d70054

0c10564c <rtc_puttime>:
 c10564c:	e1a0c00d 	mov	ip, sp
 c105650:	e92dd800 	push	{fp, ip, lr, pc}
 c105654:	e24cb004 	sub	fp, ip, #4
 c105658:	e24dd008 	sub	sp, sp, #8
 c10565c:	e50b0010 	str	r0, [fp, #-16]
 c105660:	e59f3278 	ldr	r3, [pc, #632]	; c1058e0 <rtc_puttime+0x294>
 c105664:	e59f2274 	ldr	r2, [pc, #628]	; c1058e0 <rtc_puttime+0x294>
 c105668:	e5922000 	ldr	r2, [r2]
 c10566c:	e3822001 	orr	r2, r2, #1
 c105670:	e5832000 	str	r2, [r3]
 c105674:	e59f0268 	ldr	r0, [pc, #616]	; c1058e4 <rtc_puttime+0x298>
 c105678:	e51b3010 	ldr	r3, [fp, #-16]
 c10567c:	e5d32006 	ldrb	r2, [r3, #6]
 c105680:	e59f3260 	ldr	r3, [pc, #608]	; c1058e8 <rtc_puttime+0x29c>
 c105684:	e0831392 	umull	r1, r3, r2, r3
 c105688:	e1a031a3 	lsr	r3, r3, #3
 c10568c:	e20330ff 	and	r3, r3, #255	; 0xff
 c105690:	e1a0c203 	lsl	ip, r3, #4
 c105694:	e51b3010 	ldr	r3, [fp, #-16]
 c105698:	e5d32006 	ldrb	r2, [r3, #6]
 c10569c:	e59f3244 	ldr	r3, [pc, #580]	; c1058e8 <rtc_puttime+0x29c>
 c1056a0:	e0831392 	umull	r1, r3, r2, r3
 c1056a4:	e1a011a3 	lsr	r1, r3, #3
 c1056a8:	e1a03001 	mov	r3, r1
 c1056ac:	e1a03103 	lsl	r3, r3, #2
 c1056b0:	e0833001 	add	r3, r3, r1
 c1056b4:	e1a03083 	lsl	r3, r3, #1
 c1056b8:	e0633002 	rsb	r3, r3, r2
 c1056bc:	e20330ff 	and	r3, r3, #255	; 0xff
 c1056c0:	e08c3003 	add	r3, ip, r3
 c1056c4:	e5803000 	str	r3, [r0]
 c1056c8:	e59f021c 	ldr	r0, [pc, #540]	; c1058ec <rtc_puttime+0x2a0>
 c1056cc:	e51b3010 	ldr	r3, [fp, #-16]
 c1056d0:	e5d32005 	ldrb	r2, [r3, #5]
 c1056d4:	e59f320c 	ldr	r3, [pc, #524]	; c1058e8 <rtc_puttime+0x29c>
 c1056d8:	e0831392 	umull	r1, r3, r2, r3
 c1056dc:	e1a031a3 	lsr	r3, r3, #3
 c1056e0:	e20330ff 	and	r3, r3, #255	; 0xff
 c1056e4:	e1a0c203 	lsl	ip, r3, #4
 c1056e8:	e51b3010 	ldr	r3, [fp, #-16]
 c1056ec:	e5d32005 	ldrb	r2, [r3, #5]
 c1056f0:	e59f31f0 	ldr	r3, [pc, #496]	; c1058e8 <rtc_puttime+0x29c>
 c1056f4:	e0831392 	umull	r1, r3, r2, r3
 c1056f8:	e1a011a3 	lsr	r1, r3, #3
 c1056fc:	e1a03001 	mov	r3, r1
 c105700:	e1a03103 	lsl	r3, r3, #2
 c105704:	e0833001 	add	r3, r3, r1
 c105708:	e1a03083 	lsl	r3, r3, #1
 c10570c:	e0633002 	rsb	r3, r3, r2
 c105710:	e20330ff 	and	r3, r3, #255	; 0xff
 c105714:	e08c3003 	add	r3, ip, r3
 c105718:	e5803000 	str	r3, [r0]
 c10571c:	e59f01cc 	ldr	r0, [pc, #460]	; c1058f0 <rtc_puttime+0x2a4>
 c105720:	e51b3010 	ldr	r3, [fp, #-16]
 c105724:	e5d32003 	ldrb	r2, [r3, #3]
 c105728:	e59f31b8 	ldr	r3, [pc, #440]	; c1058e8 <rtc_puttime+0x29c>
 c10572c:	e0831392 	umull	r1, r3, r2, r3
 c105730:	e1a031a3 	lsr	r3, r3, #3
 c105734:	e20330ff 	and	r3, r3, #255	; 0xff
 c105738:	e1a0c203 	lsl	ip, r3, #4
 c10573c:	e51b3010 	ldr	r3, [fp, #-16]
 c105740:	e5d32003 	ldrb	r2, [r3, #3]
 c105744:	e59f319c 	ldr	r3, [pc, #412]	; c1058e8 <rtc_puttime+0x29c>
 c105748:	e0831392 	umull	r1, r3, r2, r3
 c10574c:	e1a011a3 	lsr	r1, r3, #3
 c105750:	e1a03001 	mov	r3, r1
 c105754:	e1a03103 	lsl	r3, r3, #2
 c105758:	e0833001 	add	r3, r3, r1
 c10575c:	e1a03083 	lsl	r3, r3, #1
 c105760:	e0633002 	rsb	r3, r3, r2
 c105764:	e20330ff 	and	r3, r3, #255	; 0xff
 c105768:	e08c3003 	add	r3, ip, r3
 c10576c:	e5803000 	str	r3, [r0]
 c105770:	e59f017c 	ldr	r0, [pc, #380]	; c1058f4 <rtc_puttime+0x2a8>
 c105774:	e51b3010 	ldr	r3, [fp, #-16]
 c105778:	e5d32004 	ldrb	r2, [r3, #4]
 c10577c:	e59f3164 	ldr	r3, [pc, #356]	; c1058e8 <rtc_puttime+0x29c>
 c105780:	e0831392 	umull	r1, r3, r2, r3
 c105784:	e1a031a3 	lsr	r3, r3, #3
 c105788:	e20330ff 	and	r3, r3, #255	; 0xff
 c10578c:	e1a0c203 	lsl	ip, r3, #4
 c105790:	e51b3010 	ldr	r3, [fp, #-16]
 c105794:	e5d32004 	ldrb	r2, [r3, #4]
 c105798:	e59f3148 	ldr	r3, [pc, #328]	; c1058e8 <rtc_puttime+0x29c>
 c10579c:	e0831392 	umull	r1, r3, r2, r3
 c1057a0:	e1a011a3 	lsr	r1, r3, #3
 c1057a4:	e1a03001 	mov	r3, r1
 c1057a8:	e1a03103 	lsl	r3, r3, #2
 c1057ac:	e0833001 	add	r3, r3, r1
 c1057b0:	e1a03083 	lsl	r3, r3, #1
 c1057b4:	e0633002 	rsb	r3, r3, r2
 c1057b8:	e20330ff 	and	r3, r3, #255	; 0xff
 c1057bc:	e08c3003 	add	r3, ip, r3
 c1057c0:	e5803000 	str	r3, [r0]
 c1057c4:	e59f012c 	ldr	r0, [pc, #300]	; c1058f8 <rtc_puttime+0x2ac>
 c1057c8:	e51b3010 	ldr	r3, [fp, #-16]
 c1057cc:	e5d32002 	ldrb	r2, [r3, #2]
 c1057d0:	e59f3110 	ldr	r3, [pc, #272]	; c1058e8 <rtc_puttime+0x29c>
 c1057d4:	e0831392 	umull	r1, r3, r2, r3
 c1057d8:	e1a031a3 	lsr	r3, r3, #3
 c1057dc:	e20330ff 	and	r3, r3, #255	; 0xff
 c1057e0:	e1a0c203 	lsl	ip, r3, #4
 c1057e4:	e51b3010 	ldr	r3, [fp, #-16]
 c1057e8:	e5d32002 	ldrb	r2, [r3, #2]
 c1057ec:	e59f30f4 	ldr	r3, [pc, #244]	; c1058e8 <rtc_puttime+0x29c>
 c1057f0:	e0831392 	umull	r1, r3, r2, r3
 c1057f4:	e1a011a3 	lsr	r1, r3, #3
 c1057f8:	e1a03001 	mov	r3, r1
 c1057fc:	e1a03103 	lsl	r3, r3, #2
 c105800:	e0833001 	add	r3, r3, r1
 c105804:	e1a03083 	lsl	r3, r3, #1
 c105808:	e0633002 	rsb	r3, r3, r2
 c10580c:	e20330ff 	and	r3, r3, #255	; 0xff
 c105810:	e08c3003 	add	r3, ip, r3
 c105814:	e5803000 	str	r3, [r0]
 c105818:	e59f00dc 	ldr	r0, [pc, #220]	; c1058fc <rtc_puttime+0x2b0>
 c10581c:	e51b3010 	ldr	r3, [fp, #-16]
 c105820:	e5d32001 	ldrb	r2, [r3, #1]
 c105824:	e59f30bc 	ldr	r3, [pc, #188]	; c1058e8 <rtc_puttime+0x29c>
 c105828:	e0831392 	umull	r1, r3, r2, r3
 c10582c:	e1a031a3 	lsr	r3, r3, #3
 c105830:	e20330ff 	and	r3, r3, #255	; 0xff
 c105834:	e1a0c203 	lsl	ip, r3, #4
 c105838:	e51b3010 	ldr	r3, [fp, #-16]
 c10583c:	e5d32001 	ldrb	r2, [r3, #1]
 c105840:	e59f30a0 	ldr	r3, [pc, #160]	; c1058e8 <rtc_puttime+0x29c>
 c105844:	e0831392 	umull	r1, r3, r2, r3
 c105848:	e1a011a3 	lsr	r1, r3, #3
 c10584c:	e1a03001 	mov	r3, r1
 c105850:	e1a03103 	lsl	r3, r3, #2
 c105854:	e0833001 	add	r3, r3, r1
 c105858:	e1a03083 	lsl	r3, r3, #1
 c10585c:	e0633002 	rsb	r3, r3, r2
 c105860:	e20330ff 	and	r3, r3, #255	; 0xff
 c105864:	e08c3003 	add	r3, ip, r3
 c105868:	e5803000 	str	r3, [r0]
 c10586c:	e59f008c 	ldr	r0, [pc, #140]	; c105900 <rtc_puttime+0x2b4>
 c105870:	e51b3010 	ldr	r3, [fp, #-16]
 c105874:	e5d32000 	ldrb	r2, [r3]
 c105878:	e59f3068 	ldr	r3, [pc, #104]	; c1058e8 <rtc_puttime+0x29c>
 c10587c:	e0831392 	umull	r1, r3, r2, r3
 c105880:	e1a031a3 	lsr	r3, r3, #3
 c105884:	e20330ff 	and	r3, r3, #255	; 0xff
 c105888:	e1a0c203 	lsl	ip, r3, #4
 c10588c:	e51b3010 	ldr	r3, [fp, #-16]
 c105890:	e5d32000 	ldrb	r2, [r3]
 c105894:	e59f304c 	ldr	r3, [pc, #76]	; c1058e8 <rtc_puttime+0x29c>
 c105898:	e0831392 	umull	r1, r3, r2, r3
 c10589c:	e1a011a3 	lsr	r1, r3, #3
 c1058a0:	e1a03001 	mov	r3, r1
 c1058a4:	e1a03103 	lsl	r3, r3, #2
 c1058a8:	e0833001 	add	r3, r3, r1
 c1058ac:	e1a03083 	lsl	r3, r3, #1
 c1058b0:	e0633002 	rsb	r3, r3, r2
 c1058b4:	e20330ff 	and	r3, r3, #255	; 0xff
 c1058b8:	e08c3003 	add	r3, ip, r3
 c1058bc:	e5803000 	str	r3, [r0]
 c1058c0:	e59f3018 	ldr	r3, [pc, #24]	; c1058e0 <rtc_puttime+0x294>
 c1058c4:	e59f2014 	ldr	r2, [pc, #20]	; c1058e0 <rtc_puttime+0x294>
 c1058c8:	e5922000 	ldr	r2, [r2]
 c1058cc:	e3c22001 	bic	r2, r2, #1
 c1058d0:	e5832000 	str	r2, [r3]
 c1058d4:	e24bd00c 	sub	sp, fp, #12
 c1058d8:	e89d6800 	ldm	sp, {fp, sp, lr}
 c1058dc:	e12fff1e 	bx	lr
 c1058e0:	01d70040 	.word	0x01d70040
 c1058e4:	01d70088 	.word	0x01d70088
 c1058e8:	cccccccd 	.word	0xcccccccd
 c1058ec:	01d70084 	.word	0x01d70084
 c1058f0:	01d7007c 	.word	0x01d7007c
 c1058f4:	01d70080 	.word	0x01d70080
 c1058f8:	01d70078 	.word	0x01d70078
 c1058fc:	01d70074 	.word	0x01d70074
 c105900:	01d70070 	.word	0x01d70070

0c105904 <rtc_gettime>:
 c105904:	e1a0c00d 	mov	ip, sp
 c105908:	e92dd800 	push	{fp, ip, lr, pc}
 c10590c:	e24cb004 	sub	fp, ip, #4
 c105910:	e24dd008 	sub	sp, sp, #8
 c105914:	e50b0010 	str	r0, [fp, #-16]
 c105918:	e59f342c 	ldr	r3, [pc, #1068]	; c105d4c <rtc_gettime+0x448>
 c10591c:	e59f2428 	ldr	r2, [pc, #1064]	; c105d4c <rtc_gettime+0x448>
 c105920:	e5922000 	ldr	r2, [r2]
 c105924:	e3822001 	orr	r2, r2, #1
 c105928:	e5832000 	str	r2, [r3]
 c10592c:	e59f341c 	ldr	r3, [pc, #1052]	; c105d50 <rtc_gettime+0x44c>
 c105930:	e5933000 	ldr	r3, [r3]
 c105934:	e1a03223 	lsr	r3, r3, #4
 c105938:	e20330ff 	and	r3, r3, #255	; 0xff
 c10593c:	e1a02003 	mov	r2, r3
 c105940:	e1a02102 	lsl	r2, r2, #2
 c105944:	e0823003 	add	r3, r2, r3
 c105948:	e1a03083 	lsl	r3, r3, #1
 c10594c:	e20320ff 	and	r2, r3, #255	; 0xff
 c105950:	e59f33f8 	ldr	r3, [pc, #1016]	; c105d50 <rtc_gettime+0x44c>
 c105954:	e5933000 	ldr	r3, [r3]
 c105958:	e20330ff 	and	r3, r3, #255	; 0xff
 c10595c:	e203300f 	and	r3, r3, #15
 c105960:	e20330ff 	and	r3, r3, #255	; 0xff
 c105964:	e0823003 	add	r3, r2, r3
 c105968:	e20320ff 	and	r2, r3, #255	; 0xff
 c10596c:	e51b3010 	ldr	r3, [fp, #-16]
 c105970:	e5c32006 	strb	r2, [r3, #6]
 c105974:	e59f33d8 	ldr	r3, [pc, #984]	; c105d54 <rtc_gettime+0x450>
 c105978:	e5933000 	ldr	r3, [r3]
 c10597c:	e1a03223 	lsr	r3, r3, #4
 c105980:	e20330ff 	and	r3, r3, #255	; 0xff
 c105984:	e1a02003 	mov	r2, r3
 c105988:	e1a02102 	lsl	r2, r2, #2
 c10598c:	e0823003 	add	r3, r2, r3
 c105990:	e1a03083 	lsl	r3, r3, #1
 c105994:	e20320ff 	and	r2, r3, #255	; 0xff
 c105998:	e59f33b4 	ldr	r3, [pc, #948]	; c105d54 <rtc_gettime+0x450>
 c10599c:	e5933000 	ldr	r3, [r3]
 c1059a0:	e20330ff 	and	r3, r3, #255	; 0xff
 c1059a4:	e203300f 	and	r3, r3, #15
 c1059a8:	e20330ff 	and	r3, r3, #255	; 0xff
 c1059ac:	e0823003 	add	r3, r2, r3
 c1059b0:	e20320ff 	and	r2, r3, #255	; 0xff
 c1059b4:	e51b3010 	ldr	r3, [fp, #-16]
 c1059b8:	e5c32005 	strb	r2, [r3, #5]
 c1059bc:	e59f3394 	ldr	r3, [pc, #916]	; c105d58 <rtc_gettime+0x454>
 c1059c0:	e5933000 	ldr	r3, [r3]
 c1059c4:	e1a03223 	lsr	r3, r3, #4
 c1059c8:	e20330ff 	and	r3, r3, #255	; 0xff
 c1059cc:	e1a02003 	mov	r2, r3
 c1059d0:	e1a02102 	lsl	r2, r2, #2
 c1059d4:	e0823003 	add	r3, r2, r3
 c1059d8:	e1a03083 	lsl	r3, r3, #1
 c1059dc:	e20320ff 	and	r2, r3, #255	; 0xff
 c1059e0:	e59f3370 	ldr	r3, [pc, #880]	; c105d58 <rtc_gettime+0x454>
 c1059e4:	e5933000 	ldr	r3, [r3]
 c1059e8:	e20330ff 	and	r3, r3, #255	; 0xff
 c1059ec:	e203300f 	and	r3, r3, #15
 c1059f0:	e20330ff 	and	r3, r3, #255	; 0xff
 c1059f4:	e0823003 	add	r3, r2, r3
 c1059f8:	e20320ff 	and	r2, r3, #255	; 0xff
 c1059fc:	e51b3010 	ldr	r3, [fp, #-16]
 c105a00:	e5c32003 	strb	r2, [r3, #3]
 c105a04:	e59f3350 	ldr	r3, [pc, #848]	; c105d5c <rtc_gettime+0x458>
 c105a08:	e5933000 	ldr	r3, [r3]
 c105a0c:	e1a03223 	lsr	r3, r3, #4
 c105a10:	e20330ff 	and	r3, r3, #255	; 0xff
 c105a14:	e1a02003 	mov	r2, r3
 c105a18:	e1a02102 	lsl	r2, r2, #2
 c105a1c:	e0823003 	add	r3, r2, r3
 c105a20:	e1a03083 	lsl	r3, r3, #1
 c105a24:	e20320ff 	and	r2, r3, #255	; 0xff
 c105a28:	e59f332c 	ldr	r3, [pc, #812]	; c105d5c <rtc_gettime+0x458>
 c105a2c:	e5933000 	ldr	r3, [r3]
 c105a30:	e20330ff 	and	r3, r3, #255	; 0xff
 c105a34:	e203300f 	and	r3, r3, #15
 c105a38:	e20330ff 	and	r3, r3, #255	; 0xff
 c105a3c:	e0823003 	add	r3, r2, r3
 c105a40:	e20320ff 	and	r2, r3, #255	; 0xff
 c105a44:	e51b3010 	ldr	r3, [fp, #-16]
 c105a48:	e5c32004 	strb	r2, [r3, #4]
 c105a4c:	e59f330c 	ldr	r3, [pc, #780]	; c105d60 <rtc_gettime+0x45c>
 c105a50:	e5933000 	ldr	r3, [r3]
 c105a54:	e1a03223 	lsr	r3, r3, #4
 c105a58:	e20330ff 	and	r3, r3, #255	; 0xff
 c105a5c:	e1a02003 	mov	r2, r3
 c105a60:	e1a02102 	lsl	r2, r2, #2
 c105a64:	e0823003 	add	r3, r2, r3
 c105a68:	e1a03083 	lsl	r3, r3, #1
 c105a6c:	e20320ff 	and	r2, r3, #255	; 0xff
 c105a70:	e59f32e8 	ldr	r3, [pc, #744]	; c105d60 <rtc_gettime+0x45c>
 c105a74:	e5933000 	ldr	r3, [r3]
 c105a78:	e20330ff 	and	r3, r3, #255	; 0xff
 c105a7c:	e203300f 	and	r3, r3, #15
 c105a80:	e20330ff 	and	r3, r3, #255	; 0xff
 c105a84:	e0823003 	add	r3, r2, r3
 c105a88:	e20320ff 	and	r2, r3, #255	; 0xff
 c105a8c:	e51b3010 	ldr	r3, [fp, #-16]
 c105a90:	e5c32002 	strb	r2, [r3, #2]
 c105a94:	e59f32c8 	ldr	r3, [pc, #712]	; c105d64 <rtc_gettime+0x460>
 c105a98:	e5933000 	ldr	r3, [r3]
 c105a9c:	e1a03223 	lsr	r3, r3, #4
 c105aa0:	e20330ff 	and	r3, r3, #255	; 0xff
 c105aa4:	e1a02003 	mov	r2, r3
 c105aa8:	e1a02102 	lsl	r2, r2, #2
 c105aac:	e0823003 	add	r3, r2, r3
 c105ab0:	e1a03083 	lsl	r3, r3, #1
 c105ab4:	e20320ff 	and	r2, r3, #255	; 0xff
 c105ab8:	e59f32a4 	ldr	r3, [pc, #676]	; c105d64 <rtc_gettime+0x460>
 c105abc:	e5933000 	ldr	r3, [r3]
 c105ac0:	e20330ff 	and	r3, r3, #255	; 0xff
 c105ac4:	e203300f 	and	r3, r3, #15
 c105ac8:	e20330ff 	and	r3, r3, #255	; 0xff
 c105acc:	e0823003 	add	r3, r2, r3
 c105ad0:	e20320ff 	and	r2, r3, #255	; 0xff
 c105ad4:	e51b3010 	ldr	r3, [fp, #-16]
 c105ad8:	e5c32001 	strb	r2, [r3, #1]
 c105adc:	e59f3284 	ldr	r3, [pc, #644]	; c105d68 <rtc_gettime+0x464>
 c105ae0:	e5933000 	ldr	r3, [r3]
 c105ae4:	e1a03223 	lsr	r3, r3, #4
 c105ae8:	e20330ff 	and	r3, r3, #255	; 0xff
 c105aec:	e1a02003 	mov	r2, r3
 c105af0:	e1a02102 	lsl	r2, r2, #2
 c105af4:	e0823003 	add	r3, r2, r3
 c105af8:	e1a03083 	lsl	r3, r3, #1
 c105afc:	e20320ff 	and	r2, r3, #255	; 0xff
 c105b00:	e59f3260 	ldr	r3, [pc, #608]	; c105d68 <rtc_gettime+0x464>
 c105b04:	e5933000 	ldr	r3, [r3]
 c105b08:	e20330ff 	and	r3, r3, #255	; 0xff
 c105b0c:	e203300f 	and	r3, r3, #15
 c105b10:	e20330ff 	and	r3, r3, #255	; 0xff
 c105b14:	e0823003 	add	r3, r2, r3
 c105b18:	e20320ff 	and	r2, r3, #255	; 0xff
 c105b1c:	e51b3010 	ldr	r3, [fp, #-16]
 c105b20:	e5c32000 	strb	r2, [r3]
 c105b24:	e51b3010 	ldr	r3, [fp, #-16]
 c105b28:	e5d33000 	ldrb	r3, [r3]
 c105b2c:	e3530000 	cmp	r3, #0
 c105b30:	1a00007d 	bne	c105d2c <rtc_gettime+0x428>
 c105b34:	e59f3214 	ldr	r3, [pc, #532]	; c105d50 <rtc_gettime+0x44c>
 c105b38:	e5933000 	ldr	r3, [r3]
 c105b3c:	e1a03223 	lsr	r3, r3, #4
 c105b40:	e20330ff 	and	r3, r3, #255	; 0xff
 c105b44:	e1a02003 	mov	r2, r3
 c105b48:	e1a02102 	lsl	r2, r2, #2
 c105b4c:	e0823003 	add	r3, r2, r3
 c105b50:	e1a03083 	lsl	r3, r3, #1
 c105b54:	e20320ff 	and	r2, r3, #255	; 0xff
 c105b58:	e59f31f0 	ldr	r3, [pc, #496]	; c105d50 <rtc_gettime+0x44c>
 c105b5c:	e5933000 	ldr	r3, [r3]
 c105b60:	e20330ff 	and	r3, r3, #255	; 0xff
 c105b64:	e203300f 	and	r3, r3, #15
 c105b68:	e20330ff 	and	r3, r3, #255	; 0xff
 c105b6c:	e0823003 	add	r3, r2, r3
 c105b70:	e20320ff 	and	r2, r3, #255	; 0xff
 c105b74:	e51b3010 	ldr	r3, [fp, #-16]
 c105b78:	e5c32006 	strb	r2, [r3, #6]
 c105b7c:	e59f31d0 	ldr	r3, [pc, #464]	; c105d54 <rtc_gettime+0x450>
 c105b80:	e5933000 	ldr	r3, [r3]
 c105b84:	e1a03223 	lsr	r3, r3, #4
 c105b88:	e20330ff 	and	r3, r3, #255	; 0xff
 c105b8c:	e1a02003 	mov	r2, r3
 c105b90:	e1a02102 	lsl	r2, r2, #2
 c105b94:	e0823003 	add	r3, r2, r3
 c105b98:	e1a03083 	lsl	r3, r3, #1
 c105b9c:	e20320ff 	and	r2, r3, #255	; 0xff
 c105ba0:	e59f31ac 	ldr	r3, [pc, #428]	; c105d54 <rtc_gettime+0x450>
 c105ba4:	e5933000 	ldr	r3, [r3]
 c105ba8:	e20330ff 	and	r3, r3, #255	; 0xff
 c105bac:	e203300f 	and	r3, r3, #15
 c105bb0:	e20330ff 	and	r3, r3, #255	; 0xff
 c105bb4:	e0823003 	add	r3, r2, r3
 c105bb8:	e20320ff 	and	r2, r3, #255	; 0xff
 c105bbc:	e51b3010 	ldr	r3, [fp, #-16]
 c105bc0:	e5c32005 	strb	r2, [r3, #5]
 c105bc4:	e59f318c 	ldr	r3, [pc, #396]	; c105d58 <rtc_gettime+0x454>
 c105bc8:	e5933000 	ldr	r3, [r3]
 c105bcc:	e1a03223 	lsr	r3, r3, #4
 c105bd0:	e20330ff 	and	r3, r3, #255	; 0xff
 c105bd4:	e1a02003 	mov	r2, r3
 c105bd8:	e1a02102 	lsl	r2, r2, #2
 c105bdc:	e0823003 	add	r3, r2, r3
 c105be0:	e1a03083 	lsl	r3, r3, #1
 c105be4:	e20320ff 	and	r2, r3, #255	; 0xff
 c105be8:	e59f3168 	ldr	r3, [pc, #360]	; c105d58 <rtc_gettime+0x454>
 c105bec:	e5933000 	ldr	r3, [r3]
 c105bf0:	e20330ff 	and	r3, r3, #255	; 0xff
 c105bf4:	e203300f 	and	r3, r3, #15
 c105bf8:	e20330ff 	and	r3, r3, #255	; 0xff
 c105bfc:	e0823003 	add	r3, r2, r3
 c105c00:	e20320ff 	and	r2, r3, #255	; 0xff
 c105c04:	e51b3010 	ldr	r3, [fp, #-16]
 c105c08:	e5c32003 	strb	r2, [r3, #3]
 c105c0c:	e59f3148 	ldr	r3, [pc, #328]	; c105d5c <rtc_gettime+0x458>
 c105c10:	e5933000 	ldr	r3, [r3]
 c105c14:	e1a03223 	lsr	r3, r3, #4
 c105c18:	e20330ff 	and	r3, r3, #255	; 0xff
 c105c1c:	e1a02003 	mov	r2, r3
 c105c20:	e1a02102 	lsl	r2, r2, #2
 c105c24:	e0823003 	add	r3, r2, r3
 c105c28:	e1a03083 	lsl	r3, r3, #1
 c105c2c:	e20320ff 	and	r2, r3, #255	; 0xff
 c105c30:	e59f3124 	ldr	r3, [pc, #292]	; c105d5c <rtc_gettime+0x458>
 c105c34:	e5933000 	ldr	r3, [r3]
 c105c38:	e20330ff 	and	r3, r3, #255	; 0xff
 c105c3c:	e203300f 	and	r3, r3, #15
 c105c40:	e20330ff 	and	r3, r3, #255	; 0xff
 c105c44:	e0823003 	add	r3, r2, r3
 c105c48:	e20320ff 	and	r2, r3, #255	; 0xff
 c105c4c:	e51b3010 	ldr	r3, [fp, #-16]
 c105c50:	e5c32004 	strb	r2, [r3, #4]
 c105c54:	e59f3104 	ldr	r3, [pc, #260]	; c105d60 <rtc_gettime+0x45c>
 c105c58:	e5933000 	ldr	r3, [r3]
 c105c5c:	e1a03223 	lsr	r3, r3, #4
 c105c60:	e20330ff 	and	r3, r3, #255	; 0xff
 c105c64:	e1a02003 	mov	r2, r3
 c105c68:	e1a02102 	lsl	r2, r2, #2
 c105c6c:	e0823003 	add	r3, r2, r3
 c105c70:	e1a03083 	lsl	r3, r3, #1
 c105c74:	e20320ff 	and	r2, r3, #255	; 0xff
 c105c78:	e59f30e0 	ldr	r3, [pc, #224]	; c105d60 <rtc_gettime+0x45c>
 c105c7c:	e5933000 	ldr	r3, [r3]
 c105c80:	e20330ff 	and	r3, r3, #255	; 0xff
 c105c84:	e203300f 	and	r3, r3, #15
 c105c88:	e20330ff 	and	r3, r3, #255	; 0xff
 c105c8c:	e0823003 	add	r3, r2, r3
 c105c90:	e20320ff 	and	r2, r3, #255	; 0xff
 c105c94:	e51b3010 	ldr	r3, [fp, #-16]
 c105c98:	e5c32002 	strb	r2, [r3, #2]
 c105c9c:	e59f30c0 	ldr	r3, [pc, #192]	; c105d64 <rtc_gettime+0x460>
 c105ca0:	e5933000 	ldr	r3, [r3]
 c105ca4:	e1a03223 	lsr	r3, r3, #4
 c105ca8:	e20330ff 	and	r3, r3, #255	; 0xff
 c105cac:	e1a02003 	mov	r2, r3
 c105cb0:	e1a02102 	lsl	r2, r2, #2
 c105cb4:	e0823003 	add	r3, r2, r3
 c105cb8:	e1a03083 	lsl	r3, r3, #1
 c105cbc:	e20320ff 	and	r2, r3, #255	; 0xff
 c105cc0:	e59f309c 	ldr	r3, [pc, #156]	; c105d64 <rtc_gettime+0x460>
 c105cc4:	e5933000 	ldr	r3, [r3]
 c105cc8:	e20330ff 	and	r3, r3, #255	; 0xff
 c105ccc:	e203300f 	and	r3, r3, #15
 c105cd0:	e20330ff 	and	r3, r3, #255	; 0xff
 c105cd4:	e0823003 	add	r3, r2, r3
 c105cd8:	e20320ff 	and	r2, r3, #255	; 0xff
 c105cdc:	e51b3010 	ldr	r3, [fp, #-16]
 c105ce0:	e5c32001 	strb	r2, [r3, #1]
 c105ce4:	e59f307c 	ldr	r3, [pc, #124]	; c105d68 <rtc_gettime+0x464>
 c105ce8:	e5933000 	ldr	r3, [r3]
 c105cec:	e1a03223 	lsr	r3, r3, #4
 c105cf0:	e20330ff 	and	r3, r3, #255	; 0xff
 c105cf4:	e1a02003 	mov	r2, r3
 c105cf8:	e1a02102 	lsl	r2, r2, #2
 c105cfc:	e0823003 	add	r3, r2, r3
 c105d00:	e1a03083 	lsl	r3, r3, #1
 c105d04:	e20320ff 	and	r2, r3, #255	; 0xff
 c105d08:	e59f3058 	ldr	r3, [pc, #88]	; c105d68 <rtc_gettime+0x464>
 c105d0c:	e5933000 	ldr	r3, [r3]
 c105d10:	e20330ff 	and	r3, r3, #255	; 0xff
 c105d14:	e203300f 	and	r3, r3, #15
 c105d18:	e20330ff 	and	r3, r3, #255	; 0xff
 c105d1c:	e0823003 	add	r3, r2, r3
 c105d20:	e20320ff 	and	r2, r3, #255	; 0xff
 c105d24:	e51b3010 	ldr	r3, [fp, #-16]
 c105d28:	e5c32000 	strb	r2, [r3]
 c105d2c:	e59f3018 	ldr	r3, [pc, #24]	; c105d4c <rtc_gettime+0x448>
 c105d30:	e59f2014 	ldr	r2, [pc, #20]	; c105d4c <rtc_gettime+0x448>
 c105d34:	e5922000 	ldr	r2, [r2]
 c105d38:	e3c22001 	bic	r2, r2, #1
 c105d3c:	e5832000 	str	r2, [r3]
 c105d40:	e24bd00c 	sub	sp, fp, #12
 c105d44:	e89d6800 	ldm	sp, {fp, sp, lr}
 c105d48:	e12fff1e 	bx	lr
 c105d4c:	01d70040 	.word	0x01d70040
 c105d50:	01d70088 	.word	0x01d70088
 c105d54:	01d70084 	.word	0x01d70084
 c105d58:	01d7007c 	.word	0x01d7007c
 c105d5c:	01d70080 	.word	0x01d70080
 c105d60:	01d70078 	.word	0x01d70078
 c105d64:	01d70074 	.word	0x01d70074
 c105d68:	01d70070 	.word	0x01d70070

0c105d6c <rtc_open>:
 c105d6c:	e1a0c00d 	mov	ip, sp
 c105d70:	e92dd800 	push	{fp, ip, lr, pc}
 c105d74:	e24cb004 	sub	fp, ip, #4
 c105d78:	e24dd008 	sub	sp, sp, #8
 c105d7c:	e50b0010 	str	r0, [fp, #-16]
 c105d80:	e1a03001 	mov	r3, r1
 c105d84:	e54b3011 	strb	r3, [fp, #-17]	; 0xffffffef
 c105d88:	e59f3040 	ldr	r3, [pc, #64]	; c105dd0 <rtc_open+0x64>
 c105d8c:	e51b2010 	ldr	r2, [fp, #-16]
 c105d90:	e5832000 	str	r2, [r3]
 c105d94:	e59f3038 	ldr	r3, [pc, #56]	; c105dd4 <rtc_open+0x68>
 c105d98:	e3a02601 	mov	r2, #1048576	; 0x100000
 c105d9c:	e5832000 	str	r2, [r3]
 c105da0:	e59f3030 	ldr	r3, [pc, #48]	; c105dd8 <rtc_open+0x6c>
 c105da4:	e59f202c 	ldr	r2, [pc, #44]	; c105dd8 <rtc_open+0x6c>
 c105da8:	e5922000 	ldr	r2, [r2]
 c105dac:	e3c22641 	bic	r2, r2, #68157440	; 0x4100000
 c105db0:	e5832000 	str	r2, [r3]
 c105db4:	e59f3020 	ldr	r3, [pc, #32]	; c105ddc <rtc_open+0x70>
 c105db8:	e55b2011 	ldrb	r2, [fp, #-17]	; 0xffffffef
 c105dbc:	e3822080 	orr	r2, r2, #128	; 0x80
 c105dc0:	e5832000 	str	r2, [r3]
 c105dc4:	e24bd00c 	sub	sp, fp, #12
 c105dc8:	e89d6800 	ldm	sp, {fp, sp, lr}
 c105dcc:	e12fff1e 	bx	lr
 c105dd0:	0c7fff70 	.word	0x0c7fff70
 c105dd4:	01e00024 	.word	0x01e00024
 c105dd8:	01e0000c 	.word	0x01e0000c
 c105ddc:	01d7008c 	.word	0x01d7008c

0c105de0 <rtc_close>:
 c105de0:	e1a0c00d 	mov	ip, sp
 c105de4:	e92dd800 	push	{fp, ip, lr, pc}
 c105de8:	e24cb004 	sub	fp, ip, #4
 c105dec:	e59f3030 	ldr	r3, [pc, #48]	; c105e24 <rtc_close+0x44>
 c105df0:	e3a02000 	mov	r2, #0
 c105df4:	e5832000 	str	r2, [r3]
 c105df8:	e59f3028 	ldr	r3, [pc, #40]	; c105e28 <rtc_close+0x48>
 c105dfc:	e59f2024 	ldr	r2, [pc, #36]	; c105e28 <rtc_close+0x48>
 c105e00:	e5922000 	ldr	r2, [r2]
 c105e04:	e3822601 	orr	r2, r2, #1048576	; 0x100000
 c105e08:	e5832000 	str	r2, [r3]
 c105e0c:	e59f3018 	ldr	r3, [pc, #24]	; c105e2c <rtc_close+0x4c>
 c105e10:	e59f2018 	ldr	r2, [pc, #24]	; c105e30 <rtc_close+0x50>
 c105e14:	e5832000 	str	r2, [r3]
 c105e18:	e24bd00c 	sub	sp, fp, #12
 c105e1c:	e89d6800 	ldm	sp, {fp, sp, lr}
 c105e20:	e12fff1e 	bx	lr
 c105e24:	01d7008c 	.word	0x01d7008c
 c105e28:	01e0000c 	.word	0x01e0000c
 c105e2c:	0c7fff70 	.word	0x0c7fff70
 c105e30:	0c106f44 	.word	0x0c106f44

0c105e34 <segs_init>:
 c105e34:	e1a0c00d 	mov	ip, sp
 c105e38:	e92dd800 	push	{fp, ip, lr, pc}
 c105e3c:	e24cb004 	sub	fp, ip, #4
 c105e40:	e3a0000a 	mov	r0, #10
 c105e44:	ebfffd2a 	bl	c1052f4 <power_on>
 c105e48:	e59f301c 	ldr	r3, [pc, #28]	; c105e6c <segs_init+0x38>
 c105e4c:	e59f2018 	ldr	r2, [pc, #24]	; c105e6c <segs_init+0x38>
 c105e50:	e5922000 	ldr	r2, [r2]
 c105e54:	e3822040 	orr	r2, r2, #64	; 0x40
 c105e58:	e5832000 	str	r2, [r3]
 c105e5c:	eb000003 	bl	c105e70 <segs_off>
 c105e60:	e24bd00c 	sub	sp, fp, #12
 c105e64:	e89d6800 	ldm	sp, {fp, sp, lr}
 c105e68:	e12fff1e 	bx	lr
 c105e6c:	01d20008 	.word	0x01d20008

0c105e70 <segs_off>:
 c105e70:	e1a0c00d 	mov	ip, sp
 c105e74:	e92dd800 	push	{fp, ip, lr, pc}
 c105e78:	e24cb004 	sub	fp, ip, #4
 c105e7c:	e59f3020 	ldr	r3, [pc, #32]	; c105ea4 <segs_off+0x34>
 c105e80:	e3e02000 	mvn	r2, #0
 c105e84:	e5c32000 	strb	r2, [r3]
 c105e88:	e3a03785 	mov	r3, #34865152	; 0x2140000
 c105e8c:	e59f2010 	ldr	r2, [pc, #16]	; c105ea4 <segs_off+0x34>
 c105e90:	e5d22000 	ldrb	r2, [r2]
 c105e94:	e5c32000 	strb	r2, [r3]
 c105e98:	e24bd00c 	sub	sp, fp, #12
 c105e9c:	e89d6800 	ldm	sp, {fp, sp, lr}
 c105ea0:	e12fff1e 	bx	lr
 c105ea4:	0c1154f0 	.word	0x0c1154f0

0c105ea8 <segs_putchar>:
 c105ea8:	e1a0c00d 	mov	ip, sp
 c105eac:	e92dd800 	push	{fp, ip, lr, pc}
 c105eb0:	e24cb004 	sub	fp, ip, #4
 c105eb4:	e24dd008 	sub	sp, sp, #8
 c105eb8:	e1a03000 	mov	r3, r0
 c105ebc:	e54b300d 	strb	r3, [fp, #-13]
 c105ec0:	e55b300d 	ldrb	r3, [fp, #-13]
 c105ec4:	e203300f 	and	r3, r3, #15
 c105ec8:	e20320ff 	and	r2, r3, #255	; 0xff
 c105ecc:	e59f3024 	ldr	r3, [pc, #36]	; c105ef8 <segs_putchar+0x50>
 c105ed0:	e5c32000 	strb	r2, [r3]
 c105ed4:	e3a03785 	mov	r3, #34865152	; 0x2140000
 c105ed8:	e59f2018 	ldr	r2, [pc, #24]	; c105ef8 <segs_putchar+0x50>
 c105edc:	e5d22000 	ldrb	r2, [r2]
 c105ee0:	e59f1014 	ldr	r1, [pc, #20]	; c105efc <segs_putchar+0x54>
 c105ee4:	e7d12002 	ldrb	r2, [r1, r2]
 c105ee8:	e5c32000 	strb	r2, [r3]
 c105eec:	e24bd00c 	sub	sp, fp, #12
 c105ef0:	e89d6800 	ldm	sp, {fp, sp, lr}
 c105ef4:	e12fff1e 	bx	lr
 c105ef8:	0c1154f0 	.word	0x0c1154f0
 c105efc:	0c10a654 	.word	0x0c10a654

0c105f00 <segs_status>:
 c105f00:	e1a0c00d 	mov	ip, sp
 c105f04:	e92dd800 	push	{fp, ip, lr, pc}
 c105f08:	e24cb004 	sub	fp, ip, #4
 c105f0c:	e59f3010 	ldr	r3, [pc, #16]	; c105f24 <segs_status+0x24>
 c105f10:	e5d33000 	ldrb	r3, [r3]
 c105f14:	e1a00003 	mov	r0, r3
 c105f18:	e24bd00c 	sub	sp, fp, #12
 c105f1c:	e89d6800 	ldm	sp, {fp, sp, lr}
 c105f20:	e12fff1e 	bx	lr
 c105f24:	0c1154f0 	.word	0x0c1154f0

0c105f28 <sys_init>:
 c105f28:	e1a0c00d 	mov	ip, sp
 c105f2c:	e92dd800 	push	{fp, ip, lr, pc}
 c105f30:	e24cb004 	sub	fp, ip, #4
 c105f34:	e24dd008 	sub	sp, sp, #8
 c105f38:	e59f3124 	ldr	r3, [pc, #292]	; c106064 <sys_init+0x13c>
 c105f3c:	e3a02000 	mov	r2, #0
 c105f40:	e5832000 	str	r2, [r3]
 c105f44:	e59f311c 	ldr	r3, [pc, #284]	; c106068 <sys_init+0x140>
 c105f48:	e3e02000 	mvn	r2, #0
 c105f4c:	e5832000 	str	r2, [r3]
 c105f50:	e10f0000 	mrs	r0, CPSR
 c105f54:	e200001f 	and	r0, r0, #31
 c105f58:	e54b000d 	strb	r0, [fp, #-13]
 c105f5c:	e55b300d 	ldrb	r3, [fp, #-13]
 c105f60:	e3530013 	cmp	r3, #19
 c105f64:	0a000000 	beq	c105f6c <sys_init+0x44>
 c105f68:	eb000051 	bl	c1060b4 <sys_recovery>
 c105f6c:	e59f30f8 	ldr	r3, [pc, #248]	; c10606c <sys_init+0x144>
 c105f70:	e59f20f8 	ldr	r2, [pc, #248]	; c106070 <sys_init+0x148>
 c105f74:	e5832000 	str	r2, [r3]
 c105f78:	e3a03776 	mov	r3, #30932992	; 0x1d80000
 c105f7c:	e59f20f0 	ldr	r2, [pc, #240]	; c106074 <sys_init+0x14c>
 c105f80:	e5832000 	str	r2, [r3]
 c105f84:	e59f30ec 	ldr	r3, [pc, #236]	; c106078 <sys_init+0x150>
 c105f88:	e59f20ec 	ldr	r2, [pc, #236]	; c10607c <sys_init+0x154>
 c105f8c:	e5832000 	str	r2, [r3]
 c105f90:	e59f30e8 	ldr	r3, [pc, #232]	; c106080 <sys_init+0x158>
 c105f94:	e3a02008 	mov	r2, #8
 c105f98:	e5832000 	str	r2, [r3]
 c105f9c:	e59f30e0 	ldr	r3, [pc, #224]	; c106084 <sys_init+0x15c>
 c105fa0:	e59f20e0 	ldr	r2, [pc, #224]	; c106088 <sys_init+0x160>
 c105fa4:	e5832000 	str	r2, [r3]
 c105fa8:	e59f30dc 	ldr	r3, [pc, #220]	; c10608c <sys_init+0x164>
 c105fac:	e59f20dc 	ldr	r2, [pc, #220]	; c106090 <sys_init+0x168>
 c105fb0:	e5832000 	str	r2, [r3]
 c105fb4:	e59f30bc 	ldr	r3, [pc, #188]	; c106078 <sys_init+0x150>
 c105fb8:	e5932000 	ldr	r2, [r3]
 c105fbc:	e59f30d0 	ldr	r3, [pc, #208]	; c106094 <sys_init+0x16c>
 c105fc0:	e5832000 	str	r2, [r3]
 c105fc4:	e3a03771 	mov	r3, #29622272	; 0x1c40000
 c105fc8:	e3a0216e 	mov	r2, #-2147483621	; 0x8000001b
 c105fcc:	e5832000 	str	r2, [r3]
 c105fd0:	e3a03507 	mov	r3, #29360128	; 0x1c00000
 c105fd4:	e3a02000 	mov	r2, #0
 c105fd8:	e5832000 	str	r2, [r3]
 c105fdc:	e59f30b4 	ldr	r3, [pc, #180]	; c106098 <sys_init+0x170>
 c105fe0:	e59f20b4 	ldr	r2, [pc, #180]	; c10609c <sys_init+0x174>
 c105fe4:	e5832000 	str	r2, [r3]
 c105fe8:	e59f30b0 	ldr	r3, [pc, #176]	; c1060a0 <sys_init+0x178>
 c105fec:	e59f20b0 	ldr	r2, [pc, #176]	; c1060a4 <sys_init+0x17c>
 c105ff0:	e5832000 	str	r2, [r3]
 c105ff4:	e59f30ac 	ldr	r3, [pc, #172]	; c1060a8 <sys_init+0x180>
 c105ff8:	e3a02000 	mov	r2, #0
 c105ffc:	e5832000 	str	r2, [r3]
 c106000:	eb000159 	bl	c10656c <install_dummy_isr>
 c106004:	e59f30a0 	ldr	r3, [pc, #160]	; c1060ac <sys_init+0x184>
 c106008:	e3e02000 	mvn	r2, #0
 c10600c:	e5832000 	str	r2, [r3]
 c106010:	e59f3098 	ldr	r3, [pc, #152]	; c1060b0 <sys_init+0x188>
 c106014:	e3e02000 	mvn	r2, #0
 c106018:	e5832000 	str	r2, [r3]
 c10601c:	e3a0361e 	mov	r3, #31457280	; 0x1e00000
 c106020:	e3a02001 	mov	r2, #1
 c106024:	e5832000 	str	r2, [r3]
 c106028:	e10f0000 	mrs	r0, CPSR
 c10602c:	e3c00080 	bic	r0, r0, #128	; 0x80
 c106030:	e3800000 	orr	r0, r0, #0
 c106034:	e121f000 	msr	CPSR_c, r0
 c106038:	e10f0000 	mrs	r0, CPSR
 c10603c:	e3c00040 	bic	r0, r0, #64	; 0x40
 c106040:	e3800040 	orr	r0, r0, #64	; 0x40
 c106044:	e121f000 	msr	CPSR_c, r0
 c106048:	eb0000a1 	bl	c1062d4 <port_init>
 c10604c:	ebffff78 	bl	c105e34 <segs_init>
 c106050:	eb000b1d 	bl	c108ccc <uart0_init>
 c106054:	eb000426 	bl	c1070f4 <show_sys_info>
 c106058:	e24bd00c 	sub	sp, fp, #12
 c10605c:	e89d6800 	ldm	sp, {fp, sp, lr}
 c106060:	e12fff1e 	bx	lr
 c106064:	01d30000 	.word	0x01d30000
 c106068:	01e0000c 	.word	0x01e0000c
 c10606c:	01d8000c 	.word	0x01d8000c
 c106070:	00000fff 	.word	0x00000fff
 c106074:	00038021 	.word	0x00038021
 c106078:	0c10bdf8 	.word	0x0c10bdf8
 c10607c:	03d09000 	.word	0x03d09000
 c106080:	01d80008 	.word	0x01d80008
 c106084:	0c10bdfc 	.word	0x0c10bdfc
 c106088:	0007a120 	.word	0x0007a120
 c10608c:	01d80004 	.word	0x01d80004
 c106090:	00007ff8 	.word	0x00007ff8
 c106094:	0c10be00 	.word	0x0c10be00
 c106098:	01e00014 	.word	0x01e00014
 c10609c:	00001f1b 	.word	0x00001f1b
 c1060a0:	01e00010 	.word	0x01e00010
 c1060a4:	1b1b1b1b 	.word	0x1b1b1b1b
 c1060a8:	01e00008 	.word	0x01e00008
 c1060ac:	01d20054 	.word	0x01d20054
 c1060b0:	01e00024 	.word	0x01e00024

0c1060b4 <sys_recovery>:
 c1060b4:	e1a0c00d 	mov	ip, sp
 c1060b8:	e92dd800 	push	{fp, ip, lr, pc}
 c1060bc:	e24cb004 	sub	fp, ip, #4
 c1060c0:	e24dd018 	sub	sp, sp, #24
 c1060c4:	e50bd01c 	str	sp, [fp, #-28]	; 0xffffffe4
 c1060c8:	e50bb020 	str	fp, [fp, #-32]	; 0xffffffe0
 c1060cc:	e10f0000 	mrs	r0, CPSR
 c1060d0:	e200001f 	and	r0, r0, #31
 c1060d4:	e54b0015 	strb	r0, [fp, #-21]	; 0xffffffeb
 c1060d8:	e55b3015 	ldrb	r3, [fp, #-21]	; 0xffffffeb
 c1060dc:	e2433011 	sub	r3, r3, #17
 c1060e0:	e353000a 	cmp	r3, #10
 c1060e4:	979ff103 	ldrls	pc, [pc, r3, lsl #2]
 c1060e8:	ea00001e 	b	c106168 <sys_recovery+0xb4>
 c1060ec:	0c10612c 	.word	0x0c10612c
 c1060f0:	0c106118 	.word	0x0c106118
 c1060f4:	0c106168 	.word	0x0c106168
 c1060f8:	0c106168 	.word	0x0c106168
 c1060fc:	0c106168 	.word	0x0c106168
 c106100:	0c106168 	.word	0x0c106168
 c106104:	0c106140 	.word	0x0c106140
 c106108:	0c106168 	.word	0x0c106168
 c10610c:	0c106168 	.word	0x0c106168
 c106110:	0c106168 	.word	0x0c106168
 c106114:	0c106154 	.word	0x0c106154
 c106118:	e3a03c03 	mov	r3, #768	; 0x300
 c10611c:	e50b3014 	str	r3, [fp, #-20]	; 0xffffffec
 c106120:	e59f3198 	ldr	r3, [pc, #408]	; c1062c0 <sys_recovery+0x20c>
 c106124:	e50b3024 	str	r3, [fp, #-36]	; 0xffffffdc
 c106128:	ea00000f 	b	c10616c <sys_recovery+0xb8>
 c10612c:	e3a03b01 	mov	r3, #1024	; 0x400
 c106130:	e50b3014 	str	r3, [fp, #-20]	; 0xffffffec
 c106134:	e59f3188 	ldr	r3, [pc, #392]	; c1062c4 <sys_recovery+0x210>
 c106138:	e50b3024 	str	r3, [fp, #-36]	; 0xffffffdc
 c10613c:	ea00000a 	b	c10616c <sys_recovery+0xb8>
 c106140:	e3a03c02 	mov	r3, #512	; 0x200
 c106144:	e50b3014 	str	r3, [fp, #-20]	; 0xffffffec
 c106148:	e59f3178 	ldr	r3, [pc, #376]	; c1062c8 <sys_recovery+0x214>
 c10614c:	e50b3024 	str	r3, [fp, #-36]	; 0xffffffdc
 c106150:	ea000005 	b	c10616c <sys_recovery+0xb8>
 c106154:	e3a03c01 	mov	r3, #256	; 0x100
 c106158:	e50b3014 	str	r3, [fp, #-20]	; 0xffffffec
 c10615c:	e59f3168 	ldr	r3, [pc, #360]	; c1062cc <sys_recovery+0x218>
 c106160:	e50b3024 	str	r3, [fp, #-36]	; 0xffffffdc
 c106164:	ea000000 	b	c10616c <sys_recovery+0xb8>
 c106168:	eafffffe 	b	c106168 <sys_recovery+0xb4>
 c10616c:	e51bd024 	ldr	sp, [fp, #-36]	; 0xffffffdc
 c106170:	e59f3158 	ldr	r3, [pc, #344]	; c1062d0 <sys_recovery+0x21c>
 c106174:	e50b3010 	str	r3, [fp, #-16]
 c106178:	ea000009 	b	c1061a4 <sys_recovery+0xf0>
 c10617c:	e51b3010 	ldr	r3, [fp, #-16]
 c106180:	e2433004 	sub	r3, r3, #4
 c106184:	e50b3010 	str	r3, [fp, #-16]
 c106188:	e51b3024 	ldr	r3, [fp, #-36]	; 0xffffffdc
 c10618c:	e2433004 	sub	r3, r3, #4
 c106190:	e50b3024 	str	r3, [fp, #-36]	; 0xffffffdc
 c106194:	e51b3024 	ldr	r3, [fp, #-36]	; 0xffffffdc
 c106198:	e5932000 	ldr	r2, [r3]
 c10619c:	e51b3010 	ldr	r3, [fp, #-16]
 c1061a0:	e5832000 	str	r2, [r3]
 c1061a4:	e51b301c 	ldr	r3, [fp, #-28]	; 0xffffffe4
 c1061a8:	e1a02003 	mov	r2, r3
 c1061ac:	e51b3024 	ldr	r3, [fp, #-36]	; 0xffffffdc
 c1061b0:	e1520003 	cmp	r2, r3
 c1061b4:	3afffff0 	bcc	c10617c <sys_recovery+0xc8>
 c1061b8:	e51b2020 	ldr	r2, [fp, #-32]	; 0xffffffe0
 c1061bc:	e51b3014 	ldr	r3, [fp, #-20]	; 0xffffffec
 c1061c0:	e0633002 	rsb	r3, r3, r2
 c1061c4:	e50b3010 	str	r3, [fp, #-16]
 c1061c8:	e51b3010 	ldr	r3, [fp, #-16]
 c1061cc:	e2433004 	sub	r3, r3, #4
 c1061d0:	e50b3010 	str	r3, [fp, #-16]
 c1061d4:	e51b3010 	ldr	r3, [fp, #-16]
 c1061d8:	e2433004 	sub	r3, r3, #4
 c1061dc:	e50b3010 	str	r3, [fp, #-16]
 c1061e0:	e51b3010 	ldr	r3, [fp, #-16]
 c1061e4:	e5932000 	ldr	r2, [r3]
 c1061e8:	e51b3014 	ldr	r3, [fp, #-20]	; 0xffffffec
 c1061ec:	e0632002 	rsb	r2, r3, r2
 c1061f0:	e51b3010 	ldr	r3, [fp, #-16]
 c1061f4:	e5832000 	str	r2, [r3]
 c1061f8:	e51b3010 	ldr	r3, [fp, #-16]
 c1061fc:	e2433004 	sub	r3, r3, #4
 c106200:	e50b3010 	str	r3, [fp, #-16]
 c106204:	e51b3010 	ldr	r3, [fp, #-16]
 c106208:	e5932000 	ldr	r2, [r3]
 c10620c:	e51b3014 	ldr	r3, [fp, #-20]	; 0xffffffec
 c106210:	e0632002 	rsb	r2, r3, r2
 c106214:	e51b3010 	ldr	r3, [fp, #-16]
 c106218:	e5832000 	str	r2, [r3]
 c10621c:	e51b3010 	ldr	r3, [fp, #-16]
 c106220:	e5933000 	ldr	r3, [r3]
 c106224:	e50b3010 	str	r3, [fp, #-16]
 c106228:	e51b3010 	ldr	r3, [fp, #-16]
 c10622c:	e2433004 	sub	r3, r3, #4
 c106230:	e50b3010 	str	r3, [fp, #-16]
 c106234:	e51b3010 	ldr	r3, [fp, #-16]
 c106238:	e2433004 	sub	r3, r3, #4
 c10623c:	e50b3010 	str	r3, [fp, #-16]
 c106240:	e51b3010 	ldr	r3, [fp, #-16]
 c106244:	e5932000 	ldr	r2, [r3]
 c106248:	e51b3014 	ldr	r3, [fp, #-20]	; 0xffffffec
 c10624c:	e0632002 	rsb	r2, r3, r2
 c106250:	e51b3010 	ldr	r3, [fp, #-16]
 c106254:	e5832000 	str	r2, [r3]
 c106258:	e51b3010 	ldr	r3, [fp, #-16]
 c10625c:	e2433004 	sub	r3, r3, #4
 c106260:	e50b3010 	str	r3, [fp, #-16]
 c106264:	e51b3010 	ldr	r3, [fp, #-16]
 c106268:	e5932000 	ldr	r2, [r3]
 c10626c:	e51b3014 	ldr	r3, [fp, #-20]	; 0xffffffec
 c106270:	e0632002 	rsb	r2, r3, r2
 c106274:	e51b3010 	ldr	r3, [fp, #-16]
 c106278:	e5832000 	str	r2, [r3]
 c10627c:	e10f0000 	mrs	r0, CPSR
 c106280:	e3c0001f 	bic	r0, r0, #31
 c106284:	e3800013 	orr	r0, r0, #19
 c106288:	e121f000 	msr	CPSR_c, r0
 c10628c:	e51b201c 	ldr	r2, [fp, #-28]	; 0xffffffe4
 c106290:	e51b3014 	ldr	r3, [fp, #-20]	; 0xffffffec
 c106294:	e0633002 	rsb	r3, r3, r2
 c106298:	e50b301c 	str	r3, [fp, #-28]	; 0xffffffe4
 c10629c:	e51bd01c 	ldr	sp, [fp, #-28]	; 0xffffffe4
 c1062a0:	e51b2020 	ldr	r2, [fp, #-32]	; 0xffffffe0
 c1062a4:	e51b3014 	ldr	r3, [fp, #-20]	; 0xffffffec
 c1062a8:	e0633002 	rsb	r3, r3, r2
 c1062ac:	e50b3020 	str	r3, [fp, #-32]	; 0xffffffe0
 c1062b0:	e51bb020 	ldr	fp, [fp, #-32]	; 0xffffffe0
 c1062b4:	e24bd00c 	sub	sp, fp, #12
 c1062b8:	e89d6800 	ldm	sp, {fp, sp, lr}
 c1062bc:	e12fff1e 	bx	lr
 c1062c0:	0c7ff400 	.word	0x0c7ff400
 c1062c4:	0c7ff500 	.word	0x0c7ff500
 c1062c8:	0c7ff300 	.word	0x0c7ff300
 c1062cc:	0c7ff200 	.word	0x0c7ff200
 c1062d0:	0c7ff100 	.word	0x0c7ff100

0c1062d4 <port_init>:
 c1062d4:	e1a0c00d 	mov	ip, sp
 c1062d8:	e92dd800 	push	{fp, ip, lr, pc}
 c1062dc:	e24cb004 	sub	fp, ip, #4
 c1062e0:	e59f31fc 	ldr	r3, [pc, #508]	; c1064e4 <port_init+0x210>
 c1062e4:	e3e02000 	mvn	r2, #0
 c1062e8:	e5832000 	str	r2, [r3]
 c1062ec:	e59f31f4 	ldr	r3, [pc, #500]	; c1064e8 <port_init+0x214>
 c1062f0:	e3a020fe 	mov	r2, #254	; 0xfe
 c1062f4:	e5832000 	str	r2, [r3]
 c1062f8:	e59f31ec 	ldr	r3, [pc, #492]	; c1064ec <port_init+0x218>
 c1062fc:	e3e02000 	mvn	r2, #0
 c106300:	e5832000 	str	r2, [r3]
 c106304:	e59f31e4 	ldr	r3, [pc, #484]	; c1064f0 <port_init+0x21c>
 c106308:	e59f21e4 	ldr	r2, [pc, #484]	; c1064f4 <port_init+0x220>
 c10630c:	e5832000 	str	r2, [r3]
 c106310:	e59f31e0 	ldr	r3, [pc, #480]	; c1064f8 <port_init+0x224>
 c106314:	e3e02000 	mvn	r2, #0
 c106318:	e5832000 	str	r2, [r3]
 c10631c:	e59f31d8 	ldr	r3, [pc, #472]	; c1064fc <port_init+0x228>
 c106320:	e59f21d8 	ldr	r2, [pc, #472]	; c106500 <port_init+0x22c>
 c106324:	e5832000 	str	r2, [r3]
 c106328:	e59f31d4 	ldr	r3, [pc, #468]	; c106504 <port_init+0x230>
 c10632c:	e3e02000 	mvn	r2, #0
 c106330:	e5832000 	str	r2, [r3]
 c106334:	e59f31cc 	ldr	r3, [pc, #460]	; c106508 <port_init+0x234>
 c106338:	e3e02000 	mvn	r2, #0
 c10633c:	e5832000 	str	r2, [r3]
 c106340:	e59f31c4 	ldr	r3, [pc, #452]	; c10650c <port_init+0x238>
 c106344:	e59f21c4 	ldr	r2, [pc, #452]	; c106510 <port_init+0x23c>
 c106348:	e5832000 	str	r2, [r3]
 c10634c:	e59f31c0 	ldr	r3, [pc, #448]	; c106514 <port_init+0x240>
 c106350:	e3e02000 	mvn	r2, #0
 c106354:	e5832000 	str	r2, [r3]
 c106358:	e59f31b8 	ldr	r3, [pc, #440]	; c106518 <port_init+0x244>
 c10635c:	e3e02000 	mvn	r2, #0
 c106360:	e5832000 	str	r2, [r3]
 c106364:	e59f31b0 	ldr	r3, [pc, #432]	; c10651c <port_init+0x248>
 c106368:	e59f21b0 	ldr	r2, [pc, #432]	; c106520 <port_init+0x24c>
 c10636c:	e5832000 	str	r2, [r3]
 c106370:	e59f31ac 	ldr	r3, [pc, #428]	; c106524 <port_init+0x250>
 c106374:	e3e02000 	mvn	r2, #0
 c106378:	e5832000 	str	r2, [r3]
 c10637c:	e59f31a4 	ldr	r3, [pc, #420]	; c106528 <port_init+0x254>
 c106380:	e3e02000 	mvn	r2, #0
 c106384:	e5832000 	str	r2, [r3]
 c106388:	e59f319c 	ldr	r3, [pc, #412]	; c10652c <port_init+0x258>
 c10638c:	e59f219c 	ldr	r2, [pc, #412]	; c106530 <port_init+0x25c>
 c106390:	e5832000 	str	r2, [r3]
 c106394:	e59f3198 	ldr	r3, [pc, #408]	; c106534 <port_init+0x260>
 c106398:	e3e02000 	mvn	r2, #0
 c10639c:	e5832000 	str	r2, [r3]
 c1063a0:	e59f3190 	ldr	r3, [pc, #400]	; c106538 <port_init+0x264>
 c1063a4:	e3e02000 	mvn	r2, #0
 c1063a8:	e5832000 	str	r2, [r3]
 c1063ac:	e59f3188 	ldr	r3, [pc, #392]	; c10653c <port_init+0x268>
 c1063b0:	e59f2158 	ldr	r2, [pc, #344]	; c106510 <port_init+0x23c>
 c1063b4:	e5832000 	str	r2, [r3]
 c1063b8:	e59f3180 	ldr	r3, [pc, #384]	; c106540 <port_init+0x26c>
 c1063bc:	e3e02000 	mvn	r2, #0
 c1063c0:	e5832000 	str	r2, [r3]
 c1063c4:	e59f3178 	ldr	r3, [pc, #376]	; c106544 <port_init+0x270>
 c1063c8:	e3a02007 	mov	r2, #7
 c1063cc:	e5832000 	str	r2, [r3]
 c1063d0:	e59f3170 	ldr	r3, [pc, #368]	; c106548 <port_init+0x274>
 c1063d4:	e59f2170 	ldr	r2, [pc, #368]	; c10654c <port_init+0x278>
 c1063d8:	e5832000 	str	r2, [r3]
 c1063dc:	e59f3100 	ldr	r3, [pc, #256]	; c1064e4 <port_init+0x210>
 c1063e0:	e3e02000 	mvn	r2, #0
 c1063e4:	e5832000 	str	r2, [r3]
 c1063e8:	e59f30f8 	ldr	r3, [pc, #248]	; c1064e8 <port_init+0x214>
 c1063ec:	e3a020fe 	mov	r2, #254	; 0xfe
 c1063f0:	e5832000 	str	r2, [r3]
 c1063f4:	e59f30f0 	ldr	r3, [pc, #240]	; c1064ec <port_init+0x218>
 c1063f8:	e3e02000 	mvn	r2, #0
 c1063fc:	e5832000 	str	r2, [r3]
 c106400:	e59f30e8 	ldr	r3, [pc, #232]	; c1064f0 <port_init+0x21c>
 c106404:	e59f20e8 	ldr	r2, [pc, #232]	; c1064f4 <port_init+0x220>
 c106408:	e5832000 	str	r2, [r3]
 c10640c:	e59f30e4 	ldr	r3, [pc, #228]	; c1064f8 <port_init+0x224>
 c106410:	e3e02000 	mvn	r2, #0
 c106414:	e5832000 	str	r2, [r3]
 c106418:	e59f30dc 	ldr	r3, [pc, #220]	; c1064fc <port_init+0x228>
 c10641c:	e59f212c 	ldr	r2, [pc, #300]	; c106550 <port_init+0x27c>
 c106420:	e5832000 	str	r2, [r3]
 c106424:	e59f30d8 	ldr	r3, [pc, #216]	; c106504 <port_init+0x230>
 c106428:	e59f2124 	ldr	r2, [pc, #292]	; c106554 <port_init+0x280>
 c10642c:	e5832000 	str	r2, [r3]
 c106430:	e59f30d0 	ldr	r3, [pc, #208]	; c106508 <port_init+0x234>
 c106434:	e3e02000 	mvn	r2, #0
 c106438:	e5832000 	str	r2, [r3]
 c10643c:	e59f30c8 	ldr	r3, [pc, #200]	; c10650c <port_init+0x238>
 c106440:	e59f2110 	ldr	r2, [pc, #272]	; c106558 <port_init+0x284>
 c106444:	e5832000 	str	r2, [r3]
 c106448:	e59f30c4 	ldr	r3, [pc, #196]	; c106514 <port_init+0x240>
 c10644c:	e3a020ff 	mov	r2, #255	; 0xff
 c106450:	e5832000 	str	r2, [r3]
 c106454:	e59f30bc 	ldr	r3, [pc, #188]	; c106518 <port_init+0x244>
 c106458:	e3e02000 	mvn	r2, #0
 c10645c:	e5832000 	str	r2, [r3]
 c106460:	e59f30b4 	ldr	r3, [pc, #180]	; c10651c <port_init+0x248>
 c106464:	e59f20f0 	ldr	r2, [pc, #240]	; c10655c <port_init+0x288>
 c106468:	e5832000 	str	r2, [r3]
 c10646c:	e59f30b0 	ldr	r3, [pc, #176]	; c106524 <port_init+0x250>
 c106470:	e3a020fb 	mov	r2, #251	; 0xfb
 c106474:	e5832000 	str	r2, [r3]
 c106478:	e59f30a8 	ldr	r3, [pc, #168]	; c106528 <port_init+0x254>
 c10647c:	e3e02000 	mvn	r2, #0
 c106480:	e5832000 	str	r2, [r3]
 c106484:	e59f30a0 	ldr	r3, [pc, #160]	; c10652c <port_init+0x258>
 c106488:	e59f20d0 	ldr	r2, [pc, #208]	; c106560 <port_init+0x28c>
 c10648c:	e5832000 	str	r2, [r3]
 c106490:	e59f309c 	ldr	r3, [pc, #156]	; c106534 <port_init+0x260>
 c106494:	e3a02074 	mov	r2, #116	; 0x74
 c106498:	e5832000 	str	r2, [r3]
 c10649c:	e59f3094 	ldr	r3, [pc, #148]	; c106538 <port_init+0x264>
 c1064a0:	e3e02000 	mvn	r2, #0
 c1064a4:	e5832000 	str	r2, [r3]
 c1064a8:	e59f308c 	ldr	r3, [pc, #140]	; c10653c <port_init+0x268>
 c1064ac:	e59f20b0 	ldr	r2, [pc, #176]	; c106564 <port_init+0x290>
 c1064b0:	e5832000 	str	r2, [r3]
 c1064b4:	e59f3084 	ldr	r3, [pc, #132]	; c106540 <port_init+0x26c>
 c1064b8:	e3a02030 	mov	r2, #48	; 0x30
 c1064bc:	e5832000 	str	r2, [r3]
 c1064c0:	e59f307c 	ldr	r3, [pc, #124]	; c106544 <port_init+0x270>
 c1064c4:	e3a02007 	mov	r2, #7
 c1064c8:	e5832000 	str	r2, [r3]
 c1064cc:	e59f3074 	ldr	r3, [pc, #116]	; c106548 <port_init+0x274>
 c1064d0:	e59f2090 	ldr	r2, [pc, #144]	; c106568 <port_init+0x294>
 c1064d4:	e5832000 	str	r2, [r3]
 c1064d8:	e24bd00c 	sub	sp, fp, #12
 c1064dc:	e89d6800 	ldm	sp, {fp, sp, lr}
 c1064e0:	e12fff1e 	bx	lr
 c1064e4:	01d20004 	.word	0x01d20004
 c1064e8:	01d20000 	.word	0x01d20000
 c1064ec:	01d2000c 	.word	0x01d2000c
 c1064f0:	01d20008 	.word	0x01d20008
 c1064f4:	0000014f 	.word	0x0000014f
 c1064f8:	01d20014 	.word	0x01d20014
 c1064fc:	01d20010 	.word	0x01d20010
 c106500:	55555555 	.word	0x55555555
 c106504:	01d20018 	.word	0x01d20018
 c106508:	01d20020 	.word	0x01d20020
 c10650c:	01d2001c 	.word	0x01d2001c
 c106510:	00005555 	.word	0x00005555
 c106514:	01d20024 	.word	0x01d20024
 c106518:	01d2002c 	.word	0x01d2002c
 c10651c:	01d20028 	.word	0x01d20028
 c106520:	00015555 	.word	0x00015555
 c106524:	01d20030 	.word	0x01d20030
 c106528:	01d20038 	.word	0x01d20038
 c10652c:	01d20034 	.word	0x01d20034
 c106530:	00002555 	.word	0x00002555
 c106534:	01d2003c 	.word	0x01d2003c
 c106538:	01d20044 	.word	0x01d20044
 c10653c:	01d20040 	.word	0x01d20040
 c106540:	01d20048 	.word	0x01d20048
 c106544:	01d2004c 	.word	0x01d2004c
 c106548:	01d20050 	.word	0x01d20050
 c10654c:	22222222 	.word	0x22222222
 c106550:	5ff555ff 	.word	0x5ff555ff
 c106554:	000094fb 	.word	0x000094fb
 c106558:	0000aaaa 	.word	0x0000aaaa
 c10655c:	000255a9 	.word	0x000255a9
 c106560:	0000251a 	.word	0x0000251a
 c106564:	0000f5ff 	.word	0x0000f5ff
 c106568:	22000220 	.word	0x22000220

0c10656c <install_dummy_isr>:
 c10656c:	e1a0c00d 	mov	ip, sp
 c106570:	e92dd800 	push	{fp, ip, lr, pc}
 c106574:	e24cb004 	sub	fp, ip, #4
 c106578:	e59f3184 	ldr	r3, [pc, #388]	; c106704 <install_dummy_isr+0x198>
 c10657c:	e59f2184 	ldr	r2, [pc, #388]	; c106708 <install_dummy_isr+0x19c>
 c106580:	e5832000 	str	r2, [r3]
 c106584:	e59f3180 	ldr	r3, [pc, #384]	; c10670c <install_dummy_isr+0x1a0>
 c106588:	e59f2180 	ldr	r2, [pc, #384]	; c106710 <install_dummy_isr+0x1a4>
 c10658c:	e5832000 	str	r2, [r3]
 c106590:	e59f317c 	ldr	r3, [pc, #380]	; c106714 <install_dummy_isr+0x1a8>
 c106594:	e59f217c 	ldr	r2, [pc, #380]	; c106718 <install_dummy_isr+0x1ac>
 c106598:	e5832000 	str	r2, [r3]
 c10659c:	e59f3178 	ldr	r3, [pc, #376]	; c10671c <install_dummy_isr+0x1b0>
 c1065a0:	e59f2178 	ldr	r2, [pc, #376]	; c106720 <install_dummy_isr+0x1b4>
 c1065a4:	e5832000 	str	r2, [r3]
 c1065a8:	e59f3174 	ldr	r3, [pc, #372]	; c106724 <install_dummy_isr+0x1b8>
 c1065ac:	e59f2174 	ldr	r2, [pc, #372]	; c106728 <install_dummy_isr+0x1bc>
 c1065b0:	e5832000 	str	r2, [r3]
 c1065b4:	e59f3170 	ldr	r3, [pc, #368]	; c10672c <install_dummy_isr+0x1c0>
 c1065b8:	e59f2170 	ldr	r2, [pc, #368]	; c106730 <install_dummy_isr+0x1c4>
 c1065bc:	e5832000 	str	r2, [r3]
 c1065c0:	e59f316c 	ldr	r3, [pc, #364]	; c106734 <install_dummy_isr+0x1c8>
 c1065c4:	e59f216c 	ldr	r2, [pc, #364]	; c106738 <install_dummy_isr+0x1cc>
 c1065c8:	e5832000 	str	r2, [r3]
 c1065cc:	e59f3168 	ldr	r3, [pc, #360]	; c10673c <install_dummy_isr+0x1d0>
 c1065d0:	e59f2168 	ldr	r2, [pc, #360]	; c106740 <install_dummy_isr+0x1d4>
 c1065d4:	e5832000 	str	r2, [r3]
 c1065d8:	e59f3164 	ldr	r3, [pc, #356]	; c106744 <install_dummy_isr+0x1d8>
 c1065dc:	e59f2164 	ldr	r2, [pc, #356]	; c106748 <install_dummy_isr+0x1dc>
 c1065e0:	e5832000 	str	r2, [r3]
 c1065e4:	e59f3160 	ldr	r3, [pc, #352]	; c10674c <install_dummy_isr+0x1e0>
 c1065e8:	e59f2160 	ldr	r2, [pc, #352]	; c106750 <install_dummy_isr+0x1e4>
 c1065ec:	e5832000 	str	r2, [r3]
 c1065f0:	e59f315c 	ldr	r3, [pc, #348]	; c106754 <install_dummy_isr+0x1e8>
 c1065f4:	e59f215c 	ldr	r2, [pc, #348]	; c106758 <install_dummy_isr+0x1ec>
 c1065f8:	e5832000 	str	r2, [r3]
 c1065fc:	e59f3158 	ldr	r3, [pc, #344]	; c10675c <install_dummy_isr+0x1f0>
 c106600:	e59f2158 	ldr	r2, [pc, #344]	; c106760 <install_dummy_isr+0x1f4>
 c106604:	e5832000 	str	r2, [r3]
 c106608:	e59f3154 	ldr	r3, [pc, #340]	; c106764 <install_dummy_isr+0x1f8>
 c10660c:	e59f2154 	ldr	r2, [pc, #340]	; c106768 <install_dummy_isr+0x1fc>
 c106610:	e5832000 	str	r2, [r3]
 c106614:	e59f3150 	ldr	r3, [pc, #336]	; c10676c <install_dummy_isr+0x200>
 c106618:	e59f2150 	ldr	r2, [pc, #336]	; c106770 <install_dummy_isr+0x204>
 c10661c:	e5832000 	str	r2, [r3]
 c106620:	e59f314c 	ldr	r3, [pc, #332]	; c106774 <install_dummy_isr+0x208>
 c106624:	e59f214c 	ldr	r2, [pc, #332]	; c106778 <install_dummy_isr+0x20c>
 c106628:	e5832000 	str	r2, [r3]
 c10662c:	e59f3148 	ldr	r3, [pc, #328]	; c10677c <install_dummy_isr+0x210>
 c106630:	e59f2148 	ldr	r2, [pc, #328]	; c106780 <install_dummy_isr+0x214>
 c106634:	e5832000 	str	r2, [r3]
 c106638:	e59f3144 	ldr	r3, [pc, #324]	; c106784 <install_dummy_isr+0x218>
 c10663c:	e59f2144 	ldr	r2, [pc, #324]	; c106788 <install_dummy_isr+0x21c>
 c106640:	e5832000 	str	r2, [r3]
 c106644:	e59f3140 	ldr	r3, [pc, #320]	; c10678c <install_dummy_isr+0x220>
 c106648:	e59f2140 	ldr	r2, [pc, #320]	; c106790 <install_dummy_isr+0x224>
 c10664c:	e5832000 	str	r2, [r3]
 c106650:	e59f313c 	ldr	r3, [pc, #316]	; c106794 <install_dummy_isr+0x228>
 c106654:	e59f213c 	ldr	r2, [pc, #316]	; c106798 <install_dummy_isr+0x22c>
 c106658:	e5832000 	str	r2, [r3]
 c10665c:	e59f3138 	ldr	r3, [pc, #312]	; c10679c <install_dummy_isr+0x230>
 c106660:	e59f2138 	ldr	r2, [pc, #312]	; c1067a0 <install_dummy_isr+0x234>
 c106664:	e5832000 	str	r2, [r3]
 c106668:	e59f3134 	ldr	r3, [pc, #308]	; c1067a4 <install_dummy_isr+0x238>
 c10666c:	e59f2134 	ldr	r2, [pc, #308]	; c1067a8 <install_dummy_isr+0x23c>
 c106670:	e5832000 	str	r2, [r3]
 c106674:	e59f3130 	ldr	r3, [pc, #304]	; c1067ac <install_dummy_isr+0x240>
 c106678:	e59f2130 	ldr	r2, [pc, #304]	; c1067b0 <install_dummy_isr+0x244>
 c10667c:	e5832000 	str	r2, [r3]
 c106680:	e59f312c 	ldr	r3, [pc, #300]	; c1067b4 <install_dummy_isr+0x248>
 c106684:	e59f212c 	ldr	r2, [pc, #300]	; c1067b8 <install_dummy_isr+0x24c>
 c106688:	e5832000 	str	r2, [r3]
 c10668c:	e59f3128 	ldr	r3, [pc, #296]	; c1067bc <install_dummy_isr+0x250>
 c106690:	e59f2128 	ldr	r2, [pc, #296]	; c1067c0 <install_dummy_isr+0x254>
 c106694:	e5832000 	str	r2, [r3]
 c106698:	e59f3124 	ldr	r3, [pc, #292]	; c1067c4 <install_dummy_isr+0x258>
 c10669c:	e59f2124 	ldr	r2, [pc, #292]	; c1067c8 <install_dummy_isr+0x25c>
 c1066a0:	e5832000 	str	r2, [r3]
 c1066a4:	e59f3120 	ldr	r3, [pc, #288]	; c1067cc <install_dummy_isr+0x260>
 c1066a8:	e59f2120 	ldr	r2, [pc, #288]	; c1067d0 <install_dummy_isr+0x264>
 c1066ac:	e5832000 	str	r2, [r3]
 c1066b0:	e59f311c 	ldr	r3, [pc, #284]	; c1067d4 <install_dummy_isr+0x268>
 c1066b4:	e59f211c 	ldr	r2, [pc, #284]	; c1067d8 <install_dummy_isr+0x26c>
 c1066b8:	e5832000 	str	r2, [r3]
 c1066bc:	e59f3118 	ldr	r3, [pc, #280]	; c1067dc <install_dummy_isr+0x270>
 c1066c0:	e59f2118 	ldr	r2, [pc, #280]	; c1067e0 <install_dummy_isr+0x274>
 c1066c4:	e5832000 	str	r2, [r3]
 c1066c8:	e59f3114 	ldr	r3, [pc, #276]	; c1067e4 <install_dummy_isr+0x278>
 c1066cc:	e59f2114 	ldr	r2, [pc, #276]	; c1067e8 <install_dummy_isr+0x27c>
 c1066d0:	e5832000 	str	r2, [r3]
 c1066d4:	e59f3110 	ldr	r3, [pc, #272]	; c1067ec <install_dummy_isr+0x280>
 c1066d8:	e59f2110 	ldr	r2, [pc, #272]	; c1067f0 <install_dummy_isr+0x284>
 c1066dc:	e5832000 	str	r2, [r3]
 c1066e0:	e59f310c 	ldr	r3, [pc, #268]	; c1067f4 <install_dummy_isr+0x288>
 c1066e4:	e59f210c 	ldr	r2, [pc, #268]	; c1067f8 <install_dummy_isr+0x28c>
 c1066e8:	e5832000 	str	r2, [r3]
 c1066ec:	e59f3108 	ldr	r3, [pc, #264]	; c1067fc <install_dummy_isr+0x290>
 c1066f0:	e59f2108 	ldr	r2, [pc, #264]	; c106800 <install_dummy_isr+0x294>
 c1066f4:	e5832000 	str	r2, [r3]
 c1066f8:	e24bd00c 	sub	sp, fp, #12
 c1066fc:	e89d6800 	ldm	sp, {fp, sp, lr}
 c106700:	e12fff1e 	bx	lr
 c106704:	0c7fff08 	.word	0x0c7fff08
 c106708:	0c106804 	.word	0x0c106804
 c10670c:	0c7fff04 	.word	0x0c7fff04
 c106710:	0c106844 	.word	0x0c106844
 c106714:	0c7fff18 	.word	0x0c7fff18
 c106718:	0c106884 	.word	0x0c106884
 c10671c:	0c7fff1c 	.word	0x0c7fff1c
 c106720:	0c1068cc 	.word	0x0c1068cc
 c106724:	0c7fff0c 	.word	0x0c7fff0c
 c106728:	0c106914 	.word	0x0c106914
 c10672c:	0c7fff10 	.word	0x0c7fff10
 c106730:	0c10695c 	.word	0x0c10695c
 c106734:	0c7fff20 	.word	0x0c7fff20
 c106738:	0c1069a4 	.word	0x0c1069a4
 c10673c:	0c7fff24 	.word	0x0c7fff24
 c106740:	0c1069ec 	.word	0x0c1069ec
 c106744:	0c7fff28 	.word	0x0c7fff28
 c106748:	0c106a34 	.word	0x0c106a34
 c10674c:	0c7fff2c 	.word	0x0c7fff2c
 c106750:	0c106a7c 	.word	0x0c106a7c
 c106754:	0c7fff30 	.word	0x0c7fff30
 c106758:	0c106ac4 	.word	0x0c106ac4
 c10675c:	0c7fff34 	.word	0x0c7fff34
 c106760:	0c106b0c 	.word	0x0c106b0c
 c106764:	0c7fff38 	.word	0x0c7fff38
 c106768:	0c106b54 	.word	0x0c106b54
 c10676c:	0c7fff3c 	.word	0x0c7fff3c
 c106770:	0c106b9c 	.word	0x0c106b9c
 c106774:	0c7fff40 	.word	0x0c7fff40
 c106778:	0c106be4 	.word	0x0c106be4
 c10677c:	0c7fff44 	.word	0x0c7fff44
 c106780:	0c106c2c 	.word	0x0c106c2c
 c106784:	0c7fff48 	.word	0x0c7fff48
 c106788:	0c106c74 	.word	0x0c106c74
 c10678c:	0c7fff4c 	.word	0x0c7fff4c
 c106790:	0c106cbc 	.word	0x0c106cbc
 c106794:	0c7fff50 	.word	0x0c7fff50
 c106798:	0c106d04 	.word	0x0c106d04
 c10679c:	0c7fff54 	.word	0x0c7fff54
 c1067a0:	0c106d4c 	.word	0x0c106d4c
 c1067a4:	0c7fff58 	.word	0x0c7fff58
 c1067a8:	0c106d94 	.word	0x0c106d94
 c1067ac:	0c7fff5c 	.word	0x0c7fff5c
 c1067b0:	0c106ddc 	.word	0x0c106ddc
 c1067b4:	0c7fff60 	.word	0x0c7fff60
 c1067b8:	0c106e24 	.word	0x0c106e24
 c1067bc:	0c7fff64 	.word	0x0c7fff64
 c1067c0:	0c106e6c 	.word	0x0c106e6c
 c1067c4:	0c7fff68 	.word	0x0c7fff68
 c1067c8:	0c106eb4 	.word	0x0c106eb4
 c1067cc:	0c7fff6c 	.word	0x0c7fff6c
 c1067d0:	0c106efc 	.word	0x0c106efc
 c1067d4:	0c7fff70 	.word	0x0c7fff70
 c1067d8:	0c106f44 	.word	0x0c106f44
 c1067dc:	0c7fff74 	.word	0x0c7fff74
 c1067e0:	0c106f8c 	.word	0x0c106f8c
 c1067e4:	0c7fff78 	.word	0x0c7fff78
 c1067e8:	0c106fd4 	.word	0x0c106fd4
 c1067ec:	0c7fff7c 	.word	0x0c7fff7c
 c1067f0:	0c10701c 	.word	0x0c10701c
 c1067f4:	0c7fff80 	.word	0x0c7fff80
 c1067f8:	0c107064 	.word	0x0c107064
 c1067fc:	0c7fff84 	.word	0x0c7fff84
 c106800:	0c1070ac 	.word	0x0c1070ac

0c106804 <isr_SWI_dummy>:
 c106804:	e52dc004 	push	{ip}		; (str ip, [sp, #-4]!)
 c106808:	e1a0c00d 	mov	ip, sp
 c10680c:	e92dd81f 	push	{r0, r1, r2, r3, r4, fp, ip, lr, pc}
 c106810:	e24cb004 	sub	fp, ip, #4
 c106814:	e24dd00c 	sub	sp, sp, #12
 c106818:	e1a0400e 	mov	r4, lr
 c10681c:	e50b4028 	str	r4, [fp, #-40]	; 0xffffffd8
 c106820:	e3a00000 	mov	r0, #0
 c106824:	e59f1014 	ldr	r1, [pc, #20]	; c106840 <isr_SWI_dummy+0x3c>
 c106828:	e51b2028 	ldr	r2, [fp, #-40]	; 0xffffffd8
 c10682c:	eb000378 	bl	c107614 <fatalerror>
 c106830:	e24bd020 	sub	sp, fp, #32
 c106834:	e89d681f 	ldm	sp, {r0, r1, r2, r3, r4, fp, sp, lr}
 c106838:	e49dc004 	pop	{ip}		; (ldr ip, [sp], #4)
 c10683c:	e1b0f00e 	movs	pc, lr
 c106840:	0c10a664 	.word	0x0c10a664

0c106844 <isr_UNDEF_dummy>:
 c106844:	e52dc004 	push	{ip}		; (str ip, [sp, #-4]!)
 c106848:	e1a0c00d 	mov	ip, sp
 c10684c:	e92dd81f 	push	{r0, r1, r2, r3, r4, fp, ip, lr, pc}
 c106850:	e24cb004 	sub	fp, ip, #4
 c106854:	e24dd00c 	sub	sp, sp, #12
 c106858:	e1a0400e 	mov	r4, lr
 c10685c:	e50b4028 	str	r4, [fp, #-40]	; 0xffffffd8
 c106860:	e3a00001 	mov	r0, #1
 c106864:	e59f1014 	ldr	r1, [pc, #20]	; c106880 <isr_UNDEF_dummy+0x3c>
 c106868:	e51b2028 	ldr	r2, [fp, #-40]	; 0xffffffd8
 c10686c:	eb000368 	bl	c107614 <fatalerror>
 c106870:	e24bd020 	sub	sp, fp, #32
 c106874:	e89d681f 	ldm	sp, {r0, r1, r2, r3, r4, fp, sp, lr}
 c106878:	e49dc004 	pop	{ip}		; (ldr ip, [sp], #4)
 c10687c:	e1b0f00e 	movs	pc, lr
 c106880:	0c10a680 	.word	0x0c10a680

0c106884 <isr_IRQ_dummy>:
 c106884:	e52dc004 	push	{ip}		; (str ip, [sp, #-4]!)
 c106888:	e1a0c00d 	mov	ip, sp
 c10688c:	e92dd81f 	push	{r0, r1, r2, r3, r4, fp, ip, lr, pc}
 c106890:	e24cb004 	sub	fp, ip, #4
 c106894:	e24dd00c 	sub	sp, sp, #12
 c106898:	e1a0400e 	mov	r4, lr
 c10689c:	e50b4028 	str	r4, [fp, #-40]	; 0xffffffd8
 c1068a0:	e51b3028 	ldr	r3, [fp, #-40]	; 0xffffffd8
 c1068a4:	e2433004 	sub	r3, r3, #4
 c1068a8:	e3a00002 	mov	r0, #2
 c1068ac:	e59f1014 	ldr	r1, [pc, #20]	; c1068c8 <isr_IRQ_dummy+0x44>
 c1068b0:	e1a02003 	mov	r2, r3
 c1068b4:	eb000356 	bl	c107614 <fatalerror>
 c1068b8:	e24bd020 	sub	sp, fp, #32
 c1068bc:	e89d681f 	ldm	sp, {r0, r1, r2, r3, r4, fp, sp, lr}
 c1068c0:	e49dc004 	pop	{ip}		; (ldr ip, [sp], #4)
 c1068c4:	e25ef004 	subs	pc, lr, #4
 c1068c8:	0c10a69c 	.word	0x0c10a69c

0c1068cc <isr_FIQ_dummy>:
 c1068cc:	e52dc004 	push	{ip}		; (str ip, [sp, #-4]!)
 c1068d0:	e1a0c00d 	mov	ip, sp
 c1068d4:	e92dd81f 	push	{r0, r1, r2, r3, r4, fp, ip, lr, pc}
 c1068d8:	e24cb004 	sub	fp, ip, #4
 c1068dc:	e24dd00c 	sub	sp, sp, #12
 c1068e0:	e1a0400e 	mov	r4, lr
 c1068e4:	e50b4028 	str	r4, [fp, #-40]	; 0xffffffd8
 c1068e8:	e51b3028 	ldr	r3, [fp, #-40]	; 0xffffffd8
 c1068ec:	e2433004 	sub	r3, r3, #4
 c1068f0:	e3a00003 	mov	r0, #3
 c1068f4:	e59f1014 	ldr	r1, [pc, #20]	; c106910 <isr_FIQ_dummy+0x44>
 c1068f8:	e1a02003 	mov	r2, r3
 c1068fc:	eb000344 	bl	c107614 <fatalerror>
 c106900:	e24bd020 	sub	sp, fp, #32
 c106904:	e89d681f 	ldm	sp, {r0, r1, r2, r3, r4, fp, sp, lr}
 c106908:	e49dc004 	pop	{ip}		; (ldr ip, [sp], #4)
 c10690c:	e25ef004 	subs	pc, lr, #4
 c106910:	0c10a6b8 	.word	0x0c10a6b8

0c106914 <isr_PABORT_dummy>:
 c106914:	e52dc004 	push	{ip}		; (str ip, [sp, #-4]!)
 c106918:	e1a0c00d 	mov	ip, sp
 c10691c:	e92dd81f 	push	{r0, r1, r2, r3, r4, fp, ip, lr, pc}
 c106920:	e24cb004 	sub	fp, ip, #4
 c106924:	e24dd00c 	sub	sp, sp, #12
 c106928:	e1a0400e 	mov	r4, lr
 c10692c:	e50b4028 	str	r4, [fp, #-40]	; 0xffffffd8
 c106930:	e51b3028 	ldr	r3, [fp, #-40]	; 0xffffffd8
 c106934:	e2433004 	sub	r3, r3, #4
 c106938:	e3a00004 	mov	r0, #4
 c10693c:	e59f1014 	ldr	r1, [pc, #20]	; c106958 <isr_PABORT_dummy+0x44>
 c106940:	e1a02003 	mov	r2, r3
 c106944:	eb000332 	bl	c107614 <fatalerror>
 c106948:	e24bd020 	sub	sp, fp, #32
 c10694c:	e89d681f 	ldm	sp, {r0, r1, r2, r3, r4, fp, sp, lr}
 c106950:	e49dc004 	pop	{ip}		; (ldr ip, [sp], #4)
 c106954:	e25ef004 	subs	pc, lr, #4
 c106958:	0c10a6d4 	.word	0x0c10a6d4

0c10695c <isr_DABORT_dummy>:
 c10695c:	e52dc004 	push	{ip}		; (str ip, [sp, #-4]!)
 c106960:	e1a0c00d 	mov	ip, sp
 c106964:	e92dd81f 	push	{r0, r1, r2, r3, r4, fp, ip, lr, pc}
 c106968:	e24cb004 	sub	fp, ip, #4
 c10696c:	e24dd00c 	sub	sp, sp, #12
 c106970:	e1a0400e 	mov	r4, lr
 c106974:	e50b4028 	str	r4, [fp, #-40]	; 0xffffffd8
 c106978:	e51b3028 	ldr	r3, [fp, #-40]	; 0xffffffd8
 c10697c:	e2433008 	sub	r3, r3, #8
 c106980:	e3a00005 	mov	r0, #5
 c106984:	e59f1014 	ldr	r1, [pc, #20]	; c1069a0 <isr_DABORT_dummy+0x44>
 c106988:	e1a02003 	mov	r2, r3
 c10698c:	eb000320 	bl	c107614 <fatalerror>
 c106990:	e24bd020 	sub	sp, fp, #32
 c106994:	e89d681f 	ldm	sp, {r0, r1, r2, r3, r4, fp, sp, lr}
 c106998:	e49dc004 	pop	{ip}		; (ldr ip, [sp], #4)
 c10699c:	e25ef004 	subs	pc, lr, #4
 c1069a0:	0c10a6f0 	.word	0x0c10a6f0

0c1069a4 <isr_ADC_dummy>:
 c1069a4:	e52dc004 	push	{ip}		; (str ip, [sp, #-4]!)
 c1069a8:	e1a0c00d 	mov	ip, sp
 c1069ac:	e92dd81f 	push	{r0, r1, r2, r3, r4, fp, ip, lr, pc}
 c1069b0:	e24cb004 	sub	fp, ip, #4
 c1069b4:	e24dd00c 	sub	sp, sp, #12
 c1069b8:	e1a0400e 	mov	r4, lr
 c1069bc:	e50b4028 	str	r4, [fp, #-40]	; 0xffffffd8
 c1069c0:	e51b3028 	ldr	r3, [fp, #-40]	; 0xffffffd8
 c1069c4:	e2433004 	sub	r3, r3, #4
 c1069c8:	e3a0000b 	mov	r0, #11
 c1069cc:	e59f1014 	ldr	r1, [pc, #20]	; c1069e8 <isr_ADC_dummy+0x44>
 c1069d0:	e1a02003 	mov	r2, r3
 c1069d4:	eb00030e 	bl	c107614 <fatalerror>
 c1069d8:	e24bd020 	sub	sp, fp, #32
 c1069dc:	e89d681f 	ldm	sp, {r0, r1, r2, r3, r4, fp, sp, lr}
 c1069e0:	e49dc004 	pop	{ip}		; (ldr ip, [sp], #4)
 c1069e4:	e25ef004 	subs	pc, lr, #4
 c1069e8:	0c10a70c 	.word	0x0c10a70c

0c1069ec <isr_RTC_dummy>:
 c1069ec:	e52dc004 	push	{ip}		; (str ip, [sp, #-4]!)
 c1069f0:	e1a0c00d 	mov	ip, sp
 c1069f4:	e92dd81f 	push	{r0, r1, r2, r3, r4, fp, ip, lr, pc}
 c1069f8:	e24cb004 	sub	fp, ip, #4
 c1069fc:	e24dd00c 	sub	sp, sp, #12
 c106a00:	e1a0400e 	mov	r4, lr
 c106a04:	e50b4028 	str	r4, [fp, #-40]	; 0xffffffd8
 c106a08:	e51b3028 	ldr	r3, [fp, #-40]	; 0xffffffd8
 c106a0c:	e2433004 	sub	r3, r3, #4
 c106a10:	e3a0000a 	mov	r0, #10
 c106a14:	e59f1014 	ldr	r1, [pc, #20]	; c106a30 <isr_RTC_dummy+0x44>
 c106a18:	e1a02003 	mov	r2, r3
 c106a1c:	eb0002fc 	bl	c107614 <fatalerror>
 c106a20:	e24bd020 	sub	sp, fp, #32
 c106a24:	e89d681f 	ldm	sp, {r0, r1, r2, r3, r4, fp, sp, lr}
 c106a28:	e49dc004 	pop	{ip}		; (ldr ip, [sp], #4)
 c106a2c:	e25ef004 	subs	pc, lr, #4
 c106a30:	0c10a728 	.word	0x0c10a728

0c106a34 <isr_UTXD1_dummy>:
 c106a34:	e52dc004 	push	{ip}		; (str ip, [sp, #-4]!)
 c106a38:	e1a0c00d 	mov	ip, sp
 c106a3c:	e92dd81f 	push	{r0, r1, r2, r3, r4, fp, ip, lr, pc}
 c106a40:	e24cb004 	sub	fp, ip, #4
 c106a44:	e24dd00c 	sub	sp, sp, #12
 c106a48:	e1a0400e 	mov	r4, lr
 c106a4c:	e50b4028 	str	r4, [fp, #-40]	; 0xffffffd8
 c106a50:	e51b3028 	ldr	r3, [fp, #-40]	; 0xffffffd8
 c106a54:	e2433004 	sub	r3, r3, #4
 c106a58:	e3a0000c 	mov	r0, #12
 c106a5c:	e59f1014 	ldr	r1, [pc, #20]	; c106a78 <isr_UTXD1_dummy+0x44>
 c106a60:	e1a02003 	mov	r2, r3
 c106a64:	eb0002ea 	bl	c107614 <fatalerror>
 c106a68:	e24bd020 	sub	sp, fp, #32
 c106a6c:	e89d681f 	ldm	sp, {r0, r1, r2, r3, r4, fp, sp, lr}
 c106a70:	e49dc004 	pop	{ip}		; (ldr ip, [sp], #4)
 c106a74:	e25ef004 	subs	pc, lr, #4
 c106a78:	0c10a744 	.word	0x0c10a744

0c106a7c <isr_UTXD0_dummy>:
 c106a7c:	e52dc004 	push	{ip}		; (str ip, [sp, #-4]!)
 c106a80:	e1a0c00d 	mov	ip, sp
 c106a84:	e92dd81f 	push	{r0, r1, r2, r3, r4, fp, ip, lr, pc}
 c106a88:	e24cb004 	sub	fp, ip, #4
 c106a8c:	e24dd00c 	sub	sp, sp, #12
 c106a90:	e1a0400e 	mov	r4, lr
 c106a94:	e50b4028 	str	r4, [fp, #-40]	; 0xffffffd8
 c106a98:	e51b3028 	ldr	r3, [fp, #-40]	; 0xffffffd8
 c106a9c:	e2433004 	sub	r3, r3, #4
 c106aa0:	e3a00009 	mov	r0, #9
 c106aa4:	e59f1014 	ldr	r1, [pc, #20]	; c106ac0 <isr_UTXD0_dummy+0x44>
 c106aa8:	e1a02003 	mov	r2, r3
 c106aac:	eb0002d8 	bl	c107614 <fatalerror>
 c106ab0:	e24bd020 	sub	sp, fp, #32
 c106ab4:	e89d681f 	ldm	sp, {r0, r1, r2, r3, r4, fp, sp, lr}
 c106ab8:	e49dc004 	pop	{ip}		; (ldr ip, [sp], #4)
 c106abc:	e25ef004 	subs	pc, lr, #4
 c106ac0:	0c10a760 	.word	0x0c10a760

0c106ac4 <isr_SIO_dummy>:
 c106ac4:	e52dc004 	push	{ip}		; (str ip, [sp, #-4]!)
 c106ac8:	e1a0c00d 	mov	ip, sp
 c106acc:	e92dd81f 	push	{r0, r1, r2, r3, r4, fp, ip, lr, pc}
 c106ad0:	e24cb004 	sub	fp, ip, #4
 c106ad4:	e24dd00c 	sub	sp, sp, #12
 c106ad8:	e1a0400e 	mov	r4, lr
 c106adc:	e50b4028 	str	r4, [fp, #-40]	; 0xffffffd8
 c106ae0:	e51b3028 	ldr	r3, [fp, #-40]	; 0xffffffd8
 c106ae4:	e2433004 	sub	r3, r3, #4
 c106ae8:	e3a0000f 	mov	r0, #15
 c106aec:	e59f1014 	ldr	r1, [pc, #20]	; c106b08 <isr_SIO_dummy+0x44>
 c106af0:	e1a02003 	mov	r2, r3
 c106af4:	eb0002c6 	bl	c107614 <fatalerror>
 c106af8:	e24bd020 	sub	sp, fp, #32
 c106afc:	e89d681f 	ldm	sp, {r0, r1, r2, r3, r4, fp, sp, lr}
 c106b00:	e49dc004 	pop	{ip}		; (ldr ip, [sp], #4)
 c106b04:	e25ef004 	subs	pc, lr, #4
 c106b08:	0c10a77c 	.word	0x0c10a77c

0c106b0c <isr_IIC_dummy>:
 c106b0c:	e52dc004 	push	{ip}		; (str ip, [sp, #-4]!)
 c106b10:	e1a0c00d 	mov	ip, sp
 c106b14:	e92dd81f 	push	{r0, r1, r2, r3, r4, fp, ip, lr, pc}
 c106b18:	e24cb004 	sub	fp, ip, #4
 c106b1c:	e24dd00c 	sub	sp, sp, #12
 c106b20:	e1a0400e 	mov	r4, lr
 c106b24:	e50b4028 	str	r4, [fp, #-40]	; 0xffffffd8
 c106b28:	e51b3028 	ldr	r3, [fp, #-40]	; 0xffffffd8
 c106b2c:	e2433004 	sub	r3, r3, #4
 c106b30:	e3a0000c 	mov	r0, #12
 c106b34:	e59f1014 	ldr	r1, [pc, #20]	; c106b50 <isr_IIC_dummy+0x44>
 c106b38:	e1a02003 	mov	r2, r3
 c106b3c:	eb0002b4 	bl	c107614 <fatalerror>
 c106b40:	e24bd020 	sub	sp, fp, #32
 c106b44:	e89d681f 	ldm	sp, {r0, r1, r2, r3, r4, fp, sp, lr}
 c106b48:	e49dc004 	pop	{ip}		; (ldr ip, [sp], #4)
 c106b4c:	e25ef004 	subs	pc, lr, #4
 c106b50:	0c10a798 	.word	0x0c10a798

0c106b54 <isr_URXD1_dummy>:
 c106b54:	e52dc004 	push	{ip}		; (str ip, [sp, #-4]!)
 c106b58:	e1a0c00d 	mov	ip, sp
 c106b5c:	e92dd81f 	push	{r0, r1, r2, r3, r4, fp, ip, lr, pc}
 c106b60:	e24cb004 	sub	fp, ip, #4
 c106b64:	e24dd00c 	sub	sp, sp, #12
 c106b68:	e1a0400e 	mov	r4, lr
 c106b6c:	e50b4028 	str	r4, [fp, #-40]	; 0xffffffd8
 c106b70:	e51b3028 	ldr	r3, [fp, #-40]	; 0xffffffd8
 c106b74:	e2433004 	sub	r3, r3, #4
 c106b78:	e3a0000c 	mov	r0, #12
 c106b7c:	e59f1014 	ldr	r1, [pc, #20]	; c106b98 <isr_URXD1_dummy+0x44>
 c106b80:	e1a02003 	mov	r2, r3
 c106b84:	eb0002a2 	bl	c107614 <fatalerror>
 c106b88:	e24bd020 	sub	sp, fp, #32
 c106b8c:	e89d681f 	ldm	sp, {r0, r1, r2, r3, r4, fp, sp, lr}
 c106b90:	e49dc004 	pop	{ip}		; (ldr ip, [sp], #4)
 c106b94:	e25ef004 	subs	pc, lr, #4
 c106b98:	0c10a7b4 	.word	0x0c10a7b4

0c106b9c <isr_URXD0_dummy>:
 c106b9c:	e52dc004 	push	{ip}		; (str ip, [sp, #-4]!)
 c106ba0:	e1a0c00d 	mov	ip, sp
 c106ba4:	e92dd81f 	push	{r0, r1, r2, r3, r4, fp, ip, lr, pc}
 c106ba8:	e24cb004 	sub	fp, ip, #4
 c106bac:	e24dd00c 	sub	sp, sp, #12
 c106bb0:	e1a0400e 	mov	r4, lr
 c106bb4:	e50b4028 	str	r4, [fp, #-40]	; 0xffffffd8
 c106bb8:	e51b3028 	ldr	r3, [fp, #-40]	; 0xffffffd8
 c106bbc:	e2433004 	sub	r3, r3, #4
 c106bc0:	e3a00008 	mov	r0, #8
 c106bc4:	e59f1014 	ldr	r1, [pc, #20]	; c106be0 <isr_URXD0_dummy+0x44>
 c106bc8:	e1a02003 	mov	r2, r3
 c106bcc:	eb000290 	bl	c107614 <fatalerror>
 c106bd0:	e24bd020 	sub	sp, fp, #32
 c106bd4:	e89d681f 	ldm	sp, {r0, r1, r2, r3, r4, fp, sp, lr}
 c106bd8:	e49dc004 	pop	{ip}		; (ldr ip, [sp], #4)
 c106bdc:	e25ef004 	subs	pc, lr, #4
 c106be0:	0c10a7d0 	.word	0x0c10a7d0

0c106be4 <isr_TIMER5_dummy>:
 c106be4:	e52dc004 	push	{ip}		; (str ip, [sp, #-4]!)
 c106be8:	e1a0c00d 	mov	ip, sp
 c106bec:	e92dd81f 	push	{r0, r1, r2, r3, r4, fp, ip, lr, pc}
 c106bf0:	e24cb004 	sub	fp, ip, #4
 c106bf4:	e24dd00c 	sub	sp, sp, #12
 c106bf8:	e1a0400e 	mov	r4, lr
 c106bfc:	e50b4028 	str	r4, [fp, #-40]	; 0xffffffd8
 c106c00:	e51b3028 	ldr	r3, [fp, #-40]	; 0xffffffd8
 c106c04:	e2433004 	sub	r3, r3, #4
 c106c08:	e3a0000e 	mov	r0, #14
 c106c0c:	e59f1014 	ldr	r1, [pc, #20]	; c106c28 <isr_TIMER5_dummy+0x44>
 c106c10:	e1a02003 	mov	r2, r3
 c106c14:	eb00027e 	bl	c107614 <fatalerror>
 c106c18:	e24bd020 	sub	sp, fp, #32
 c106c1c:	e89d681f 	ldm	sp, {r0, r1, r2, r3, r4, fp, sp, lr}
 c106c20:	e49dc004 	pop	{ip}		; (ldr ip, [sp], #4)
 c106c24:	e25ef004 	subs	pc, lr, #4
 c106c28:	0c10a7ec 	.word	0x0c10a7ec

0c106c2c <isr_TIMER4_dummy>:
 c106c2c:	e52dc004 	push	{ip}		; (str ip, [sp, #-4]!)
 c106c30:	e1a0c00d 	mov	ip, sp
 c106c34:	e92dd81f 	push	{r0, r1, r2, r3, r4, fp, ip, lr, pc}
 c106c38:	e24cb004 	sub	fp, ip, #4
 c106c3c:	e24dd00c 	sub	sp, sp, #12
 c106c40:	e1a0400e 	mov	r4, lr
 c106c44:	e50b4028 	str	r4, [fp, #-40]	; 0xffffffd8
 c106c48:	e51b3028 	ldr	r3, [fp, #-40]	; 0xffffffd8
 c106c4c:	e2433004 	sub	r3, r3, #4
 c106c50:	e3a0000e 	mov	r0, #14
 c106c54:	e59f1014 	ldr	r1, [pc, #20]	; c106c70 <isr_TIMER4_dummy+0x44>
 c106c58:	e1a02003 	mov	r2, r3
 c106c5c:	eb00026c 	bl	c107614 <fatalerror>
 c106c60:	e24bd020 	sub	sp, fp, #32
 c106c64:	e89d681f 	ldm	sp, {r0, r1, r2, r3, r4, fp, sp, lr}
 c106c68:	e49dc004 	pop	{ip}		; (ldr ip, [sp], #4)
 c106c6c:	e25ef004 	subs	pc, lr, #4
 c106c70:	0c10a808 	.word	0x0c10a808

0c106c74 <isr_TIMER3_dummy>:
 c106c74:	e52dc004 	push	{ip}		; (str ip, [sp, #-4]!)
 c106c78:	e1a0c00d 	mov	ip, sp
 c106c7c:	e92dd81f 	push	{r0, r1, r2, r3, r4, fp, ip, lr, pc}
 c106c80:	e24cb004 	sub	fp, ip, #4
 c106c84:	e24dd00c 	sub	sp, sp, #12
 c106c88:	e1a0400e 	mov	r4, lr
 c106c8c:	e50b4028 	str	r4, [fp, #-40]	; 0xffffffd8
 c106c90:	e51b3028 	ldr	r3, [fp, #-40]	; 0xffffffd8
 c106c94:	e2433004 	sub	r3, r3, #4
 c106c98:	e3a0000e 	mov	r0, #14
 c106c9c:	e59f1014 	ldr	r1, [pc, #20]	; c106cb8 <isr_TIMER3_dummy+0x44>
 c106ca0:	e1a02003 	mov	r2, r3
 c106ca4:	eb00025a 	bl	c107614 <fatalerror>
 c106ca8:	e24bd020 	sub	sp, fp, #32
 c106cac:	e89d681f 	ldm	sp, {r0, r1, r2, r3, r4, fp, sp, lr}
 c106cb0:	e49dc004 	pop	{ip}		; (ldr ip, [sp], #4)
 c106cb4:	e25ef004 	subs	pc, lr, #4
 c106cb8:	0c10a824 	.word	0x0c10a824

0c106cbc <isr_TIMER2_dummy>:
 c106cbc:	e52dc004 	push	{ip}		; (str ip, [sp, #-4]!)
 c106cc0:	e1a0c00d 	mov	ip, sp
 c106cc4:	e92dd81f 	push	{r0, r1, r2, r3, r4, fp, ip, lr, pc}
 c106cc8:	e24cb004 	sub	fp, ip, #4
 c106ccc:	e24dd00c 	sub	sp, sp, #12
 c106cd0:	e1a0400e 	mov	r4, lr
 c106cd4:	e50b4028 	str	r4, [fp, #-40]	; 0xffffffd8
 c106cd8:	e51b3028 	ldr	r3, [fp, #-40]	; 0xffffffd8
 c106cdc:	e2433004 	sub	r3, r3, #4
 c106ce0:	e3a0000e 	mov	r0, #14
 c106ce4:	e59f1014 	ldr	r1, [pc, #20]	; c106d00 <isr_TIMER2_dummy+0x44>
 c106ce8:	e1a02003 	mov	r2, r3
 c106cec:	eb000248 	bl	c107614 <fatalerror>
 c106cf0:	e24bd020 	sub	sp, fp, #32
 c106cf4:	e89d681f 	ldm	sp, {r0, r1, r2, r3, r4, fp, sp, lr}
 c106cf8:	e49dc004 	pop	{ip}		; (ldr ip, [sp], #4)
 c106cfc:	e25ef004 	subs	pc, lr, #4
 c106d00:	0c10a840 	.word	0x0c10a840

0c106d04 <isr_TIMER1_dummy>:
 c106d04:	e52dc004 	push	{ip}		; (str ip, [sp, #-4]!)
 c106d08:	e1a0c00d 	mov	ip, sp
 c106d0c:	e92dd81f 	push	{r0, r1, r2, r3, r4, fp, ip, lr, pc}
 c106d10:	e24cb004 	sub	fp, ip, #4
 c106d14:	e24dd00c 	sub	sp, sp, #12
 c106d18:	e1a0400e 	mov	r4, lr
 c106d1c:	e50b4028 	str	r4, [fp, #-40]	; 0xffffffd8
 c106d20:	e51b3028 	ldr	r3, [fp, #-40]	; 0xffffffd8
 c106d24:	e2433004 	sub	r3, r3, #4
 c106d28:	e3a0000e 	mov	r0, #14
 c106d2c:	e59f1014 	ldr	r1, [pc, #20]	; c106d48 <isr_TIMER1_dummy+0x44>
 c106d30:	e1a02003 	mov	r2, r3
 c106d34:	eb000236 	bl	c107614 <fatalerror>
 c106d38:	e24bd020 	sub	sp, fp, #32
 c106d3c:	e89d681f 	ldm	sp, {r0, r1, r2, r3, r4, fp, sp, lr}
 c106d40:	e49dc004 	pop	{ip}		; (ldr ip, [sp], #4)
 c106d44:	e25ef004 	subs	pc, lr, #4
 c106d48:	0c10a85c 	.word	0x0c10a85c

0c106d4c <isr_TIMER0_dummy>:
 c106d4c:	e52dc004 	push	{ip}		; (str ip, [sp, #-4]!)
 c106d50:	e1a0c00d 	mov	ip, sp
 c106d54:	e92dd81f 	push	{r0, r1, r2, r3, r4, fp, ip, lr, pc}
 c106d58:	e24cb004 	sub	fp, ip, #4
 c106d5c:	e24dd00c 	sub	sp, sp, #12
 c106d60:	e1a0400e 	mov	r4, lr
 c106d64:	e50b4028 	str	r4, [fp, #-40]	; 0xffffffd8
 c106d68:	e51b3028 	ldr	r3, [fp, #-40]	; 0xffffffd8
 c106d6c:	e2433004 	sub	r3, r3, #4
 c106d70:	e3a0000e 	mov	r0, #14
 c106d74:	e59f1014 	ldr	r1, [pc, #20]	; c106d90 <isr_TIMER0_dummy+0x44>
 c106d78:	e1a02003 	mov	r2, r3
 c106d7c:	eb000224 	bl	c107614 <fatalerror>
 c106d80:	e24bd020 	sub	sp, fp, #32
 c106d84:	e89d681f 	ldm	sp, {r0, r1, r2, r3, r4, fp, sp, lr}
 c106d88:	e49dc004 	pop	{ip}		; (ldr ip, [sp], #4)
 c106d8c:	e25ef004 	subs	pc, lr, #4
 c106d90:	0c10a878 	.word	0x0c10a878

0c106d94 <isr_UERR01_dummy>:
 c106d94:	e52dc004 	push	{ip}		; (str ip, [sp, #-4]!)
 c106d98:	e1a0c00d 	mov	ip, sp
 c106d9c:	e92dd81f 	push	{r0, r1, r2, r3, r4, fp, ip, lr, pc}
 c106da0:	e24cb004 	sub	fp, ip, #4
 c106da4:	e24dd00c 	sub	sp, sp, #12
 c106da8:	e1a0400e 	mov	r4, lr
 c106dac:	e50b4028 	str	r4, [fp, #-40]	; 0xffffffd8
 c106db0:	e51b3028 	ldr	r3, [fp, #-40]	; 0xffffffd8
 c106db4:	e2433004 	sub	r3, r3, #4
 c106db8:	e3a0000c 	mov	r0, #12
 c106dbc:	e59f1014 	ldr	r1, [pc, #20]	; c106dd8 <isr_UERR01_dummy+0x44>
 c106dc0:	e1a02003 	mov	r2, r3
 c106dc4:	eb000212 	bl	c107614 <fatalerror>
 c106dc8:	e24bd020 	sub	sp, fp, #32
 c106dcc:	e89d681f 	ldm	sp, {r0, r1, r2, r3, r4, fp, sp, lr}
 c106dd0:	e49dc004 	pop	{ip}		; (ldr ip, [sp], #4)
 c106dd4:	e25ef004 	subs	pc, lr, #4
 c106dd8:	0c10a894 	.word	0x0c10a894

0c106ddc <isr_WDT_dummy>:
 c106ddc:	e52dc004 	push	{ip}		; (str ip, [sp, #-4]!)
 c106de0:	e1a0c00d 	mov	ip, sp
 c106de4:	e92dd81f 	push	{r0, r1, r2, r3, r4, fp, ip, lr, pc}
 c106de8:	e24cb004 	sub	fp, ip, #4
 c106dec:	e24dd00c 	sub	sp, sp, #12
 c106df0:	e1a0400e 	mov	r4, lr
 c106df4:	e50b4028 	str	r4, [fp, #-40]	; 0xffffffd8
 c106df8:	e51b3028 	ldr	r3, [fp, #-40]	; 0xffffffd8
 c106dfc:	e2433004 	sub	r3, r3, #4
 c106e00:	e3a0000e 	mov	r0, #14
 c106e04:	e59f1014 	ldr	r1, [pc, #20]	; c106e20 <isr_WDT_dummy+0x44>
 c106e08:	e1a02003 	mov	r2, r3
 c106e0c:	eb000200 	bl	c107614 <fatalerror>
 c106e10:	e24bd020 	sub	sp, fp, #32
 c106e14:	e89d681f 	ldm	sp, {r0, r1, r2, r3, r4, fp, sp, lr}
 c106e18:	e49dc004 	pop	{ip}		; (ldr ip, [sp], #4)
 c106e1c:	e25ef004 	subs	pc, lr, #4
 c106e20:	0c10a8b0 	.word	0x0c10a8b0

0c106e24 <isr_BDMA1_dummy>:
 c106e24:	e52dc004 	push	{ip}		; (str ip, [sp, #-4]!)
 c106e28:	e1a0c00d 	mov	ip, sp
 c106e2c:	e92dd81f 	push	{r0, r1, r2, r3, r4, fp, ip, lr, pc}
 c106e30:	e24cb004 	sub	fp, ip, #4
 c106e34:	e24dd00c 	sub	sp, sp, #12
 c106e38:	e1a0400e 	mov	r4, lr
 c106e3c:	e50b4028 	str	r4, [fp, #-40]	; 0xffffffd8
 c106e40:	e51b3028 	ldr	r3, [fp, #-40]	; 0xffffffd8
 c106e44:	e2433004 	sub	r3, r3, #4
 c106e48:	e3a0000d 	mov	r0, #13
 c106e4c:	e59f1014 	ldr	r1, [pc, #20]	; c106e68 <isr_BDMA1_dummy+0x44>
 c106e50:	e1a02003 	mov	r2, r3
 c106e54:	eb0001ee 	bl	c107614 <fatalerror>
 c106e58:	e24bd020 	sub	sp, fp, #32
 c106e5c:	e89d681f 	ldm	sp, {r0, r1, r2, r3, r4, fp, sp, lr}
 c106e60:	e49dc004 	pop	{ip}		; (ldr ip, [sp], #4)
 c106e64:	e25ef004 	subs	pc, lr, #4
 c106e68:	0c10a8cc 	.word	0x0c10a8cc

0c106e6c <isr_BDMA0_dummy>:
 c106e6c:	e52dc004 	push	{ip}		; (str ip, [sp, #-4]!)
 c106e70:	e1a0c00d 	mov	ip, sp
 c106e74:	e92dd81f 	push	{r0, r1, r2, r3, r4, fp, ip, lr, pc}
 c106e78:	e24cb004 	sub	fp, ip, #4
 c106e7c:	e24dd00c 	sub	sp, sp, #12
 c106e80:	e1a0400e 	mov	r4, lr
 c106e84:	e50b4028 	str	r4, [fp, #-40]	; 0xffffffd8
 c106e88:	e51b3028 	ldr	r3, [fp, #-40]	; 0xffffffd8
 c106e8c:	e2433004 	sub	r3, r3, #4
 c106e90:	e3a0000d 	mov	r0, #13
 c106e94:	e59f1014 	ldr	r1, [pc, #20]	; c106eb0 <isr_BDMA0_dummy+0x44>
 c106e98:	e1a02003 	mov	r2, r3
 c106e9c:	eb0001dc 	bl	c107614 <fatalerror>
 c106ea0:	e24bd020 	sub	sp, fp, #32
 c106ea4:	e89d681f 	ldm	sp, {r0, r1, r2, r3, r4, fp, sp, lr}
 c106ea8:	e49dc004 	pop	{ip}		; (ldr ip, [sp], #4)
 c106eac:	e25ef004 	subs	pc, lr, #4
 c106eb0:	0c10a8e8 	.word	0x0c10a8e8

0c106eb4 <isr_ZDMA1_dummy>:
 c106eb4:	e52dc004 	push	{ip}		; (str ip, [sp, #-4]!)
 c106eb8:	e1a0c00d 	mov	ip, sp
 c106ebc:	e92dd81f 	push	{r0, r1, r2, r3, r4, fp, ip, lr, pc}
 c106ec0:	e24cb004 	sub	fp, ip, #4
 c106ec4:	e24dd00c 	sub	sp, sp, #12
 c106ec8:	e1a0400e 	mov	r4, lr
 c106ecc:	e50b4028 	str	r4, [fp, #-40]	; 0xffffffd8
 c106ed0:	e51b3028 	ldr	r3, [fp, #-40]	; 0xffffffd8
 c106ed4:	e2433004 	sub	r3, r3, #4
 c106ed8:	e3a0000d 	mov	r0, #13
 c106edc:	e59f1014 	ldr	r1, [pc, #20]	; c106ef8 <isr_ZDMA1_dummy+0x44>
 c106ee0:	e1a02003 	mov	r2, r3
 c106ee4:	eb0001ca 	bl	c107614 <fatalerror>
 c106ee8:	e24bd020 	sub	sp, fp, #32
 c106eec:	e89d681f 	ldm	sp, {r0, r1, r2, r3, r4, fp, sp, lr}
 c106ef0:	e49dc004 	pop	{ip}		; (ldr ip, [sp], #4)
 c106ef4:	e25ef004 	subs	pc, lr, #4
 c106ef8:	0c10a904 	.word	0x0c10a904

0c106efc <isr_ZDMA0_dummy>:
 c106efc:	e52dc004 	push	{ip}		; (str ip, [sp, #-4]!)
 c106f00:	e1a0c00d 	mov	ip, sp
 c106f04:	e92dd81f 	push	{r0, r1, r2, r3, r4, fp, ip, lr, pc}
 c106f08:	e24cb004 	sub	fp, ip, #4
 c106f0c:	e24dd00c 	sub	sp, sp, #12
 c106f10:	e1a0400e 	mov	r4, lr
 c106f14:	e50b4028 	str	r4, [fp, #-40]	; 0xffffffd8
 c106f18:	e51b3028 	ldr	r3, [fp, #-40]	; 0xffffffd8
 c106f1c:	e2433004 	sub	r3, r3, #4
 c106f20:	e3a0000d 	mov	r0, #13
 c106f24:	e59f1014 	ldr	r1, [pc, #20]	; c106f40 <isr_ZDMA0_dummy+0x44>
 c106f28:	e1a02003 	mov	r2, r3
 c106f2c:	eb0001b8 	bl	c107614 <fatalerror>
 c106f30:	e24bd020 	sub	sp, fp, #32
 c106f34:	e89d681f 	ldm	sp, {r0, r1, r2, r3, r4, fp, sp, lr}
 c106f38:	e49dc004 	pop	{ip}		; (ldr ip, [sp], #4)
 c106f3c:	e25ef004 	subs	pc, lr, #4
 c106f40:	0c10a8e8 	.word	0x0c10a8e8

0c106f44 <isr_TICK_dummy>:
 c106f44:	e52dc004 	push	{ip}		; (str ip, [sp, #-4]!)
 c106f48:	e1a0c00d 	mov	ip, sp
 c106f4c:	e92dd81f 	push	{r0, r1, r2, r3, r4, fp, ip, lr, pc}
 c106f50:	e24cb004 	sub	fp, ip, #4
 c106f54:	e24dd00c 	sub	sp, sp, #12
 c106f58:	e1a0400e 	mov	r4, lr
 c106f5c:	e50b4028 	str	r4, [fp, #-40]	; 0xffffffd8
 c106f60:	e51b3028 	ldr	r3, [fp, #-40]	; 0xffffffd8
 c106f64:	e2433004 	sub	r3, r3, #4
 c106f68:	e3a0000a 	mov	r0, #10
 c106f6c:	e59f1014 	ldr	r1, [pc, #20]	; c106f88 <isr_TICK_dummy+0x44>
 c106f70:	e1a02003 	mov	r2, r3
 c106f74:	eb0001a6 	bl	c107614 <fatalerror>
 c106f78:	e24bd020 	sub	sp, fp, #32
 c106f7c:	e89d681f 	ldm	sp, {r0, r1, r2, r3, r4, fp, sp, lr}
 c106f80:	e49dc004 	pop	{ip}		; (ldr ip, [sp], #4)
 c106f84:	e25ef004 	subs	pc, lr, #4
 c106f88:	0c10a920 	.word	0x0c10a920

0c106f8c <isr_PB_dummy>:
 c106f8c:	e52dc004 	push	{ip}		; (str ip, [sp, #-4]!)
 c106f90:	e1a0c00d 	mov	ip, sp
 c106f94:	e92dd81f 	push	{r0, r1, r2, r3, r4, fp, ip, lr, pc}
 c106f98:	e24cb004 	sub	fp, ip, #4
 c106f9c:	e24dd00c 	sub	sp, sp, #12
 c106fa0:	e1a0400e 	mov	r4, lr
 c106fa4:	e50b4028 	str	r4, [fp, #-40]	; 0xffffffd8
 c106fa8:	e51b3028 	ldr	r3, [fp, #-40]	; 0xffffffd8
 c106fac:	e2433004 	sub	r3, r3, #4
 c106fb0:	e3a00006 	mov	r0, #6
 c106fb4:	e59f1014 	ldr	r1, [pc, #20]	; c106fd0 <isr_PB_dummy+0x44>
 c106fb8:	e1a02003 	mov	r2, r3
 c106fbc:	eb000194 	bl	c107614 <fatalerror>
 c106fc0:	e24bd020 	sub	sp, fp, #32
 c106fc4:	e89d681f 	ldm	sp, {r0, r1, r2, r3, r4, fp, sp, lr}
 c106fc8:	e49dc004 	pop	{ip}		; (ldr ip, [sp], #4)
 c106fcc:	e25ef004 	subs	pc, lr, #4
 c106fd0:	0c10a93c 	.word	0x0c10a93c

0c106fd4 <isr_ETHERNET_dummy>:
 c106fd4:	e52dc004 	push	{ip}		; (str ip, [sp, #-4]!)
 c106fd8:	e1a0c00d 	mov	ip, sp
 c106fdc:	e92dd81f 	push	{r0, r1, r2, r3, r4, fp, ip, lr, pc}
 c106fe0:	e24cb004 	sub	fp, ip, #4
 c106fe4:	e24dd00c 	sub	sp, sp, #12
 c106fe8:	e1a0400e 	mov	r4, lr
 c106fec:	e50b4028 	str	r4, [fp, #-40]	; 0xffffffd8
 c106ff0:	e51b3028 	ldr	r3, [fp, #-40]	; 0xffffffd8
 c106ff4:	e2433004 	sub	r3, r3, #4
 c106ff8:	e3a0000f 	mov	r0, #15
 c106ffc:	e59f1014 	ldr	r1, [pc, #20]	; c107018 <isr_ETHERNET_dummy+0x44>
 c107000:	e1a02003 	mov	r2, r3
 c107004:	eb000182 	bl	c107614 <fatalerror>
 c107008:	e24bd020 	sub	sp, fp, #32
 c10700c:	e89d681f 	ldm	sp, {r0, r1, r2, r3, r4, fp, sp, lr}
 c107010:	e49dc004 	pop	{ip}		; (ldr ip, [sp], #4)
 c107014:	e25ef004 	subs	pc, lr, #4
 c107018:	0c10a954 	.word	0x0c10a954

0c10701c <isr_TS_dummy>:
 c10701c:	e52dc004 	push	{ip}		; (str ip, [sp, #-4]!)
 c107020:	e1a0c00d 	mov	ip, sp
 c107024:	e92dd81f 	push	{r0, r1, r2, r3, r4, fp, ip, lr, pc}
 c107028:	e24cb004 	sub	fp, ip, #4
 c10702c:	e24dd00c 	sub	sp, sp, #12
 c107030:	e1a0400e 	mov	r4, lr
 c107034:	e50b4028 	str	r4, [fp, #-40]	; 0xffffffd8
 c107038:	e51b3028 	ldr	r3, [fp, #-40]	; 0xffffffd8
 c10703c:	e2433004 	sub	r3, r3, #4
 c107040:	e3a0000b 	mov	r0, #11
 c107044:	e59f1014 	ldr	r1, [pc, #20]	; c107060 <isr_TS_dummy+0x44>
 c107048:	e1a02003 	mov	r2, r3
 c10704c:	eb000170 	bl	c107614 <fatalerror>
 c107050:	e24bd020 	sub	sp, fp, #32
 c107054:	e89d681f 	ldm	sp, {r0, r1, r2, r3, r4, fp, sp, lr}
 c107058:	e49dc004 	pop	{ip}		; (ldr ip, [sp], #4)
 c10705c:	e25ef004 	subs	pc, lr, #4
 c107060:	0c10a974 	.word	0x0c10a974

0c107064 <isr_KEYPAD_dummy>:
 c107064:	e52dc004 	push	{ip}		; (str ip, [sp, #-4]!)
 c107068:	e1a0c00d 	mov	ip, sp
 c10706c:	e92dd81f 	push	{r0, r1, r2, r3, r4, fp, ip, lr, pc}
 c107070:	e24cb004 	sub	fp, ip, #4
 c107074:	e24dd00c 	sub	sp, sp, #12
 c107078:	e1a0400e 	mov	r4, lr
 c10707c:	e50b4028 	str	r4, [fp, #-40]	; 0xffffffd8
 c107080:	e51b3028 	ldr	r3, [fp, #-40]	; 0xffffffd8
 c107084:	e2433004 	sub	r3, r3, #4
 c107088:	e3a00007 	mov	r0, #7
 c10708c:	e59f1014 	ldr	r1, [pc, #20]	; c1070a8 <isr_KEYPAD_dummy+0x44>
 c107090:	e1a02003 	mov	r2, r3
 c107094:	eb00015e 	bl	c107614 <fatalerror>
 c107098:	e24bd020 	sub	sp, fp, #32
 c10709c:	e89d681f 	ldm	sp, {r0, r1, r2, r3, r4, fp, sp, lr}
 c1070a0:	e49dc004 	pop	{ip}		; (ldr ip, [sp], #4)
 c1070a4:	e25ef004 	subs	pc, lr, #4
 c1070a8:	0c10a98c 	.word	0x0c10a98c

0c1070ac <isr_USB_dummy>:
 c1070ac:	e52dc004 	push	{ip}		; (str ip, [sp, #-4]!)
 c1070b0:	e1a0c00d 	mov	ip, sp
 c1070b4:	e92dd81f 	push	{r0, r1, r2, r3, r4, fp, ip, lr, pc}
 c1070b8:	e24cb004 	sub	fp, ip, #4
 c1070bc:	e24dd00c 	sub	sp, sp, #12
 c1070c0:	e1a0400e 	mov	r4, lr
 c1070c4:	e50b4028 	str	r4, [fp, #-40]	; 0xffffffd8
 c1070c8:	e51b3028 	ldr	r3, [fp, #-40]	; 0xffffffd8
 c1070cc:	e2433004 	sub	r3, r3, #4
 c1070d0:	e3a0000f 	mov	r0, #15
 c1070d4:	e59f1014 	ldr	r1, [pc, #20]	; c1070f0 <isr_USB_dummy+0x44>
 c1070d8:	e1a02003 	mov	r2, r3
 c1070dc:	eb00014c 	bl	c107614 <fatalerror>
 c1070e0:	e24bd020 	sub	sp, fp, #32
 c1070e4:	e89d681f 	ldm	sp, {r0, r1, r2, r3, r4, fp, sp, lr}
 c1070e8:	e49dc004 	pop	{ip}		; (ldr ip, [sp], #4)
 c1070ec:	e25ef004 	subs	pc, lr, #4
 c1070f0:	0c10a9a8 	.word	0x0c10a9a8

0c1070f4 <show_sys_info>:
 c1070f4:	e1a0c00d 	mov	ip, sp
 c1070f8:	e92dd810 	push	{r4, fp, ip, lr, pc}
 c1070fc:	e24cb004 	sub	fp, ip, #4
 c107100:	e24dd00c 	sub	sp, sp, #12
 c107104:	e59f03a4 	ldr	r0, [pc, #932]	; c1074b0 <show_sys_info+0x3bc>
 c107108:	eb00073f 	bl	c108e0c <uart0_puts>
 c10710c:	e59f03a0 	ldr	r0, [pc, #928]	; c1074b4 <show_sys_info+0x3c0>
 c107110:	eb00073d 	bl	c108e0c <uart0_puts>
 c107114:	e59f039c 	ldr	r0, [pc, #924]	; c1074b8 <show_sys_info+0x3c4>
 c107118:	eb00073b 	bl	c108e0c <uart0_puts>
 c10711c:	e59f0398 	ldr	r0, [pc, #920]	; c1074bc <show_sys_info+0x3c8>
 c107120:	eb000739 	bl	c108e0c <uart0_puts>
 c107124:	e59f0394 	ldr	r0, [pc, #916]	; c1074c0 <show_sys_info+0x3cc>
 c107128:	eb000737 	bl	c108e0c <uart0_puts>
 c10712c:	e59f0390 	ldr	r0, [pc, #912]	; c1074c4 <show_sys_info+0x3d0>
 c107130:	eb000735 	bl	c108e0c <uart0_puts>
 c107134:	e59f038c 	ldr	r0, [pc, #908]	; c1074c8 <show_sys_info+0x3d4>
 c107138:	eb000733 	bl	c108e0c <uart0_puts>
 c10713c:	e59f0388 	ldr	r0, [pc, #904]	; c1074cc <show_sys_info+0x3d8>
 c107140:	eb000731 	bl	c108e0c <uart0_puts>
 c107144:	e59f0384 	ldr	r0, [pc, #900]	; c1074d0 <show_sys_info+0x3dc>
 c107148:	eb00072f 	bl	c108e0c <uart0_puts>
 c10714c:	e59f0380 	ldr	r0, [pc, #896]	; c1074d4 <show_sys_info+0x3e0>
 c107150:	eb00072d 	bl	c108e0c <uart0_puts>
 c107154:	e59f037c 	ldr	r0, [pc, #892]	; c1074d8 <show_sys_info+0x3e4>
 c107158:	eb00072b 	bl	c108e0c <uart0_puts>
 c10715c:	e59f0378 	ldr	r0, [pc, #888]	; c1074dc <show_sys_info+0x3e8>
 c107160:	eb000729 	bl	c108e0c <uart0_puts>
 c107164:	e59f0374 	ldr	r0, [pc, #884]	; c1074e0 <show_sys_info+0x3ec>
 c107168:	eb000727 	bl	c108e0c <uart0_puts>
 c10716c:	e59f0370 	ldr	r0, [pc, #880]	; c1074e4 <show_sys_info+0x3f0>
 c107170:	eb000725 	bl	c108e0c <uart0_puts>
 c107174:	e59f036c 	ldr	r0, [pc, #876]	; c1074e8 <show_sys_info+0x3f4>
 c107178:	eb000723 	bl	c108e0c <uart0_puts>
 c10717c:	e10f4000 	mrs	r4, CPSR
 c107180:	e50b4018 	str	r4, [fp, #-24]	; 0xffffffe8
 c107184:	e51b3018 	ldr	r3, [fp, #-24]	; 0xffffffe8
 c107188:	e2033020 	and	r3, r3, #32
 c10718c:	e3530000 	cmp	r3, #0
 c107190:	0a000002 	beq	c1071a0 <show_sys_info+0xac>
 c107194:	e59f0350 	ldr	r0, [pc, #848]	; c1074ec <show_sys_info+0x3f8>
 c107198:	eb00071b 	bl	c108e0c <uart0_puts>
 c10719c:	ea000001 	b	c1071a8 <show_sys_info+0xb4>
 c1071a0:	e59f0348 	ldr	r0, [pc, #840]	; c1074f0 <show_sys_info+0x3fc>
 c1071a4:	eb000718 	bl	c108e0c <uart0_puts>
 c1071a8:	e59f0344 	ldr	r0, [pc, #836]	; c1074f4 <show_sys_info+0x400>
 c1071ac:	eb000716 	bl	c108e0c <uart0_puts>
 c1071b0:	e51b3018 	ldr	r3, [fp, #-24]	; 0xffffffe8
 c1071b4:	e203301f 	and	r3, r3, #31
 c1071b8:	e2433010 	sub	r3, r3, #16
 c1071bc:	e353000f 	cmp	r3, #15
 c1071c0:	979ff103 	ldrls	pc, [pc, r3, lsl #2]
 c1071c4:	ea000024 	b	c10725c <show_sys_info+0x168>
 c1071c8:	0c107208 	.word	0x0c107208
 c1071cc:	0c107214 	.word	0x0c107214
 c1071d0:	0c107220 	.word	0x0c107220
 c1071d4:	0c10722c 	.word	0x0c10722c
 c1071d8:	0c10725c 	.word	0x0c10725c
 c1071dc:	0c10725c 	.word	0x0c10725c
 c1071e0:	0c10725c 	.word	0x0c10725c
 c1071e4:	0c107238 	.word	0x0c107238
 c1071e8:	0c10725c 	.word	0x0c10725c
 c1071ec:	0c10725c 	.word	0x0c10725c
 c1071f0:	0c10725c 	.word	0x0c10725c
 c1071f4:	0c107244 	.word	0x0c107244
 c1071f8:	0c10725c 	.word	0x0c10725c
 c1071fc:	0c10725c 	.word	0x0c10725c
 c107200:	0c10725c 	.word	0x0c10725c
 c107204:	0c107250 	.word	0x0c107250
 c107208:	e59f02e8 	ldr	r0, [pc, #744]	; c1074f8 <show_sys_info+0x404>
 c10720c:	eb0006fe 	bl	c108e0c <uart0_puts>
 c107210:	ea000011 	b	c10725c <show_sys_info+0x168>
 c107214:	e59f02e0 	ldr	r0, [pc, #736]	; c1074fc <show_sys_info+0x408>
 c107218:	eb0006fb 	bl	c108e0c <uart0_puts>
 c10721c:	ea00000e 	b	c10725c <show_sys_info+0x168>
 c107220:	e59f02d8 	ldr	r0, [pc, #728]	; c107500 <show_sys_info+0x40c>
 c107224:	eb0006f8 	bl	c108e0c <uart0_puts>
 c107228:	ea00000b 	b	c10725c <show_sys_info+0x168>
 c10722c:	e59f02d0 	ldr	r0, [pc, #720]	; c107504 <show_sys_info+0x410>
 c107230:	eb0006f5 	bl	c108e0c <uart0_puts>
 c107234:	ea000008 	b	c10725c <show_sys_info+0x168>
 c107238:	e59f02c8 	ldr	r0, [pc, #712]	; c107508 <show_sys_info+0x414>
 c10723c:	eb0006f2 	bl	c108e0c <uart0_puts>
 c107240:	ea000005 	b	c10725c <show_sys_info+0x168>
 c107244:	e59f02c0 	ldr	r0, [pc, #704]	; c10750c <show_sys_info+0x418>
 c107248:	eb0006ef 	bl	c108e0c <uart0_puts>
 c10724c:	ea000002 	b	c10725c <show_sys_info+0x168>
 c107250:	e59f02b8 	ldr	r0, [pc, #696]	; c107510 <show_sys_info+0x41c>
 c107254:	eb0006ec 	bl	c108e0c <uart0_puts>
 c107258:	e1a00000 	nop			; (mov r0, r0)
 c10725c:	e59f02b0 	ldr	r0, [pc, #688]	; c107514 <show_sys_info+0x420>
 c107260:	eb0006e9 	bl	c108e0c <uart0_puts>
 c107264:	e51b3018 	ldr	r3, [fp, #-24]	; 0xffffffe8
 c107268:	e2033080 	and	r3, r3, #128	; 0x80
 c10726c:	e3530000 	cmp	r3, #0
 c107270:	0a000002 	beq	c107280 <show_sys_info+0x18c>
 c107274:	e59f029c 	ldr	r0, [pc, #668]	; c107518 <show_sys_info+0x424>
 c107278:	eb0006e3 	bl	c108e0c <uart0_puts>
 c10727c:	ea000001 	b	c107288 <show_sys_info+0x194>
 c107280:	e59f0294 	ldr	r0, [pc, #660]	; c10751c <show_sys_info+0x428>
 c107284:	eb0006e0 	bl	c108e0c <uart0_puts>
 c107288:	e59f0290 	ldr	r0, [pc, #656]	; c107520 <show_sys_info+0x42c>
 c10728c:	eb0006de 	bl	c108e0c <uart0_puts>
 c107290:	e51b3018 	ldr	r3, [fp, #-24]	; 0xffffffe8
 c107294:	e2033040 	and	r3, r3, #64	; 0x40
 c107298:	e3530000 	cmp	r3, #0
 c10729c:	0a000002 	beq	c1072ac <show_sys_info+0x1b8>
 c1072a0:	e59f0270 	ldr	r0, [pc, #624]	; c107518 <show_sys_info+0x424>
 c1072a4:	eb0006d8 	bl	c108e0c <uart0_puts>
 c1072a8:	ea000001 	b	c1072b4 <show_sys_info+0x1c0>
 c1072ac:	e59f0268 	ldr	r0, [pc, #616]	; c10751c <show_sys_info+0x428>
 c1072b0:	eb0006d5 	bl	c108e0c <uart0_puts>
 c1072b4:	e59f0268 	ldr	r0, [pc, #616]	; c107524 <show_sys_info+0x430>
 c1072b8:	eb0006d3 	bl	c108e0c <uart0_puts>
 c1072bc:	e59f3264 	ldr	r3, [pc, #612]	; c107528 <show_sys_info+0x434>
 c1072c0:	e5932000 	ldr	r2, [r3]
 c1072c4:	e59f3260 	ldr	r3, [pc, #608]	; c10752c <show_sys_info+0x438>
 c1072c8:	e0831392 	umull	r1, r3, r2, r3
 c1072cc:	e1a03923 	lsr	r3, r3, #18
 c1072d0:	e1a00003 	mov	r0, r3
 c1072d4:	eb0006e0 	bl	c108e5c <uart0_putint>
 c1072d8:	e59f0250 	ldr	r0, [pc, #592]	; c107530 <show_sys_info+0x43c>
 c1072dc:	eb0006ca 	bl	c108e0c <uart0_puts>
 c1072e0:	e59f024c 	ldr	r0, [pc, #588]	; c107534 <show_sys_info+0x440>
 c1072e4:	eb0006c8 	bl	c108e0c <uart0_puts>
 c1072e8:	e3a03507 	mov	r3, #29360128	; 0x1c00000
 c1072ec:	e5933000 	ldr	r3, [r3]
 c1072f0:	e2033006 	and	r3, r3, #6
 c1072f4:	e1a030a3 	lsr	r3, r3, #1
 c1072f8:	e3530001 	cmp	r3, #1
 c1072fc:	0a000007 	beq	c107320 <show_sys_info+0x22c>
 c107300:	e3530001 	cmp	r3, #1
 c107304:	3a000002 	bcc	c107314 <show_sys_info+0x220>
 c107308:	e3530003 	cmp	r3, #3
 c10730c:	0a000006 	beq	c10732c <show_sys_info+0x238>
 c107310:	ea000008 	b	c107338 <show_sys_info+0x244>
 c107314:	e59f021c 	ldr	r0, [pc, #540]	; c107538 <show_sys_info+0x444>
 c107318:	eb0006bb 	bl	c108e0c <uart0_puts>
 c10731c:	ea000005 	b	c107338 <show_sys_info+0x244>
 c107320:	e59f0214 	ldr	r0, [pc, #532]	; c10753c <show_sys_info+0x448>
 c107324:	eb0006b8 	bl	c108e0c <uart0_puts>
 c107328:	ea000002 	b	c107338 <show_sys_info+0x244>
 c10732c:	e59f020c 	ldr	r0, [pc, #524]	; c107540 <show_sys_info+0x44c>
 c107330:	eb0006b5 	bl	c108e0c <uart0_puts>
 c107334:	e1a00000 	nop			; (mov r0, r0)
 c107338:	e59f0204 	ldr	r0, [pc, #516]	; c107544 <show_sys_info+0x450>
 c10733c:	eb0006b2 	bl	c108e0c <uart0_puts>
 c107340:	e3a00002 	mov	r0, #2
 c107344:	eb0006c4 	bl	c108e5c <uart0_putint>
 c107348:	e59f01f8 	ldr	r0, [pc, #504]	; c107548 <show_sys_info+0x454>
 c10734c:	eb0006ae 	bl	c108e0c <uart0_puts>
 c107350:	e59f01f4 	ldr	r0, [pc, #500]	; c10754c <show_sys_info+0x458>
 c107354:	eb0006ac 	bl	c108e0c <uart0_puts>
 c107358:	e3a00008 	mov	r0, #8
 c10735c:	eb0006be 	bl	c108e5c <uart0_putint>
 c107360:	e59f01e0 	ldr	r0, [pc, #480]	; c107548 <show_sys_info+0x454>
 c107364:	eb0006a8 	bl	c108e0c <uart0_puts>
 c107368:	e59f01e0 	ldr	r0, [pc, #480]	; c107550 <show_sys_info+0x45c>
 c10736c:	eb0006a6 	bl	c108e0c <uart0_puts>
 c107370:	e59f01dc 	ldr	r0, [pc, #476]	; c107554 <show_sys_info+0x460>
 c107374:	eb0006a4 	bl	c108e0c <uart0_puts>
 c107378:	e59f01d8 	ldr	r0, [pc, #472]	; c107558 <show_sys_info+0x464>
 c10737c:	eb0006a2 	bl	c108e0c <uart0_puts>
 c107380:	e59f31d4 	ldr	r3, [pc, #468]	; c10755c <show_sys_info+0x468>
 c107384:	e1a03523 	lsr	r3, r3, #10
 c107388:	e1a00003 	mov	r0, r3
 c10738c:	eb0006b2 	bl	c108e5c <uart0_putint>
 c107390:	e59f01c8 	ldr	r0, [pc, #456]	; c107560 <show_sys_info+0x46c>
 c107394:	eb00069c 	bl	c108e0c <uart0_puts>
 c107398:	e59f31bc 	ldr	r3, [pc, #444]	; c10755c <show_sys_info+0x468>
 c10739c:	e1a00003 	mov	r0, r3
 c1073a0:	eb0006ad 	bl	c108e5c <uart0_putint>
 c1073a4:	e59f01b8 	ldr	r0, [pc, #440]	; c107564 <show_sys_info+0x470>
 c1073a8:	eb000697 	bl	c108e0c <uart0_puts>
 c1073ac:	e59f21a8 	ldr	r2, [pc, #424]	; c10755c <show_sys_info+0x468>
 c1073b0:	e1a03002 	mov	r3, r2
 c1073b4:	e1a03103 	lsl	r3, r3, #2
 c1073b8:	e0833002 	add	r3, r3, r2
 c1073bc:	e1a02103 	lsl	r2, r3, #2
 c1073c0:	e0833002 	add	r3, r3, r2
 c1073c4:	e1a03103 	lsl	r3, r3, #2
 c1073c8:	e1a03ba3 	lsr	r3, r3, #23
 c1073cc:	e1a00003 	mov	r0, r3
 c1073d0:	eb0006a1 	bl	c108e5c <uart0_putint>
 c1073d4:	e59f018c 	ldr	r0, [pc, #396]	; c107568 <show_sys_info+0x474>
 c1073d8:	eb00068b 	bl	c108e0c <uart0_puts>
 c1073dc:	e59f0188 	ldr	r0, [pc, #392]	; c10756c <show_sys_info+0x478>
 c1073e0:	eb000689 	bl	c108e0c <uart0_puts>
 c1073e4:	e59f3184 	ldr	r3, [pc, #388]	; c107570 <show_sys_info+0x47c>
 c1073e8:	e1a03523 	lsr	r3, r3, #10
 c1073ec:	e1a00003 	mov	r0, r3
 c1073f0:	eb000699 	bl	c108e5c <uart0_putint>
 c1073f4:	e59f0164 	ldr	r0, [pc, #356]	; c107560 <show_sys_info+0x46c>
 c1073f8:	eb000683 	bl	c108e0c <uart0_puts>
 c1073fc:	e59f316c 	ldr	r3, [pc, #364]	; c107570 <show_sys_info+0x47c>
 c107400:	e1a00003 	mov	r0, r3
 c107404:	eb000694 	bl	c108e5c <uart0_putint>
 c107408:	e59f0164 	ldr	r0, [pc, #356]	; c107574 <show_sys_info+0x480>
 c10740c:	eb00067e 	bl	c108e0c <uart0_puts>
 c107410:	e59f0160 	ldr	r0, [pc, #352]	; c107578 <show_sys_info+0x484>
 c107414:	eb00067c 	bl	c108e0c <uart0_puts>
 c107418:	e59f315c 	ldr	r3, [pc, #348]	; c10757c <show_sys_info+0x488>
 c10741c:	e1a00003 	mov	r0, r3
 c107420:	eb0006e2 	bl	c108fb0 <uart0_puthex>
 c107424:	e59f0154 	ldr	r0, [pc, #340]	; c107580 <show_sys_info+0x48c>
 c107428:	eb000677 	bl	c108e0c <uart0_puts>
 c10742c:	e59f3150 	ldr	r3, [pc, #336]	; c107584 <show_sys_info+0x490>
 c107430:	e2433001 	sub	r3, r3, #1
 c107434:	e1a00003 	mov	r0, r3
 c107438:	eb0006dc 	bl	c108fb0 <uart0_puthex>
 c10743c:	e59f0144 	ldr	r0, [pc, #324]	; c107588 <show_sys_info+0x494>
 c107440:	eb000671 	bl	c108e0c <uart0_puts>
 c107444:	e59f3140 	ldr	r3, [pc, #320]	; c10758c <show_sys_info+0x498>
 c107448:	e1a03523 	lsr	r3, r3, #10
 c10744c:	e1a00003 	mov	r0, r3
 c107450:	eb000681 	bl	c108e5c <uart0_putint>
 c107454:	e59f0104 	ldr	r0, [pc, #260]	; c107560 <show_sys_info+0x46c>
 c107458:	eb00066b 	bl	c108e0c <uart0_puts>
 c10745c:	e59f3128 	ldr	r3, [pc, #296]	; c10758c <show_sys_info+0x498>
 c107460:	e1a00003 	mov	r0, r3
 c107464:	eb00067c 	bl	c108e5c <uart0_putint>
 c107468:	e59f0104 	ldr	r0, [pc, #260]	; c107574 <show_sys_info+0x480>
 c10746c:	eb000666 	bl	c108e0c <uart0_puts>
 c107470:	e59f0100 	ldr	r0, [pc, #256]	; c107578 <show_sys_info+0x484>
 c107474:	eb000664 	bl	c108e0c <uart0_puts>
 c107478:	e59f3110 	ldr	r3, [pc, #272]	; c107590 <show_sys_info+0x49c>
 c10747c:	e1a00003 	mov	r0, r3
 c107480:	eb0006ca 	bl	c108fb0 <uart0_puthex>
 c107484:	e59f00f4 	ldr	r0, [pc, #244]	; c107580 <show_sys_info+0x48c>
 c107488:	eb00065f 	bl	c108e0c <uart0_puts>
 c10748c:	e59f3100 	ldr	r3, [pc, #256]	; c107594 <show_sys_info+0x4a0>
 c107490:	e2433001 	sub	r3, r3, #1
 c107494:	e1a00003 	mov	r0, r3
 c107498:	eb0006c4 	bl	c108fb0 <uart0_puthex>
 c10749c:	e59f00f4 	ldr	r0, [pc, #244]	; c107598 <show_sys_info+0x4a4>
 c1074a0:	eb000659 	bl	c108e0c <uart0_puts>
 c1074a4:	e24bd010 	sub	sp, fp, #16
 c1074a8:	e89d6810 	ldm	sp, {r4, fp, sp, lr}
 c1074ac:	e12fff1e 	bx	lr
 c1074b0:	0c10a9c4 	.word	0x0c10a9c4
 c1074b4:	0c10a9f4 	.word	0x0c10a9f4
 c1074b8:	0c10aa08 	.word	0x0c10aa08
 c1074bc:	0c10aa20 	.word	0x0c10aa20
 c1074c0:	0c10aa30 	.word	0x0c10aa30
 c1074c4:	0c10aa3c 	.word	0x0c10aa3c
 c1074c8:	0c10aa40 	.word	0x0c10aa40
 c1074cc:	0c10aa4c 	.word	0x0c10aa4c
 c1074d0:	0c10aa50 	.word	0x0c10aa50
 c1074d4:	0c10aa70 	.word	0x0c10aa70
 c1074d8:	0c10aa78 	.word	0x0c10aa78
 c1074dc:	0c10aaa0 	.word	0x0c10aaa0
 c1074e0:	0c10aabc 	.word	0x0c10aabc
 c1074e4:	0c10aac8 	.word	0x0c10aac8
 c1074e8:	0c10aad4 	.word	0x0c10aad4
 c1074ec:	0c10aaf0 	.word	0x0c10aaf0
 c1074f0:	0c10aaf8 	.word	0x0c10aaf8
 c1074f4:	0c10aafc 	.word	0x0c10aafc
 c1074f8:	0c10ab18 	.word	0x0c10ab18
 c1074fc:	0c10ab1c 	.word	0x0c10ab1c
 c107500:	0c10ab20 	.word	0x0c10ab20
 c107504:	0c10ab24 	.word	0x0c10ab24
 c107508:	0c10ab28 	.word	0x0c10ab28
 c10750c:	0c10ab2c 	.word	0x0c10ab2c
 c107510:	0c10ab30 	.word	0x0c10ab30
 c107514:	0c10ab34 	.word	0x0c10ab34
 c107518:	0c10ab50 	.word	0x0c10ab50
 c10751c:	0c10ab60 	.word	0x0c10ab60
 c107520:	0c10ab6c 	.word	0x0c10ab6c
 c107524:	0c10ab88 	.word	0x0c10ab88
 c107528:	0c10be00 	.word	0x0c10be00
 c10752c:	431bde83 	.word	0x431bde83
 c107530:	0c10aba4 	.word	0x0c10aba4
 c107534:	0c10abac 	.word	0x0c10abac
 c107538:	0c10abc8 	.word	0x0c10abc8
 c10753c:	0c10abd8 	.word	0x0c10abd8
 c107540:	0c10abe0 	.word	0x0c10abe0
 c107544:	0c10abe8 	.word	0x0c10abe8
 c107548:	0c10ac04 	.word	0x0c10ac04
 c10754c:	0c10ac08 	.word	0x0c10ac08
 c107550:	0c10ac24 	.word	0x0c10ac24
 c107554:	0c10ac44 	.word	0x0c10ac44
 c107558:	0c10ac54 	.word	0x0c10ac54
 c10755c:	0000bf91 	.word	0x0000bf91
 c107560:	0c10ac6c 	.word	0x0c10ac6c
 c107564:	0c10ac74 	.word	0x0c10ac74
 c107568:	0c10ac7c 	.word	0x0c10ac7c
 c10756c:	0c10ac80 	.word	0x0c10ac80
 c107570:	0000a17c 	.word	0x0000a17c
 c107574:	0c10ac9c 	.word	0x0c10ac9c
 c107578:	0c10aca0 	.word	0x0c10aca0
 c10757c:	0c100000 	.word	0x0c100000
 c107580:	0c10acbc 	.word	0x0c10acbc
 c107584:	0c10a17c 	.word	0x0c10a17c
 c107588:	0c10acd8 	.word	0x0c10acd8
 c10758c:	00001e15 	.word	0x00001e15
 c107590:	0c10a17c 	.word	0x0c10a17c
 c107594:	0c115599 	.word	0x0c115599
 c107598:	0c10acf4 	.word	0x0c10acf4

0c10759c <getmem>:
 c10759c:	e1a0c00d 	mov	ip, sp
 c1075a0:	e92dd800 	push	{fp, ip, lr, pc}
 c1075a4:	e24cb004 	sub	fp, ip, #4
 c1075a8:	e24dd010 	sub	sp, sp, #16
 c1075ac:	e50b0018 	str	r0, [fp, #-24]	; 0xffffffe8
 c1075b0:	e59f3058 	ldr	r3, [pc, #88]	; c107610 <getmem+0x74>
 c1075b4:	e5933000 	ldr	r3, [r3]
 c1075b8:	e2033003 	and	r3, r3, #3
 c1075bc:	e3530000 	cmp	r3, #0
 c1075c0:	0a000001 	beq	c1075cc <getmem+0x30>
 c1075c4:	e3a03004 	mov	r3, #4
 c1075c8:	ea000000 	b	c1075d0 <getmem+0x34>
 c1075cc:	e3a03000 	mov	r3, #0
 c1075d0:	e59f2038 	ldr	r2, [pc, #56]	; c107610 <getmem+0x74>
 c1075d4:	e5922000 	ldr	r2, [r2]
 c1075d8:	e3c22003 	bic	r2, r2, #3
 c1075dc:	e0833002 	add	r3, r3, r2
 c1075e0:	e50b3010 	str	r3, [fp, #-16]
 c1075e4:	e59f3024 	ldr	r3, [pc, #36]	; c107610 <getmem+0x74>
 c1075e8:	e5932000 	ldr	r2, [r3]
 c1075ec:	e51b3018 	ldr	r3, [fp, #-24]	; 0xffffffe8
 c1075f0:	e0822003 	add	r2, r2, r3
 c1075f4:	e59f3014 	ldr	r3, [pc, #20]	; c107610 <getmem+0x74>
 c1075f8:	e5832000 	str	r2, [r3]
 c1075fc:	e51b3010 	ldr	r3, [fp, #-16]
 c107600:	e1a00003 	mov	r0, r3
 c107604:	e24bd00c 	sub	sp, fp, #12
 c107608:	e89d6800 	ldm	sp, {fp, sp, lr}
 c10760c:	e12fff1e 	bx	lr
 c107610:	0c10be04 	.word	0x0c10be04

0c107614 <fatalerror>:
 c107614:	e1a0c00d 	mov	ip, sp
 c107618:	e92dd800 	push	{fp, ip, lr, pc}
 c10761c:	e24cb004 	sub	fp, ip, #4
 c107620:	e24dd018 	sub	sp, sp, #24
 c107624:	e1a03000 	mov	r3, r0
 c107628:	e50b101c 	str	r1, [fp, #-28]	; 0xffffffe4
 c10762c:	e50b2020 	str	r2, [fp, #-32]	; 0xffffffe0
 c107630:	e54b3015 	strb	r3, [fp, #-21]	; 0xffffffeb
 c107634:	e59f00a8 	ldr	r0, [pc, #168]	; c1076e4 <fatalerror+0xd0>
 c107638:	eb0005f3 	bl	c108e0c <uart0_puts>
 c10763c:	e51b001c 	ldr	r0, [fp, #-28]	; 0xffffffe4
 c107640:	eb0005f1 	bl	c108e0c <uart0_puts>
 c107644:	e59f009c 	ldr	r0, [pc, #156]	; c1076e8 <fatalerror+0xd4>
 c107648:	eb0005ef 	bl	c108e0c <uart0_puts>
 c10764c:	e51b0020 	ldr	r0, [fp, #-32]	; 0xffffffe0
 c107650:	eb000656 	bl	c108fb0 <uart0_puthex>
 c107654:	e59f3090 	ldr	r3, [pc, #144]	; c1076ec <fatalerror+0xd8>
 c107658:	e59f2090 	ldr	r2, [pc, #144]	; c1076f0 <fatalerror+0xdc>
 c10765c:	e5832000 	str	r2, [r3]
 c107660:	e55b3015 	ldrb	r3, [fp, #-21]	; 0xffffffeb
 c107664:	e1a00003 	mov	r0, r3
 c107668:	ebfffa0e 	bl	c105ea8 <segs_putchar>
 c10766c:	e59f3080 	ldr	r3, [pc, #128]	; c1076f4 <fatalerror+0xe0>
 c107670:	e3a02000 	mov	r2, #0
 c107674:	e5832000 	str	r2, [r3]
 c107678:	e3a03000 	mov	r3, #0
 c10767c:	e50b3010 	str	r3, [fp, #-16]
 c107680:	ea000002 	b	c107690 <fatalerror+0x7c>
 c107684:	e51b3010 	ldr	r3, [fp, #-16]
 c107688:	e2833001 	add	r3, r3, #1
 c10768c:	e50b3010 	str	r3, [fp, #-16]
 c107690:	e51b2010 	ldr	r2, [fp, #-16]
 c107694:	e59f305c 	ldr	r3, [pc, #92]	; c1076f8 <fatalerror+0xe4>
 c107698:	e1520003 	cmp	r2, r3
 c10769c:	9afffff8 	bls	c107684 <fatalerror+0x70>
 c1076a0:	e3a03785 	mov	r3, #34865152	; 0x2140000
 c1076a4:	e3e02000 	mvn	r2, #0
 c1076a8:	e5c32000 	strb	r2, [r3]
 c1076ac:	e59f3040 	ldr	r3, [pc, #64]	; c1076f4 <fatalerror+0xe0>
 c1076b0:	e3a02c06 	mov	r2, #1536	; 0x600
 c1076b4:	e5832000 	str	r2, [r3]
 c1076b8:	e3a03000 	mov	r3, #0
 c1076bc:	e50b3010 	str	r3, [fp, #-16]
 c1076c0:	ea000002 	b	c1076d0 <fatalerror+0xbc>
 c1076c4:	e51b3010 	ldr	r3, [fp, #-16]
 c1076c8:	e2833001 	add	r3, r3, #1
 c1076cc:	e50b3010 	str	r3, [fp, #-16]
 c1076d0:	e51b2010 	ldr	r2, [fp, #-16]
 c1076d4:	e59f301c 	ldr	r3, [pc, #28]	; c1076f8 <fatalerror+0xe4>
 c1076d8:	e1520003 	cmp	r2, r3
 c1076dc:	9afffff8 	bls	c1076c4 <fatalerror+0xb0>
 c1076e0:	eaffffde 	b	c107660 <fatalerror+0x4c>
 c1076e4:	0c10ad24 	.word	0x0c10ad24
 c1076e8:	0c10ad38 	.word	0x0c10ad38
 c1076ec:	01d20008 	.word	0x01d20008
 c1076f0:	0000014f 	.word	0x0000014f
 c1076f4:	01d2000c 	.word	0x01d2000c
 c1076f8:	0001869f 	.word	0x0001869f

0c1076fc <sleep>:
 c1076fc:	e1a0c00d 	mov	ip, sp
 c107700:	e92dd800 	push	{fp, ip, lr, pc}
 c107704:	e24cb004 	sub	fp, ip, #4
 c107708:	e59f302c 	ldr	r3, [pc, #44]	; c10773c <sleep+0x40>
 c10770c:	e59f2028 	ldr	r2, [pc, #40]	; c10773c <sleep+0x40>
 c107710:	e5922000 	ldr	r2, [r2]
 c107714:	e3822004 	orr	r2, r2, #4
 c107718:	e5832000 	str	r2, [r3]
 c10771c:	e59f3018 	ldr	r3, [pc, #24]	; c10773c <sleep+0x40>
 c107720:	e59f2014 	ldr	r2, [pc, #20]	; c10773c <sleep+0x40>
 c107724:	e5922000 	ldr	r2, [r2]
 c107728:	e3c22004 	bic	r2, r2, #4
 c10772c:	e5832000 	str	r2, [r3]
 c107730:	e24bd00c 	sub	sp, fp, #12
 c107734:	e89d6800 	ldm	sp, {fp, sp, lr}
 c107738:	e12fff1e 	bx	lr
 c10773c:	01d80004 	.word	0x01d80004

0c107740 <timers_init>:
 c107740:	e1a0c00d 	mov	ip, sp
 c107744:	e92dd800 	push	{fp, ip, lr, pc}
 c107748:	e24cb004 	sub	fp, ip, #4
 c10774c:	e3a00003 	mov	r0, #3
 c107750:	ebfff6e7 	bl	c1052f4 <power_on>
 c107754:	e59f30bc 	ldr	r3, [pc, #188]	; c107818 <timers_init+0xd8>
 c107758:	e3a02000 	mov	r2, #0
 c10775c:	e5832000 	str	r2, [r3]
 c107760:	e59f30b4 	ldr	r3, [pc, #180]	; c10781c <timers_init+0xdc>
 c107764:	e3a02000 	mov	r2, #0
 c107768:	e5832000 	str	r2, [r3]
 c10776c:	e59f30ac 	ldr	r3, [pc, #172]	; c107820 <timers_init+0xe0>
 c107770:	e3a02000 	mov	r2, #0
 c107774:	e5832000 	str	r2, [r3]
 c107778:	e59f30a4 	ldr	r3, [pc, #164]	; c107824 <timers_init+0xe4>
 c10777c:	e3a02000 	mov	r2, #0
 c107780:	e5832000 	str	r2, [r3]
 c107784:	e59f309c 	ldr	r3, [pc, #156]	; c107828 <timers_init+0xe8>
 c107788:	e3a02000 	mov	r2, #0
 c10778c:	e5832000 	str	r2, [r3]
 c107790:	e59f3094 	ldr	r3, [pc, #148]	; c10782c <timers_init+0xec>
 c107794:	e3a02000 	mov	r2, #0
 c107798:	e5832000 	str	r2, [r3]
 c10779c:	e59f308c 	ldr	r3, [pc, #140]	; c107830 <timers_init+0xf0>
 c1077a0:	e3a02000 	mov	r2, #0
 c1077a4:	e5832000 	str	r2, [r3]
 c1077a8:	e59f3084 	ldr	r3, [pc, #132]	; c107834 <timers_init+0xf4>
 c1077ac:	e3a02000 	mov	r2, #0
 c1077b0:	e5832000 	str	r2, [r3]
 c1077b4:	e59f307c 	ldr	r3, [pc, #124]	; c107838 <timers_init+0xf8>
 c1077b8:	e3a02000 	mov	r2, #0
 c1077bc:	e5832000 	str	r2, [r3]
 c1077c0:	e59f3074 	ldr	r3, [pc, #116]	; c10783c <timers_init+0xfc>
 c1077c4:	e3a02000 	mov	r2, #0
 c1077c8:	e5832000 	str	r2, [r3]
 c1077cc:	e59f306c 	ldr	r3, [pc, #108]	; c107840 <timers_init+0x100>
 c1077d0:	e3a02000 	mov	r2, #0
 c1077d4:	e5832000 	str	r2, [r3]
 c1077d8:	e59f3064 	ldr	r3, [pc, #100]	; c107844 <timers_init+0x104>
 c1077dc:	e3a02000 	mov	r2, #0
 c1077e0:	e5832000 	str	r2, [r3]
 c1077e4:	e59f305c 	ldr	r3, [pc, #92]	; c107848 <timers_init+0x108>
 c1077e8:	e3a02000 	mov	r2, #0
 c1077ec:	e5832000 	str	r2, [r3]
 c1077f0:	e59f3054 	ldr	r3, [pc, #84]	; c10784c <timers_init+0x10c>
 c1077f4:	e59f2054 	ldr	r2, [pc, #84]	; c107850 <timers_init+0x110>
 c1077f8:	e5832000 	str	r2, [r3]
 c1077fc:	e59f3048 	ldr	r3, [pc, #72]	; c10784c <timers_init+0x10c>
 c107800:	e3a02000 	mov	r2, #0
 c107804:	e5832000 	str	r2, [r3]
 c107808:	eb000011 	bl	c107854 <sw_delay_init>
 c10780c:	e24bd00c 	sub	sp, fp, #12
 c107810:	e89d6800 	ldm	sp, {fp, sp, lr}
 c107814:	e12fff1e 	bx	lr
 c107818:	01d50000 	.word	0x01d50000
 c10781c:	01d50004 	.word	0x01d50004
 c107820:	01d5000c 	.word	0x01d5000c
 c107824:	01d50010 	.word	0x01d50010
 c107828:	01d50018 	.word	0x01d50018
 c10782c:	01d5001c 	.word	0x01d5001c
 c107830:	01d50024 	.word	0x01d50024
 c107834:	01d50028 	.word	0x01d50028
 c107838:	01d50030 	.word	0x01d50030
 c10783c:	01d50034 	.word	0x01d50034
 c107840:	01d5003c 	.word	0x01d5003c
 c107844:	01d50040 	.word	0x01d50040
 c107848:	01d50048 	.word	0x01d50048
 c10784c:	01d50008 	.word	0x01d50008
 c107850:	02222202 	.word	0x02222202

0c107854 <sw_delay_init>:
 c107854:	e1a0c00d 	mov	ip, sp
 c107858:	e92dd810 	push	{r4, fp, ip, lr, pc}
 c10785c:	e24cb004 	sub	fp, ip, #4
 c107860:	e24dd00c 	sub	sp, sp, #12
 c107864:	eb0000d2 	bl	c107bb4 <timer3_start>
 c107868:	e59f3088 	ldr	r3, [pc, #136]	; c1078f8 <sw_delay_init+0xa4>
 c10786c:	e50b3018 	str	r3, [fp, #-24]	; 0xffffffe8
 c107870:	ea000002 	b	c107880 <sw_delay_init+0x2c>
 c107874:	e51b3018 	ldr	r3, [fp, #-24]	; 0xffffffe8
 c107878:	e2433001 	sub	r3, r3, #1
 c10787c:	e50b3018 	str	r3, [fp, #-24]	; 0xffffffe8
 c107880:	e51b3018 	ldr	r3, [fp, #-24]	; 0xffffffe8
 c107884:	e3530000 	cmp	r3, #0
 c107888:	1afffff9 	bne	c107874 <sw_delay_init+0x20>
 c10788c:	eb0000ff 	bl	c107c90 <timer3_stop>
 c107890:	e1a03000 	mov	r3, r0
 c107894:	e1a02003 	mov	r2, r3
 c107898:	e1a03002 	mov	r3, r2
 c10789c:	e3a04000 	mov	r4, #0
 c1078a0:	e3a00315 	mov	r0, #1409286144	; 0x54000000
 c1078a4:	e2800abe 	add	r0, r0, #778240	; 0xbe000
 c1078a8:	e2800b01 	add	r0, r0, #1024	; 0x400
 c1078ac:	e3a01002 	mov	r1, #2
 c1078b0:	e1a02003 	mov	r2, r3
 c1078b4:	e1a03004 	mov	r3, r4
 c1078b8:	eb0007b7 	bl	c10979c <__aeabi_uldivmod>
 c1078bc:	e1a03000 	mov	r3, r0
 c1078c0:	e1a04001 	mov	r4, r1
 c1078c4:	e1a02003 	mov	r2, r3
 c1078c8:	e59f302c 	ldr	r3, [pc, #44]	; c1078fc <sw_delay_init+0xa8>
 c1078cc:	e5832000 	str	r2, [r3]
 c1078d0:	e59f3024 	ldr	r3, [pc, #36]	; c1078fc <sw_delay_init+0xa8>
 c1078d4:	e5932000 	ldr	r2, [r3]
 c1078d8:	e59f3020 	ldr	r3, [pc, #32]	; c107900 <sw_delay_init+0xac>
 c1078dc:	e0831392 	umull	r1, r3, r2, r3
 c1078e0:	e1a02323 	lsr	r2, r3, #6
 c1078e4:	e59f3018 	ldr	r3, [pc, #24]	; c107904 <sw_delay_init+0xb0>
 c1078e8:	e5832000 	str	r2, [r3]
 c1078ec:	e24bd010 	sub	sp, fp, #16
 c1078f0:	e89d6810 	ldm	sp, {r4, fp, sp, lr}
 c1078f4:	e12fff1e 	bx	lr
 c1078f8:	000f4240 	.word	0x000f4240
 c1078fc:	0c1154f8 	.word	0x0c1154f8
 c107900:	10624dd3 	.word	0x10624dd3
 c107904:	0c1154f4 	.word	0x0c1154f4

0c107908 <timer3_delay_ms>:
 c107908:	e1a0c00d 	mov	ip, sp
 c10790c:	e92dd800 	push	{fp, ip, lr, pc}
 c107910:	e24cb004 	sub	fp, ip, #4
 c107914:	e24dd008 	sub	sp, sp, #8
 c107918:	e1a03000 	mov	r3, r0
 c10791c:	e14b30be 	strh	r3, [fp, #-14]
 c107920:	ea00002b 	b	c1079d4 <timer3_delay_ms+0xcc>
 c107924:	e59f30c0 	ldr	r3, [pc, #192]	; c1079ec <timer3_delay_ms+0xe4>
 c107928:	e59f20bc 	ldr	r2, [pc, #188]	; c1079ec <timer3_delay_ms+0xe4>
 c10792c:	e5922000 	ldr	r2, [r2]
 c107930:	e3c22cff 	bic	r2, r2, #65280	; 0xff00
 c107934:	e5832000 	str	r2, [r3]
 c107938:	e59f30b0 	ldr	r3, [pc, #176]	; c1079f0 <timer3_delay_ms+0xe8>
 c10793c:	e59f20ac 	ldr	r2, [pc, #172]	; c1079f0 <timer3_delay_ms+0xe8>
 c107940:	e5922000 	ldr	r2, [r2]
 c107944:	e3c22a0f 	bic	r2, r2, #61440	; 0xf000
 c107948:	e5832000 	str	r2, [r3]
 c10794c:	e59f30a0 	ldr	r3, [pc, #160]	; c1079f4 <timer3_delay_ms+0xec>
 c107950:	e59f20a0 	ldr	r2, [pc, #160]	; c1079f8 <timer3_delay_ms+0xf0>
 c107954:	e5921000 	ldr	r1, [r2]
 c107958:	e59f209c 	ldr	r2, [pc, #156]	; c1079fc <timer3_delay_ms+0xf4>
 c10795c:	e0820291 	umull	r0, r2, r1, r2
 c107960:	e1a023a2 	lsr	r2, r2, #7
 c107964:	e1a02802 	lsl	r2, r2, #16
 c107968:	e1a02822 	lsr	r2, r2, #16
 c10796c:	e5832000 	str	r2, [r3]
 c107970:	e59f3088 	ldr	r3, [pc, #136]	; c107a00 <timer3_delay_ms+0xf8>
 c107974:	e59f2084 	ldr	r2, [pc, #132]	; c107a00 <timer3_delay_ms+0xf8>
 c107978:	e5922000 	ldr	r2, [r2]
 c10797c:	e3c2280f 	bic	r2, r2, #983040	; 0xf0000
 c107980:	e3822802 	orr	r2, r2, #131072	; 0x20000
 c107984:	e5832000 	str	r2, [r3]
 c107988:	e59f3070 	ldr	r3, [pc, #112]	; c107a00 <timer3_delay_ms+0xf8>
 c10798c:	e59f206c 	ldr	r2, [pc, #108]	; c107a00 <timer3_delay_ms+0xf8>
 c107990:	e5922000 	ldr	r2, [r2]
 c107994:	e3c2280f 	bic	r2, r2, #983040	; 0xf0000
 c107998:	e3822801 	orr	r2, r2, #65536	; 0x10000
 c10799c:	e5832000 	str	r2, [r3]
 c1079a0:	e1a00000 	nop			; (mov r0, r0)
 c1079a4:	e59f3058 	ldr	r3, [pc, #88]	; c107a04 <timer3_delay_ms+0xfc>
 c1079a8:	e5933000 	ldr	r3, [r3]
 c1079ac:	e3530000 	cmp	r3, #0
 c1079b0:	0afffffb 	beq	c1079a4 <timer3_delay_ms+0x9c>
 c1079b4:	e1a00000 	nop			; (mov r0, r0)
 c1079b8:	e59f3044 	ldr	r3, [pc, #68]	; c107a04 <timer3_delay_ms+0xfc>
 c1079bc:	e5933000 	ldr	r3, [r3]
 c1079c0:	e3530000 	cmp	r3, #0
 c1079c4:	1afffffb 	bne	c1079b8 <timer3_delay_ms+0xb0>
 c1079c8:	e15b30be 	ldrh	r3, [fp, #-14]
 c1079cc:	e2433001 	sub	r3, r3, #1
 c1079d0:	e14b30be 	strh	r3, [fp, #-14]
 c1079d4:	e15b30be 	ldrh	r3, [fp, #-14]
 c1079d8:	e3530000 	cmp	r3, #0
 c1079dc:	1affffd0 	bne	c107924 <timer3_delay_ms+0x1c>
 c1079e0:	e24bd00c 	sub	sp, fp, #12
 c1079e4:	e89d6800 	ldm	sp, {fp, sp, lr}
 c1079e8:	e12fff1e 	bx	lr
 c1079ec:	01d50000 	.word	0x01d50000
 c1079f0:	01d50004 	.word	0x01d50004
 c1079f4:	01d50030 	.word	0x01d50030
 c1079f8:	0c10be00 	.word	0x0c10be00
 c1079fc:	10624dd3 	.word	0x10624dd3
 c107a00:	01d50008 	.word	0x01d50008
 c107a04:	01d50038 	.word	0x01d50038

0c107a08 <sw_delay_ms>:
 c107a08:	e1a0c00d 	mov	ip, sp
 c107a0c:	e92dd800 	push	{fp, ip, lr, pc}
 c107a10:	e24cb004 	sub	fp, ip, #4
 c107a14:	e24dd010 	sub	sp, sp, #16
 c107a18:	e1a03000 	mov	r3, r0
 c107a1c:	e14b31b6 	strh	r3, [fp, #-22]	; 0xffffffea
 c107a20:	e15b31b6 	ldrh	r3, [fp, #-22]	; 0xffffffea
 c107a24:	e59f2030 	ldr	r2, [pc, #48]	; c107a5c <sw_delay_ms+0x54>
 c107a28:	e5922000 	ldr	r2, [r2]
 c107a2c:	e0030392 	mul	r3, r2, r3
 c107a30:	e50b3010 	str	r3, [fp, #-16]
 c107a34:	ea000002 	b	c107a44 <sw_delay_ms+0x3c>
 c107a38:	e51b3010 	ldr	r3, [fp, #-16]
 c107a3c:	e2433001 	sub	r3, r3, #1
 c107a40:	e50b3010 	str	r3, [fp, #-16]
 c107a44:	e51b3010 	ldr	r3, [fp, #-16]
 c107a48:	e3530000 	cmp	r3, #0
 c107a4c:	1afffff9 	bne	c107a38 <sw_delay_ms+0x30>
 c107a50:	e24bd00c 	sub	sp, fp, #12
 c107a54:	e89d6800 	ldm	sp, {fp, sp, lr}
 c107a58:	e12fff1e 	bx	lr
 c107a5c:	0c1154f4 	.word	0x0c1154f4

0c107a60 <timer3_delay_s>:
 c107a60:	e1a0c00d 	mov	ip, sp
 c107a64:	e92dd800 	push	{fp, ip, lr, pc}
 c107a68:	e24cb004 	sub	fp, ip, #4
 c107a6c:	e24dd008 	sub	sp, sp, #8
 c107a70:	e1a03000 	mov	r3, r0
 c107a74:	e14b30be 	strh	r3, [fp, #-14]
 c107a78:	ea00002b 	b	c107b2c <timer3_delay_s+0xcc>
 c107a7c:	e59f30c0 	ldr	r3, [pc, #192]	; c107b44 <timer3_delay_s+0xe4>
 c107a80:	e59f20bc 	ldr	r2, [pc, #188]	; c107b44 <timer3_delay_s+0xe4>
 c107a84:	e5922000 	ldr	r2, [r2]
 c107a88:	e3c22cff 	bic	r2, r2, #65280	; 0xff00
 c107a8c:	e3822c3f 	orr	r2, r2, #16128	; 0x3f00
 c107a90:	e5832000 	str	r2, [r3]
 c107a94:	e59f30ac 	ldr	r3, [pc, #172]	; c107b48 <timer3_delay_s+0xe8>
 c107a98:	e59f20a8 	ldr	r2, [pc, #168]	; c107b48 <timer3_delay_s+0xe8>
 c107a9c:	e5922000 	ldr	r2, [r2]
 c107aa0:	e3c22a0f 	bic	r2, r2, #61440	; 0xf000
 c107aa4:	e3822901 	orr	r2, r2, #16384	; 0x4000
 c107aa8:	e5832000 	str	r2, [r3]
 c107aac:	e59f3098 	ldr	r3, [pc, #152]	; c107b4c <timer3_delay_s+0xec>
 c107ab0:	e59f2098 	ldr	r2, [pc, #152]	; c107b50 <timer3_delay_s+0xf0>
 c107ab4:	e5922000 	ldr	r2, [r2]
 c107ab8:	e1a025a2 	lsr	r2, r2, #11
 c107abc:	e1a02802 	lsl	r2, r2, #16
 c107ac0:	e1a02822 	lsr	r2, r2, #16
 c107ac4:	e5832000 	str	r2, [r3]
 c107ac8:	e59f3084 	ldr	r3, [pc, #132]	; c107b54 <timer3_delay_s+0xf4>
 c107acc:	e59f2080 	ldr	r2, [pc, #128]	; c107b54 <timer3_delay_s+0xf4>
 c107ad0:	e5922000 	ldr	r2, [r2]
 c107ad4:	e3c2280f 	bic	r2, r2, #983040	; 0xf0000
 c107ad8:	e3822802 	orr	r2, r2, #131072	; 0x20000
 c107adc:	e5832000 	str	r2, [r3]
 c107ae0:	e59f306c 	ldr	r3, [pc, #108]	; c107b54 <timer3_delay_s+0xf4>
 c107ae4:	e59f2068 	ldr	r2, [pc, #104]	; c107b54 <timer3_delay_s+0xf4>
 c107ae8:	e5922000 	ldr	r2, [r2]
 c107aec:	e3c2280f 	bic	r2, r2, #983040	; 0xf0000
 c107af0:	e3822801 	orr	r2, r2, #65536	; 0x10000
 c107af4:	e5832000 	str	r2, [r3]
 c107af8:	e1a00000 	nop			; (mov r0, r0)
 c107afc:	e59f3054 	ldr	r3, [pc, #84]	; c107b58 <timer3_delay_s+0xf8>
 c107b00:	e5933000 	ldr	r3, [r3]
 c107b04:	e3530000 	cmp	r3, #0
 c107b08:	0afffffb 	beq	c107afc <timer3_delay_s+0x9c>
 c107b0c:	e1a00000 	nop			; (mov r0, r0)
 c107b10:	e59f3040 	ldr	r3, [pc, #64]	; c107b58 <timer3_delay_s+0xf8>
 c107b14:	e5933000 	ldr	r3, [r3]
 c107b18:	e3530000 	cmp	r3, #0
 c107b1c:	1afffffb 	bne	c107b10 <timer3_delay_s+0xb0>
 c107b20:	e15b30be 	ldrh	r3, [fp, #-14]
 c107b24:	e2433001 	sub	r3, r3, #1
 c107b28:	e14b30be 	strh	r3, [fp, #-14]
 c107b2c:	e15b30be 	ldrh	r3, [fp, #-14]
 c107b30:	e3530000 	cmp	r3, #0
 c107b34:	1affffd0 	bne	c107a7c <timer3_delay_s+0x1c>
 c107b38:	e24bd00c 	sub	sp, fp, #12
 c107b3c:	e89d6800 	ldm	sp, {fp, sp, lr}
 c107b40:	e12fff1e 	bx	lr
 c107b44:	01d50000 	.word	0x01d50000
 c107b48:	01d50004 	.word	0x01d50004
 c107b4c:	01d50030 	.word	0x01d50030
 c107b50:	0c10be00 	.word	0x0c10be00
 c107b54:	01d50008 	.word	0x01d50008
 c107b58:	01d50038 	.word	0x01d50038

0c107b5c <sw_delay_s>:
 c107b5c:	e1a0c00d 	mov	ip, sp
 c107b60:	e92dd800 	push	{fp, ip, lr, pc}
 c107b64:	e24cb004 	sub	fp, ip, #4
 c107b68:	e24dd010 	sub	sp, sp, #16
 c107b6c:	e1a03000 	mov	r3, r0
 c107b70:	e14b31b6 	strh	r3, [fp, #-22]	; 0xffffffea
 c107b74:	e15b31b6 	ldrh	r3, [fp, #-22]	; 0xffffffea
 c107b78:	e59f2030 	ldr	r2, [pc, #48]	; c107bb0 <sw_delay_s+0x54>
 c107b7c:	e5922000 	ldr	r2, [r2]
 c107b80:	e0030392 	mul	r3, r2, r3
 c107b84:	e50b3010 	str	r3, [fp, #-16]
 c107b88:	ea000002 	b	c107b98 <sw_delay_s+0x3c>
 c107b8c:	e51b3010 	ldr	r3, [fp, #-16]
 c107b90:	e2433001 	sub	r3, r3, #1
 c107b94:	e50b3010 	str	r3, [fp, #-16]
 c107b98:	e51b3010 	ldr	r3, [fp, #-16]
 c107b9c:	e3530000 	cmp	r3, #0
 c107ba0:	1afffff9 	bne	c107b8c <sw_delay_s+0x30>
 c107ba4:	e24bd00c 	sub	sp, fp, #12
 c107ba8:	e89d6800 	ldm	sp, {fp, sp, lr}
 c107bac:	e12fff1e 	bx	lr
 c107bb0:	0c1154f8 	.word	0x0c1154f8

0c107bb4 <timer3_start>:
 c107bb4:	e1a0c00d 	mov	ip, sp
 c107bb8:	e92dd800 	push	{fp, ip, lr, pc}
 c107bbc:	e24cb004 	sub	fp, ip, #4
 c107bc0:	e59f30a8 	ldr	r3, [pc, #168]	; c107c70 <timer3_start+0xbc>
 c107bc4:	e59f20a4 	ldr	r2, [pc, #164]	; c107c70 <timer3_start+0xbc>
 c107bc8:	e5922000 	ldr	r2, [r2]
 c107bcc:	e3c21cff 	bic	r1, r2, #65280	; 0xff00
 c107bd0:	e59f209c 	ldr	r2, [pc, #156]	; c107c74 <timer3_start+0xc0>
 c107bd4:	e5920000 	ldr	r0, [r2]
 c107bd8:	e59f2098 	ldr	r2, [pc, #152]	; c107c78 <timer3_start+0xc4>
 c107bdc:	e082c290 	umull	ip, r2, r0, r2
 c107be0:	e1a02922 	lsr	r2, r2, #18
 c107be4:	e20220ff 	and	r2, r2, #255	; 0xff
 c107be8:	e2422001 	sub	r2, r2, #1
 c107bec:	e20220ff 	and	r2, r2, #255	; 0xff
 c107bf0:	e1a02402 	lsl	r2, r2, #8
 c107bf4:	e1812002 	orr	r2, r1, r2
 c107bf8:	e5832000 	str	r2, [r3]
 c107bfc:	e59f3078 	ldr	r3, [pc, #120]	; c107c7c <timer3_start+0xc8>
 c107c00:	e59f2074 	ldr	r2, [pc, #116]	; c107c7c <timer3_start+0xc8>
 c107c04:	e5922000 	ldr	r2, [r2]
 c107c08:	e3c22a0f 	bic	r2, r2, #61440	; 0xf000
 c107c0c:	e3822901 	orr	r2, r2, #16384	; 0x4000
 c107c10:	e5832000 	str	r2, [r3]
 c107c14:	e59f3064 	ldr	r3, [pc, #100]	; c107c80 <timer3_start+0xcc>
 c107c18:	e59f2064 	ldr	r2, [pc, #100]	; c107c84 <timer3_start+0xd0>
 c107c1c:	e5832000 	str	r2, [r3]
 c107c20:	e59f3060 	ldr	r3, [pc, #96]	; c107c88 <timer3_start+0xd4>
 c107c24:	e59f205c 	ldr	r2, [pc, #92]	; c107c88 <timer3_start+0xd4>
 c107c28:	e5922000 	ldr	r2, [r2]
 c107c2c:	e3c2280f 	bic	r2, r2, #983040	; 0xf0000
 c107c30:	e3822802 	orr	r2, r2, #131072	; 0x20000
 c107c34:	e5832000 	str	r2, [r3]
 c107c38:	e59f3048 	ldr	r3, [pc, #72]	; c107c88 <timer3_start+0xd4>
 c107c3c:	e59f2044 	ldr	r2, [pc, #68]	; c107c88 <timer3_start+0xd4>
 c107c40:	e5922000 	ldr	r2, [r2]
 c107c44:	e3c2280f 	bic	r2, r2, #983040	; 0xf0000
 c107c48:	e3822801 	orr	r2, r2, #65536	; 0x10000
 c107c4c:	e5832000 	str	r2, [r3]
 c107c50:	e1a00000 	nop			; (mov r0, r0)
 c107c54:	e59f3030 	ldr	r3, [pc, #48]	; c107c8c <timer3_start+0xd8>
 c107c58:	e5933000 	ldr	r3, [r3]
 c107c5c:	e3530000 	cmp	r3, #0
 c107c60:	0afffffb 	beq	c107c54 <timer3_start+0xa0>
 c107c64:	e24bd00c 	sub	sp, fp, #12
 c107c68:	e89d6800 	ldm	sp, {fp, sp, lr}
 c107c6c:	e12fff1e 	bx	lr
 c107c70:	01d50000 	.word	0x01d50000
 c107c74:	0c10be00 	.word	0x0c10be00
 c107c78:	d1b71759 	.word	0xd1b71759
 c107c7c:	01d50004 	.word	0x01d50004
 c107c80:	01d50030 	.word	0x01d50030
 c107c84:	0000ffff 	.word	0x0000ffff
 c107c88:	01d50008 	.word	0x01d50008
 c107c8c:	01d50038 	.word	0x01d50038

0c107c90 <timer3_stop>:
 c107c90:	e1a0c00d 	mov	ip, sp
 c107c94:	e92dd800 	push	{fp, ip, lr, pc}
 c107c98:	e24cb004 	sub	fp, ip, #4
 c107c9c:	e59f3038 	ldr	r3, [pc, #56]	; c107cdc <timer3_stop+0x4c>
 c107ca0:	e59f2034 	ldr	r2, [pc, #52]	; c107cdc <timer3_stop+0x4c>
 c107ca4:	e5922000 	ldr	r2, [r2]
 c107ca8:	e3c22801 	bic	r2, r2, #65536	; 0x10000
 c107cac:	e5832000 	str	r2, [r3]
 c107cb0:	e59f3028 	ldr	r3, [pc, #40]	; c107ce0 <timer3_stop+0x50>
 c107cb4:	e5933000 	ldr	r3, [r3]
 c107cb8:	e1a03803 	lsl	r3, r3, #16
 c107cbc:	e1a03823 	lsr	r3, r3, #16
 c107cc0:	e1e03003 	mvn	r3, r3
 c107cc4:	e1a03803 	lsl	r3, r3, #16
 c107cc8:	e1a03823 	lsr	r3, r3, #16
 c107ccc:	e1a00003 	mov	r0, r3
 c107cd0:	e24bd00c 	sub	sp, fp, #12
 c107cd4:	e89d6800 	ldm	sp, {fp, sp, lr}
 c107cd8:	e12fff1e 	bx	lr
 c107cdc:	01d50008 	.word	0x01d50008
 c107ce0:	01d50038 	.word	0x01d50038

0c107ce4 <timer3_start_timeout>:
 c107ce4:	e1a0c00d 	mov	ip, sp
 c107ce8:	e92dd800 	push	{fp, ip, lr, pc}
 c107cec:	e24cb004 	sub	fp, ip, #4
 c107cf0:	e24dd008 	sub	sp, sp, #8
 c107cf4:	e1a03000 	mov	r3, r0
 c107cf8:	e14b30be 	strh	r3, [fp, #-14]
 c107cfc:	e59f30a8 	ldr	r3, [pc, #168]	; c107dac <timer3_start_timeout+0xc8>
 c107d00:	e59f20a4 	ldr	r2, [pc, #164]	; c107dac <timer3_start_timeout+0xc8>
 c107d04:	e5922000 	ldr	r2, [r2]
 c107d08:	e3c21cff 	bic	r1, r2, #65280	; 0xff00
 c107d0c:	e59f209c 	ldr	r2, [pc, #156]	; c107db0 <timer3_start_timeout+0xcc>
 c107d10:	e5920000 	ldr	r0, [r2]
 c107d14:	e59f2098 	ldr	r2, [pc, #152]	; c107db4 <timer3_start_timeout+0xd0>
 c107d18:	e082c290 	umull	ip, r2, r0, r2
 c107d1c:	e1a02922 	lsr	r2, r2, #18
 c107d20:	e20220ff 	and	r2, r2, #255	; 0xff
 c107d24:	e2422001 	sub	r2, r2, #1
 c107d28:	e20220ff 	and	r2, r2, #255	; 0xff
 c107d2c:	e1a02402 	lsl	r2, r2, #8
 c107d30:	e1812002 	orr	r2, r1, r2
 c107d34:	e5832000 	str	r2, [r3]
 c107d38:	e59f3078 	ldr	r3, [pc, #120]	; c107db8 <timer3_start_timeout+0xd4>
 c107d3c:	e59f2074 	ldr	r2, [pc, #116]	; c107db8 <timer3_start_timeout+0xd4>
 c107d40:	e5922000 	ldr	r2, [r2]
 c107d44:	e3c22a0f 	bic	r2, r2, #61440	; 0xf000
 c107d48:	e3822901 	orr	r2, r2, #16384	; 0x4000
 c107d4c:	e5832000 	str	r2, [r3]
 c107d50:	e59f3064 	ldr	r3, [pc, #100]	; c107dbc <timer3_start_timeout+0xd8>
 c107d54:	e15b20be 	ldrh	r2, [fp, #-14]
 c107d58:	e5832000 	str	r2, [r3]
 c107d5c:	e59f305c 	ldr	r3, [pc, #92]	; c107dc0 <timer3_start_timeout+0xdc>
 c107d60:	e59f2058 	ldr	r2, [pc, #88]	; c107dc0 <timer3_start_timeout+0xdc>
 c107d64:	e5922000 	ldr	r2, [r2]
 c107d68:	e3c2280f 	bic	r2, r2, #983040	; 0xf0000
 c107d6c:	e3822802 	orr	r2, r2, #131072	; 0x20000
 c107d70:	e5832000 	str	r2, [r3]
 c107d74:	e59f3044 	ldr	r3, [pc, #68]	; c107dc0 <timer3_start_timeout+0xdc>
 c107d78:	e59f2040 	ldr	r2, [pc, #64]	; c107dc0 <timer3_start_timeout+0xdc>
 c107d7c:	e5922000 	ldr	r2, [r2]
 c107d80:	e3c2280f 	bic	r2, r2, #983040	; 0xf0000
 c107d84:	e3822801 	orr	r2, r2, #65536	; 0x10000
 c107d88:	e5832000 	str	r2, [r3]
 c107d8c:	e1a00000 	nop			; (mov r0, r0)
 c107d90:	e59f302c 	ldr	r3, [pc, #44]	; c107dc4 <timer3_start_timeout+0xe0>
 c107d94:	e5933000 	ldr	r3, [r3]
 c107d98:	e3530000 	cmp	r3, #0
 c107d9c:	0afffffb 	beq	c107d90 <timer3_start_timeout+0xac>
 c107da0:	e24bd00c 	sub	sp, fp, #12
 c107da4:	e89d6800 	ldm	sp, {fp, sp, lr}
 c107da8:	e12fff1e 	bx	lr
 c107dac:	01d50000 	.word	0x01d50000
 c107db0:	0c10be00 	.word	0x0c10be00
 c107db4:	d1b71759 	.word	0xd1b71759
 c107db8:	01d50004 	.word	0x01d50004
 c107dbc:	01d50030 	.word	0x01d50030
 c107dc0:	01d50008 	.word	0x01d50008
 c107dc4:	01d50038 	.word	0x01d50038

0c107dc8 <timer3_timeout>:
 c107dc8:	e1a0c00d 	mov	ip, sp
 c107dcc:	e92dd800 	push	{fp, ip, lr, pc}
 c107dd0:	e24cb004 	sub	fp, ip, #4
 c107dd4:	e59f3024 	ldr	r3, [pc, #36]	; c107e00 <timer3_timeout+0x38>
 c107dd8:	e5933000 	ldr	r3, [r3]
 c107ddc:	e3530000 	cmp	r3, #0
 c107de0:	13a03000 	movne	r3, #0
 c107de4:	03a03001 	moveq	r3, #1
 c107de8:	e1a03803 	lsl	r3, r3, #16
 c107dec:	e1a03823 	lsr	r3, r3, #16
 c107df0:	e1a00003 	mov	r0, r3
 c107df4:	e24bd00c 	sub	sp, fp, #12
 c107df8:	e89d6800 	ldm	sp, {fp, sp, lr}
 c107dfc:	e12fff1e 	bx	lr
 c107e00:	01d50038 	.word	0x01d50038

0c107e04 <timer0_open_tick>:
 c107e04:	e1a0c00d 	mov	ip, sp
 c107e08:	e92dd810 	push	{r4, fp, ip, lr, pc}
 c107e0c:	e24cb004 	sub	fp, ip, #4
 c107e10:	e24dd00c 	sub	sp, sp, #12
 c107e14:	e50b0018 	str	r0, [fp, #-24]	; 0xffffffe8
 c107e18:	e1a03001 	mov	r3, r1
 c107e1c:	e14b31ba 	strh	r3, [fp, #-26]	; 0xffffffe6
 c107e20:	e59f3204 	ldr	r3, [pc, #516]	; c10802c <timer0_open_tick+0x228>
 c107e24:	e59f2200 	ldr	r2, [pc, #512]	; c10802c <timer0_open_tick+0x228>
 c107e28:	e5922000 	ldr	r2, [r2]
 c107e2c:	e3822088 	orr	r2, r2, #136	; 0x88
 c107e30:	e5832000 	str	r2, [r3]
 c107e34:	e59f31f4 	ldr	r3, [pc, #500]	; c108030 <timer0_open_tick+0x22c>
 c107e38:	e51b2018 	ldr	r2, [fp, #-24]	; 0xffffffe8
 c107e3c:	e5832000 	str	r2, [r3]
 c107e40:	e59f31ec 	ldr	r3, [pc, #492]	; c108034 <timer0_open_tick+0x230>
 c107e44:	e3a02a02 	mov	r2, #8192	; 0x2000
 c107e48:	e5832000 	str	r2, [r3]
 c107e4c:	e59f21e4 	ldr	r2, [pc, #484]	; c108038 <timer0_open_tick+0x234>
 c107e50:	e59f31e0 	ldr	r3, [pc, #480]	; c108038 <timer0_open_tick+0x234>
 c107e54:	e5933000 	ldr	r3, [r3]
 c107e58:	e3c33301 	bic	r3, r3, #67108864	; 0x4000000
 c107e5c:	e3c33a02 	bic	r3, r3, #8192	; 0x2000
 c107e60:	e5823000 	str	r3, [r2]
 c107e64:	e15b31ba 	ldrh	r3, [fp, #-26]	; 0xffffffe6
 c107e68:	e3530000 	cmp	r3, #0
 c107e6c:	0a000018 	beq	c107ed4 <timer0_open_tick+0xd0>
 c107e70:	e15b31ba 	ldrh	r3, [fp, #-26]	; 0xffffffe6
 c107e74:	e353000a 	cmp	r3, #10
 c107e78:	8a000015 	bhi	c107ed4 <timer0_open_tick+0xd0>
 c107e7c:	e59f31b8 	ldr	r3, [pc, #440]	; c10803c <timer0_open_tick+0x238>
 c107e80:	e59f21b4 	ldr	r2, [pc, #436]	; c10803c <timer0_open_tick+0x238>
 c107e84:	e5922000 	ldr	r2, [r2]
 c107e88:	e3c220ff 	bic	r2, r2, #255	; 0xff
 c107e8c:	e3822031 	orr	r2, r2, #49	; 0x31
 c107e90:	e5832000 	str	r2, [r3]
 c107e94:	e59f31a4 	ldr	r3, [pc, #420]	; c108040 <timer0_open_tick+0x23c>
 c107e98:	e59f21a0 	ldr	r2, [pc, #416]	; c108040 <timer0_open_tick+0x23c>
 c107e9c:	e5922000 	ldr	r2, [r2]
 c107ea0:	e3c2200f 	bic	r2, r2, #15
 c107ea4:	e3822004 	orr	r2, r2, #4
 c107ea8:	e5832000 	str	r2, [r3]
 c107eac:	e59f4190 	ldr	r4, [pc, #400]	; c108044 <timer0_open_tick+0x240>
 c107eb0:	e15b31ba 	ldrh	r3, [fp, #-26]	; 0xffffffe6
 c107eb4:	e59f018c 	ldr	r0, [pc, #396]	; c108048 <timer0_open_tick+0x244>
 c107eb8:	e1a01003 	mov	r1, r3
 c107ebc:	eb00059e 	bl	c10953c <__aeabi_uidiv>
 c107ec0:	e1a03000 	mov	r3, r0
 c107ec4:	e1a03803 	lsl	r3, r3, #16
 c107ec8:	e1a03823 	lsr	r3, r3, #16
 c107ecc:	e5843000 	str	r3, [r4]
 c107ed0:	ea000046 	b	c107ff0 <timer0_open_tick+0x1ec>
 c107ed4:	e15b31ba 	ldrh	r3, [fp, #-26]	; 0xffffffe6
 c107ed8:	e353000a 	cmp	r3, #10
 c107edc:	9a000016 	bls	c107f3c <timer0_open_tick+0x138>
 c107ee0:	e15b31ba 	ldrh	r3, [fp, #-26]	; 0xffffffe6
 c107ee4:	e3530064 	cmp	r3, #100	; 0x64
 c107ee8:	8a000013 	bhi	c107f3c <timer0_open_tick+0x138>
 c107eec:	e59f3148 	ldr	r3, [pc, #328]	; c10803c <timer0_open_tick+0x238>
 c107ef0:	e59f2144 	ldr	r2, [pc, #324]	; c10803c <timer0_open_tick+0x238>
 c107ef4:	e5922000 	ldr	r2, [r2]
 c107ef8:	e3c220ff 	bic	r2, r2, #255	; 0xff
 c107efc:	e3822004 	orr	r2, r2, #4
 c107f00:	e5832000 	str	r2, [r3]
 c107f04:	e59f3134 	ldr	r3, [pc, #308]	; c108040 <timer0_open_tick+0x23c>
 c107f08:	e59f2130 	ldr	r2, [pc, #304]	; c108040 <timer0_open_tick+0x23c>
 c107f0c:	e5922000 	ldr	r2, [r2]
 c107f10:	e3c2200f 	bic	r2, r2, #15
 c107f14:	e3822004 	orr	r2, r2, #4
 c107f18:	e5832000 	str	r2, [r3]
 c107f1c:	e59f4120 	ldr	r4, [pc, #288]	; c108044 <timer0_open_tick+0x240>
 c107f20:	e15b31ba 	ldrh	r3, [fp, #-26]	; 0xffffffe6
 c107f24:	e59f0120 	ldr	r0, [pc, #288]	; c10804c <timer0_open_tick+0x248>
 c107f28:	e1a01003 	mov	r1, r3
 c107f2c:	eb000582 	bl	c10953c <__aeabi_uidiv>
 c107f30:	e1a03000 	mov	r3, r0
 c107f34:	e5843000 	str	r3, [r4]
 c107f38:	ea00002c 	b	c107ff0 <timer0_open_tick+0x1ec>
 c107f3c:	e15b31ba 	ldrh	r3, [fp, #-26]	; 0xffffffe6
 c107f40:	e3530064 	cmp	r3, #100	; 0x64
 c107f44:	9a000015 	bls	c107fa0 <timer0_open_tick+0x19c>
 c107f48:	e15b31ba 	ldrh	r3, [fp, #-26]	; 0xffffffe6
 c107f4c:	e3530ffa 	cmp	r3, #1000	; 0x3e8
 c107f50:	8a000012 	bhi	c107fa0 <timer0_open_tick+0x19c>
 c107f54:	e59f30e0 	ldr	r3, [pc, #224]	; c10803c <timer0_open_tick+0x238>
 c107f58:	e59f20dc 	ldr	r2, [pc, #220]	; c10803c <timer0_open_tick+0x238>
 c107f5c:	e5922000 	ldr	r2, [r2]
 c107f60:	e3c220ff 	bic	r2, r2, #255	; 0xff
 c107f64:	e5832000 	str	r2, [r3]
 c107f68:	e59f30d0 	ldr	r3, [pc, #208]	; c108040 <timer0_open_tick+0x23c>
 c107f6c:	e59f20cc 	ldr	r2, [pc, #204]	; c108040 <timer0_open_tick+0x23c>
 c107f70:	e5922000 	ldr	r2, [r2]
 c107f74:	e3c2200f 	bic	r2, r2, #15
 c107f78:	e3822003 	orr	r2, r2, #3
 c107f7c:	e5832000 	str	r2, [r3]
 c107f80:	e59f40bc 	ldr	r4, [pc, #188]	; c108044 <timer0_open_tick+0x240>
 c107f84:	e15b31ba 	ldrh	r3, [fp, #-26]	; 0xffffffe6
 c107f88:	e59f00c0 	ldr	r0, [pc, #192]	; c108050 <timer0_open_tick+0x24c>
 c107f8c:	e1a01003 	mov	r1, r3
 c107f90:	eb000569 	bl	c10953c <__aeabi_uidiv>
 c107f94:	e1a03000 	mov	r3, r0
 c107f98:	e5843000 	str	r3, [r4]
 c107f9c:	ea000013 	b	c107ff0 <timer0_open_tick+0x1ec>
 c107fa0:	e15b31ba 	ldrh	r3, [fp, #-26]	; 0xffffffe6
 c107fa4:	e3530ffa 	cmp	r3, #1000	; 0x3e8
 c107fa8:	9a000010 	bls	c107ff0 <timer0_open_tick+0x1ec>
 c107fac:	e59f3088 	ldr	r3, [pc, #136]	; c10803c <timer0_open_tick+0x238>
 c107fb0:	e59f2084 	ldr	r2, [pc, #132]	; c10803c <timer0_open_tick+0x238>
 c107fb4:	e5922000 	ldr	r2, [r2]
 c107fb8:	e3c220ff 	bic	r2, r2, #255	; 0xff
 c107fbc:	e5832000 	str	r2, [r3]
 c107fc0:	e59f3078 	ldr	r3, [pc, #120]	; c108040 <timer0_open_tick+0x23c>
 c107fc4:	e59f2074 	ldr	r2, [pc, #116]	; c108040 <timer0_open_tick+0x23c>
 c107fc8:	e5922000 	ldr	r2, [r2]
 c107fcc:	e3c2200f 	bic	r2, r2, #15
 c107fd0:	e5832000 	str	r2, [r3]
 c107fd4:	e59f4068 	ldr	r4, [pc, #104]	; c108044 <timer0_open_tick+0x240>
 c107fd8:	e15b31ba 	ldrh	r3, [fp, #-26]	; 0xffffffe6
 c107fdc:	e59f0070 	ldr	r0, [pc, #112]	; c108054 <timer0_open_tick+0x250>
 c107fe0:	e1a01003 	mov	r1, r3
 c107fe4:	eb000554 	bl	c10953c <__aeabi_uidiv>
 c107fe8:	e1a03000 	mov	r3, r0
 c107fec:	e5843000 	str	r3, [r4]
 c107ff0:	e59f3060 	ldr	r3, [pc, #96]	; c108058 <timer0_open_tick+0x254>
 c107ff4:	e59f205c 	ldr	r2, [pc, #92]	; c108058 <timer0_open_tick+0x254>
 c107ff8:	e5922000 	ldr	r2, [r2]
 c107ffc:	e3c2200f 	bic	r2, r2, #15
 c108000:	e382200a 	orr	r2, r2, #10
 c108004:	e5832000 	str	r2, [r3]
 c108008:	e59f3048 	ldr	r3, [pc, #72]	; c108058 <timer0_open_tick+0x254>
 c10800c:	e59f2044 	ldr	r2, [pc, #68]	; c108058 <timer0_open_tick+0x254>
 c108010:	e5922000 	ldr	r2, [r2]
 c108014:	e3c2200f 	bic	r2, r2, #15
 c108018:	e3822009 	orr	r2, r2, #9
 c10801c:	e5832000 	str	r2, [r3]
 c108020:	e24bd010 	sub	sp, fp, #16
 c108024:	e89d6810 	ldm	sp, {r4, fp, sp, lr}
 c108028:	e12fff1e 	bx	lr
 c10802c:	01d80004 	.word	0x01d80004
 c108030:	0c7fff54 	.word	0x0c7fff54
 c108034:	01e00024 	.word	0x01e00024
 c108038:	01e0000c 	.word	0x01e0000c
 c10803c:	01d50000 	.word	0x01d50000
 c108040:	01d50004 	.word	0x01d50004
 c108044:	01d5000c 	.word	0x01d5000c
 c108048:	00009c40 	.word	0x00009c40
 c10804c:	00061a80 	.word	0x00061a80
 c108050:	003d0900 	.word	0x003d0900
 c108054:	01e84800 	.word	0x01e84800
 c108058:	01d50008 	.word	0x01d50008

0c10805c <timer0_open_ms>:
 c10805c:	e1a0c00d 	mov	ip, sp
 c108060:	e92dd800 	push	{fp, ip, lr, pc}
 c108064:	e24cb004 	sub	fp, ip, #4
 c108068:	e24dd008 	sub	sp, sp, #8
 c10806c:	e50b0010 	str	r0, [fp, #-16]
 c108070:	e1a03002 	mov	r3, r2
 c108074:	e14b11b2 	strh	r1, [fp, #-18]	; 0xffffffee
 c108078:	e54b3013 	strb	r3, [fp, #-19]	; 0xffffffed
 c10807c:	e59f30dc 	ldr	r3, [pc, #220]	; c108160 <timer0_open_ms+0x104>
 c108080:	e59f20d8 	ldr	r2, [pc, #216]	; c108160 <timer0_open_ms+0x104>
 c108084:	e5922000 	ldr	r2, [r2]
 c108088:	e3822088 	orr	r2, r2, #136	; 0x88
 c10808c:	e5832000 	str	r2, [r3]
 c108090:	e59f30cc 	ldr	r3, [pc, #204]	; c108164 <timer0_open_ms+0x108>
 c108094:	e51b2010 	ldr	r2, [fp, #-16]
 c108098:	e5832000 	str	r2, [r3]
 c10809c:	e59f30c4 	ldr	r3, [pc, #196]	; c108168 <timer0_open_ms+0x10c>
 c1080a0:	e3a02a02 	mov	r2, #8192	; 0x2000
 c1080a4:	e5832000 	str	r2, [r3]
 c1080a8:	e59f20bc 	ldr	r2, [pc, #188]	; c10816c <timer0_open_ms+0x110>
 c1080ac:	e59f30b8 	ldr	r3, [pc, #184]	; c10816c <timer0_open_ms+0x110>
 c1080b0:	e5933000 	ldr	r3, [r3]
 c1080b4:	e3c33301 	bic	r3, r3, #67108864	; 0x4000000
 c1080b8:	e3c33a02 	bic	r3, r3, #8192	; 0x2000
 c1080bc:	e5823000 	str	r3, [r2]
 c1080c0:	e59f30a8 	ldr	r3, [pc, #168]	; c108170 <timer0_open_ms+0x114>
 c1080c4:	e59f20a4 	ldr	r2, [pc, #164]	; c108170 <timer0_open_ms+0x114>
 c1080c8:	e5922000 	ldr	r2, [r2]
 c1080cc:	e3c220ff 	bic	r2, r2, #255	; 0xff
 c1080d0:	e38220c7 	orr	r2, r2, #199	; 0xc7
 c1080d4:	e5832000 	str	r2, [r3]
 c1080d8:	e59f3094 	ldr	r3, [pc, #148]	; c108174 <timer0_open_ms+0x118>
 c1080dc:	e59f2090 	ldr	r2, [pc, #144]	; c108174 <timer0_open_ms+0x118>
 c1080e0:	e5922000 	ldr	r2, [r2]
 c1080e4:	e3c2200f 	bic	r2, r2, #15
 c1080e8:	e3822004 	orr	r2, r2, #4
 c1080ec:	e5832000 	str	r2, [r3]
 c1080f0:	e59f1080 	ldr	r1, [pc, #128]	; c108178 <timer0_open_ms+0x11c>
 c1080f4:	e15b21b2 	ldrh	r2, [fp, #-18]	; 0xffffffee
 c1080f8:	e1a03002 	mov	r3, r2
 c1080fc:	e1a03103 	lsl	r3, r3, #2
 c108100:	e0833002 	add	r3, r3, r2
 c108104:	e1a03083 	lsl	r3, r3, #1
 c108108:	e5813000 	str	r3, [r1]
 c10810c:	e59f3068 	ldr	r3, [pc, #104]	; c10817c <timer0_open_ms+0x120>
 c108110:	e59f2064 	ldr	r2, [pc, #100]	; c10817c <timer0_open_ms+0x120>
 c108114:	e5922000 	ldr	r2, [r2]
 c108118:	e3c2100f 	bic	r1, r2, #15
 c10811c:	e55b2013 	ldrb	r2, [fp, #-19]	; 0xffffffed
 c108120:	e1a02182 	lsl	r2, r2, #3
 c108124:	e1812002 	orr	r2, r1, r2
 c108128:	e3822002 	orr	r2, r2, #2
 c10812c:	e5832000 	str	r2, [r3]
 c108130:	e59f3044 	ldr	r3, [pc, #68]	; c10817c <timer0_open_ms+0x120>
 c108134:	e59f2040 	ldr	r2, [pc, #64]	; c10817c <timer0_open_ms+0x120>
 c108138:	e5922000 	ldr	r2, [r2]
 c10813c:	e3c2100f 	bic	r1, r2, #15
 c108140:	e55b2013 	ldrb	r2, [fp, #-19]	; 0xffffffed
 c108144:	e1a02182 	lsl	r2, r2, #3
 c108148:	e1812002 	orr	r2, r1, r2
 c10814c:	e3822001 	orr	r2, r2, #1
 c108150:	e5832000 	str	r2, [r3]
 c108154:	e24bd00c 	sub	sp, fp, #12
 c108158:	e89d6800 	ldm	sp, {fp, sp, lr}
 c10815c:	e12fff1e 	bx	lr
 c108160:	01d80004 	.word	0x01d80004
 c108164:	0c7fff54 	.word	0x0c7fff54
 c108168:	01e00024 	.word	0x01e00024
 c10816c:	01e0000c 	.word	0x01e0000c
 c108170:	01d50000 	.word	0x01d50000
 c108174:	01d50004 	.word	0x01d50004
 c108178:	01d5000c 	.word	0x01d5000c
 c10817c:	01d50008 	.word	0x01d50008

0c108180 <timer0_close>:
 c108180:	e1a0c00d 	mov	ip, sp
 c108184:	e92dd800 	push	{fp, ip, lr, pc}
 c108188:	e24cb004 	sub	fp, ip, #4
 c10818c:	e59f3068 	ldr	r3, [pc, #104]	; c1081fc <timer0_close+0x7c>
 c108190:	e3a02000 	mov	r2, #0
 c108194:	e5832000 	str	r2, [r3]
 c108198:	e59f3060 	ldr	r3, [pc, #96]	; c108200 <timer0_close+0x80>
 c10819c:	e3a02000 	mov	r2, #0
 c1081a0:	e5832000 	str	r2, [r3]
 c1081a4:	e59f3058 	ldr	r3, [pc, #88]	; c108204 <timer0_close+0x84>
 c1081a8:	e59f2054 	ldr	r2, [pc, #84]	; c108204 <timer0_close+0x84>
 c1081ac:	e5922000 	ldr	r2, [r2]
 c1081b0:	e3c2200f 	bic	r2, r2, #15
 c1081b4:	e3822002 	orr	r2, r2, #2
 c1081b8:	e5832000 	str	r2, [r3]
 c1081bc:	e59f3040 	ldr	r3, [pc, #64]	; c108204 <timer0_close+0x84>
 c1081c0:	e59f203c 	ldr	r2, [pc, #60]	; c108204 <timer0_close+0x84>
 c1081c4:	e5922000 	ldr	r2, [r2]
 c1081c8:	e3c2200f 	bic	r2, r2, #15
 c1081cc:	e5832000 	str	r2, [r3]
 c1081d0:	e59f3030 	ldr	r3, [pc, #48]	; c108208 <timer0_close+0x88>
 c1081d4:	e59f202c 	ldr	r2, [pc, #44]	; c108208 <timer0_close+0x88>
 c1081d8:	e5922000 	ldr	r2, [r2]
 c1081dc:	e3822a02 	orr	r2, r2, #8192	; 0x2000
 c1081e0:	e5832000 	str	r2, [r3]
 c1081e4:	e59f3020 	ldr	r3, [pc, #32]	; c10820c <timer0_close+0x8c>
 c1081e8:	e59f2020 	ldr	r2, [pc, #32]	; c108210 <timer0_close+0x90>
 c1081ec:	e5832000 	str	r2, [r3]
 c1081f0:	e24bd00c 	sub	sp, fp, #12
 c1081f4:	e89d6800 	ldm	sp, {fp, sp, lr}
 c1081f8:	e12fff1e 	bx	lr
 c1081fc:	01d5000c 	.word	0x01d5000c
 c108200:	01d50010 	.word	0x01d50010
 c108204:	01d50008 	.word	0x01d50008
 c108208:	01e0000c 	.word	0x01e0000c
 c10820c:	0c7fff54 	.word	0x0c7fff54
 c108210:	0c106d4c 	.word	0x0c106d4c

0c108214 <ts_on>:
 c108214:	e1a0c00d 	mov	ip, sp
 c108218:	e92dd800 	push	{fp, ip, lr, pc}
 c10821c:	e24cb004 	sub	fp, ip, #4
 c108220:	eb000423 	bl	c1092b4 <adc_on>
 c108224:	e59f3010 	ldr	r3, [pc, #16]	; c10823c <ts_on+0x28>
 c108228:	e3a02001 	mov	r2, #1
 c10822c:	e5c32000 	strb	r2, [r3]
 c108230:	e24bd00c 	sub	sp, fp, #12
 c108234:	e89d6800 	ldm	sp, {fp, sp, lr}
 c108238:	e12fff1e 	bx	lr
 c10823c:	0c115504 	.word	0x0c115504

0c108240 <ts_off>:
 c108240:	e1a0c00d 	mov	ip, sp
 c108244:	e92dd800 	push	{fp, ip, lr, pc}
 c108248:	e24cb004 	sub	fp, ip, #4
 c10824c:	eb00042b 	bl	c109300 <adc_off>
 c108250:	e59f3010 	ldr	r3, [pc, #16]	; c108268 <ts_off+0x28>
 c108254:	e3a02000 	mov	r2, #0
 c108258:	e5c32000 	strb	r2, [r3]
 c10825c:	e24bd00c 	sub	sp, fp, #12
 c108260:	e89d6800 	ldm	sp, {fp, sp, lr}
 c108264:	e12fff1e 	bx	lr
 c108268:	0c115504 	.word	0x0c115504

0c10826c <ts_status>:
 c10826c:	e1a0c00d 	mov	ip, sp
 c108270:	e92dd800 	push	{fp, ip, lr, pc}
 c108274:	e24cb004 	sub	fp, ip, #4
 c108278:	e59f3010 	ldr	r3, [pc, #16]	; c108290 <ts_status+0x24>
 c10827c:	e5d33000 	ldrb	r3, [r3]
 c108280:	e1a00003 	mov	r0, r3
 c108284:	e24bd00c 	sub	sp, fp, #12
 c108288:	e89d6800 	ldm	sp, {fp, sp, lr}
 c10828c:	e12fff1e 	bx	lr
 c108290:	0c115504 	.word	0x0c115504

0c108294 <ts_pressed>:
 c108294:	e1a0c00d 	mov	ip, sp
 c108298:	e92dd800 	push	{fp, ip, lr, pc}
 c10829c:	e24cb004 	sub	fp, ip, #4
 c1082a0:	e59f3024 	ldr	r3, [pc, #36]	; c1082cc <ts_pressed+0x38>
 c1082a4:	e5933000 	ldr	r3, [r3]
 c1082a8:	e2033004 	and	r3, r3, #4
 c1082ac:	e3530000 	cmp	r3, #0
 c1082b0:	13a03000 	movne	r3, #0
 c1082b4:	03a03001 	moveq	r3, #1
 c1082b8:	e20330ff 	and	r3, r3, #255	; 0xff
 c1082bc:	e1a00003 	mov	r0, r3
 c1082c0:	e24bd00c 	sub	sp, fp, #12
 c1082c4:	e89d6800 	ldm	sp, {fp, sp, lr}
 c1082c8:	e12fff1e 	bx	lr
 c1082cc:	01d20044 	.word	0x01d20044

0c1082d0 <ts_calibrate>:
 c1082d0:	e1a0c00d 	mov	ip, sp
 c1082d4:	e92dd800 	push	{fp, ip, lr, pc}
 c1082d8:	e24cb004 	sub	fp, ip, #4
 c1082dc:	e24dd010 	sub	sp, sp, #16
 c1082e0:	ebffef1c 	bl	c103f58 <lcd_on>
 c1082e4:	ebffef43 	bl	c103ff8 <lcd_clear>
 c1082e8:	e3a0000a 	mov	r0, #10
 c1082ec:	e3a010c8 	mov	r1, #200	; 0xc8
 c1082f0:	e3a0200f 	mov	r2, #15
 c1082f4:	e59f3398 	ldr	r3, [pc, #920]	; c108694 <ts_calibrate+0x3c4>
 c1082f8:	ebfff141 	bl	c104804 <lcd_puts>
 c1082fc:	e3a0000a 	mov	r0, #10
 c108300:	e3a010d8 	mov	r1, #216	; 0xd8
 c108304:	e3a0200f 	mov	r2, #15
 c108308:	e59f3388 	ldr	r3, [pc, #904]	; c108698 <ts_calibrate+0x3c8>
 c10830c:	ebfff13c 	bl	c104804 <lcd_puts>
 c108310:	e3a03001 	mov	r3, #1
 c108314:	e58d3000 	str	r3, [sp]
 c108318:	e3a00000 	mov	r0, #0
 c10831c:	e3a01003 	mov	r1, #3
 c108320:	e3a02000 	mov	r2, #0
 c108324:	e3a0300f 	mov	r3, #15
 c108328:	ebffefac 	bl	c1041e0 <lcd_draw_hline>
 c10832c:	e3a03001 	mov	r3, #1
 c108330:	e58d3000 	str	r3, [sp]
 c108334:	e3a00000 	mov	r0, #0
 c108338:	e3a01003 	mov	r1, #3
 c10833c:	e3a02001 	mov	r2, #1
 c108340:	e3a0300f 	mov	r3, #15
 c108344:	ebffefa5 	bl	c1041e0 <lcd_draw_hline>
 c108348:	e3a03001 	mov	r3, #1
 c10834c:	e58d3000 	str	r3, [sp]
 c108350:	e3a00000 	mov	r0, #0
 c108354:	e3a01003 	mov	r1, #3
 c108358:	e3a02002 	mov	r2, #2
 c10835c:	e3a0300f 	mov	r3, #15
 c108360:	ebffef9e 	bl	c1041e0 <lcd_draw_hline>
 c108364:	e3a03001 	mov	r3, #1
 c108368:	e58d3000 	str	r3, [sp]
 c10836c:	e3a00000 	mov	r0, #0
 c108370:	e3a01003 	mov	r1, #3
 c108374:	e3a02003 	mov	r2, #3
 c108378:	e3a0300f 	mov	r3, #15
 c10837c:	ebffef97 	bl	c1041e0 <lcd_draw_hline>
 c108380:	e1a00000 	nop			; (mov r0, r0)
 c108384:	e59f3310 	ldr	r3, [pc, #784]	; c10869c <ts_calibrate+0x3cc>
 c108388:	e5933000 	ldr	r3, [r3]
 c10838c:	e2033004 	and	r3, r3, #4
 c108390:	e3530000 	cmp	r3, #0
 c108394:	1afffffa 	bne	c108384 <ts_calibrate+0xb4>
 c108398:	e3a0001e 	mov	r0, #30
 c10839c:	ebfffd99 	bl	c107a08 <sw_delay_ms>
 c1083a0:	e59f02f8 	ldr	r0, [pc, #760]	; c1086a0 <ts_calibrate+0x3d0>
 c1083a4:	e59f12f8 	ldr	r1, [pc, #760]	; c1086a4 <ts_calibrate+0x3d4>
 c1083a8:	eb000144 	bl	c1088c0 <ts_scan>
 c1083ac:	e1a00000 	nop			; (mov r0, r0)
 c1083b0:	e59f32e4 	ldr	r3, [pc, #740]	; c10869c <ts_calibrate+0x3cc>
 c1083b4:	e5933000 	ldr	r3, [r3]
 c1083b8:	e2033004 	and	r3, r3, #4
 c1083bc:	e3530000 	cmp	r3, #0
 c1083c0:	0afffffa 	beq	c1083b0 <ts_calibrate+0xe0>
 c1083c4:	e3a00064 	mov	r0, #100	; 0x64
 c1083c8:	ebfffd8e 	bl	c107a08 <sw_delay_ms>
 c1083cc:	e3a03001 	mov	r3, #1
 c1083d0:	e58d3000 	str	r3, [sp]
 c1083d4:	e3a00000 	mov	r0, #0
 c1083d8:	e3a01003 	mov	r1, #3
 c1083dc:	e3a02000 	mov	r2, #0
 c1083e0:	e3a03000 	mov	r3, #0
 c1083e4:	ebffef7d 	bl	c1041e0 <lcd_draw_hline>
 c1083e8:	e3a03001 	mov	r3, #1
 c1083ec:	e58d3000 	str	r3, [sp]
 c1083f0:	e3a00000 	mov	r0, #0
 c1083f4:	e3a01003 	mov	r1, #3
 c1083f8:	e3a02001 	mov	r2, #1
 c1083fc:	e3a03000 	mov	r3, #0
 c108400:	ebffef76 	bl	c1041e0 <lcd_draw_hline>
 c108404:	e3a03001 	mov	r3, #1
 c108408:	e58d3000 	str	r3, [sp]
 c10840c:	e3a00000 	mov	r0, #0
 c108410:	e3a01003 	mov	r1, #3
 c108414:	e3a02002 	mov	r2, #2
 c108418:	e3a03000 	mov	r3, #0
 c10841c:	ebffef6f 	bl	c1041e0 <lcd_draw_hline>
 c108420:	e3a03001 	mov	r3, #1
 c108424:	e58d3000 	str	r3, [sp]
 c108428:	e3a00000 	mov	r0, #0
 c10842c:	e3a01003 	mov	r1, #3
 c108430:	e3a02003 	mov	r2, #3
 c108434:	e3a03000 	mov	r3, #0
 c108438:	ebffef68 	bl	c1041e0 <lcd_draw_hline>
 c10843c:	e3a00e13 	mov	r0, #304	; 0x130
 c108440:	e3a010d8 	mov	r1, #216	; 0xd8
 c108444:	e3a0200f 	mov	r2, #15
 c108448:	e59f3258 	ldr	r3, [pc, #600]	; c1086a8 <ts_calibrate+0x3d8>
 c10844c:	ebfff0ec 	bl	c104804 <lcd_puts>
 c108450:	e3a0000a 	mov	r0, #10
 c108454:	e3a010d8 	mov	r1, #216	; 0xd8
 c108458:	e3a0200f 	mov	r2, #15
 c10845c:	e59f3248 	ldr	r3, [pc, #584]	; c1086ac <ts_calibrate+0x3dc>
 c108460:	ebfff0e7 	bl	c104804 <lcd_puts>
 c108464:	e3a03001 	mov	r3, #1
 c108468:	e58d3000 	str	r3, [sp]
 c10846c:	e3a00f4f 	mov	r0, #316	; 0x13c
 c108470:	e59f1238 	ldr	r1, [pc, #568]	; c1086b0 <ts_calibrate+0x3e0>
 c108474:	e3a020ec 	mov	r2, #236	; 0xec
 c108478:	e3a0300f 	mov	r3, #15
 c10847c:	ebffef57 	bl	c1041e0 <lcd_draw_hline>
 c108480:	e3a03001 	mov	r3, #1
 c108484:	e58d3000 	str	r3, [sp]
 c108488:	e3a00f4f 	mov	r0, #316	; 0x13c
 c10848c:	e59f121c 	ldr	r1, [pc, #540]	; c1086b0 <ts_calibrate+0x3e0>
 c108490:	e3a020ed 	mov	r2, #237	; 0xed
 c108494:	e3a0300f 	mov	r3, #15
 c108498:	ebffef50 	bl	c1041e0 <lcd_draw_hline>
 c10849c:	e3a03001 	mov	r3, #1
 c1084a0:	e58d3000 	str	r3, [sp]
 c1084a4:	e3a00f4f 	mov	r0, #316	; 0x13c
 c1084a8:	e59f1200 	ldr	r1, [pc, #512]	; c1086b0 <ts_calibrate+0x3e0>
 c1084ac:	e3a020ee 	mov	r2, #238	; 0xee
 c1084b0:	e3a0300f 	mov	r3, #15
 c1084b4:	ebffef49 	bl	c1041e0 <lcd_draw_hline>
 c1084b8:	e3a03001 	mov	r3, #1
 c1084bc:	e58d3000 	str	r3, [sp]
 c1084c0:	e3a00f4f 	mov	r0, #316	; 0x13c
 c1084c4:	e59f11e4 	ldr	r1, [pc, #484]	; c1086b0 <ts_calibrate+0x3e0>
 c1084c8:	e3a020ef 	mov	r2, #239	; 0xef
 c1084cc:	e3a0300f 	mov	r3, #15
 c1084d0:	ebffef42 	bl	c1041e0 <lcd_draw_hline>
 c1084d4:	e1a00000 	nop			; (mov r0, r0)
 c1084d8:	e59f31bc 	ldr	r3, [pc, #444]	; c10869c <ts_calibrate+0x3cc>
 c1084dc:	e5933000 	ldr	r3, [r3]
 c1084e0:	e2033004 	and	r3, r3, #4
 c1084e4:	e3530000 	cmp	r3, #0
 c1084e8:	1afffffa 	bne	c1084d8 <ts_calibrate+0x208>
 c1084ec:	e3a0001e 	mov	r0, #30
 c1084f0:	ebfffd44 	bl	c107a08 <sw_delay_ms>
 c1084f4:	e59f01b8 	ldr	r0, [pc, #440]	; c1086b4 <ts_calibrate+0x3e4>
 c1084f8:	e59f11b8 	ldr	r1, [pc, #440]	; c1086b8 <ts_calibrate+0x3e8>
 c1084fc:	eb0000ef 	bl	c1088c0 <ts_scan>
 c108500:	e1a00000 	nop			; (mov r0, r0)
 c108504:	e59f3190 	ldr	r3, [pc, #400]	; c10869c <ts_calibrate+0x3cc>
 c108508:	e5933000 	ldr	r3, [r3]
 c10850c:	e2033004 	and	r3, r3, #4
 c108510:	e3530000 	cmp	r3, #0
 c108514:	0afffffa 	beq	c108504 <ts_calibrate+0x234>
 c108518:	e3a00064 	mov	r0, #100	; 0x64
 c10851c:	ebfffd39 	bl	c107a08 <sw_delay_ms>
 c108520:	e3a03001 	mov	r3, #1
 c108524:	e58d3000 	str	r3, [sp]
 c108528:	e3a00f4f 	mov	r0, #316	; 0x13c
 c10852c:	e59f117c 	ldr	r1, [pc, #380]	; c1086b0 <ts_calibrate+0x3e0>
 c108530:	e3a020ec 	mov	r2, #236	; 0xec
 c108534:	e3a03000 	mov	r3, #0
 c108538:	ebffef28 	bl	c1041e0 <lcd_draw_hline>
 c10853c:	e3a03001 	mov	r3, #1
 c108540:	e58d3000 	str	r3, [sp]
 c108544:	e3a00f4f 	mov	r0, #316	; 0x13c
 c108548:	e59f1160 	ldr	r1, [pc, #352]	; c1086b0 <ts_calibrate+0x3e0>
 c10854c:	e3a020ed 	mov	r2, #237	; 0xed
 c108550:	e3a03000 	mov	r3, #0
 c108554:	ebffef21 	bl	c1041e0 <lcd_draw_hline>
 c108558:	e3a03001 	mov	r3, #1
 c10855c:	e58d3000 	str	r3, [sp]
 c108560:	e3a00f4f 	mov	r0, #316	; 0x13c
 c108564:	e59f1144 	ldr	r1, [pc, #324]	; c1086b0 <ts_calibrate+0x3e0>
 c108568:	e3a020ee 	mov	r2, #238	; 0xee
 c10856c:	e3a03000 	mov	r3, #0
 c108570:	ebffef1a 	bl	c1041e0 <lcd_draw_hline>
 c108574:	e3a03001 	mov	r3, #1
 c108578:	e58d3000 	str	r3, [sp]
 c10857c:	e3a00f4f 	mov	r0, #316	; 0x13c
 c108580:	e59f1128 	ldr	r1, [pc, #296]	; c1086b0 <ts_calibrate+0x3e0>
 c108584:	e3a020ef 	mov	r2, #239	; 0xef
 c108588:	e3a03000 	mov	r3, #0
 c10858c:	ebffef13 	bl	c1041e0 <lcd_draw_hline>
 c108590:	e3a00e12 	mov	r0, #288	; 0x120
 c108594:	e3a010d8 	mov	r1, #216	; 0xd8
 c108598:	e3a0200f 	mov	r2, #15
 c10859c:	e59f3104 	ldr	r3, [pc, #260]	; c1086a8 <ts_calibrate+0x3d8>
 c1085a0:	ebfff097 	bl	c104804 <lcd_puts>
 c1085a4:	e3a0000a 	mov	r0, #10
 c1085a8:	e3a010d8 	mov	r1, #216	; 0xd8
 c1085ac:	e3a0200f 	mov	r2, #15
 c1085b0:	e59f3104 	ldr	r3, [pc, #260]	; c1086bc <ts_calibrate+0x3ec>
 c1085b4:	ebfff092 	bl	c104804 <lcd_puts>
 c1085b8:	e3a03001 	mov	r3, #1
 c1085bc:	e58d3000 	str	r3, [sp]
 c1085c0:	e3a0009b 	mov	r0, #155	; 0x9b
 c1085c4:	e3a010a5 	mov	r1, #165	; 0xa5
 c1085c8:	e3a02078 	mov	r2, #120	; 0x78
 c1085cc:	e3a0300f 	mov	r3, #15
 c1085d0:	ebffef02 	bl	c1041e0 <lcd_draw_hline>
 c1085d4:	e3a03001 	mov	r3, #1
 c1085d8:	e58d3000 	str	r3, [sp]
 c1085dc:	e3a00073 	mov	r0, #115	; 0x73
 c1085e0:	e3a0107d 	mov	r1, #125	; 0x7d
 c1085e4:	e3a020a0 	mov	r2, #160	; 0xa0
 c1085e8:	e3a0300f 	mov	r3, #15
 c1085ec:	ebffef51 	bl	c104338 <lcd_draw_vline>
 c1085f0:	e24b200e 	sub	r2, fp, #14
 c1085f4:	e24b3010 	sub	r3, fp, #16
 c1085f8:	e1a00002 	mov	r0, r2
 c1085fc:	e1a01003 	mov	r1, r3
 c108600:	eb00018b 	bl	c108c34 <ts_getpos>
 c108604:	e3a03001 	mov	r3, #1
 c108608:	e58d3000 	str	r3, [sp]
 c10860c:	e3a0009b 	mov	r0, #155	; 0x9b
 c108610:	e3a010a5 	mov	r1, #165	; 0xa5
 c108614:	e3a02078 	mov	r2, #120	; 0x78
 c108618:	e3a03000 	mov	r3, #0
 c10861c:	ebffeeef 	bl	c1041e0 <lcd_draw_hline>
 c108620:	e3a03001 	mov	r3, #1
 c108624:	e58d3000 	str	r3, [sp]
 c108628:	e3a00073 	mov	r0, #115	; 0x73
 c10862c:	e3a0107d 	mov	r1, #125	; 0x7d
 c108630:	e3a020a0 	mov	r2, #160	; 0xa0
 c108634:	e3a03000 	mov	r3, #0
 c108638:	ebffef3e 	bl	c104338 <lcd_draw_vline>
 c10863c:	e3a000b2 	mov	r0, #178	; 0xb2
 c108640:	e3a010d8 	mov	r1, #216	; 0xd8
 c108644:	e3a0200f 	mov	r2, #15
 c108648:	e59f3058 	ldr	r3, [pc, #88]	; c1086a8 <ts_calibrate+0x3d8>
 c10864c:	ebfff06c 	bl	c104804 <lcd_puts>
 c108650:	e15b30be 	ldrh	r3, [fp, #-14]
 c108654:	e35300a5 	cmp	r3, #165	; 0xa5
 c108658:	8affff21 	bhi	c1082e4 <ts_calibrate+0x14>
 c10865c:	e15b30be 	ldrh	r3, [fp, #-14]
 c108660:	e353009a 	cmp	r3, #154	; 0x9a
 c108664:	9affff1e 	bls	c1082e4 <ts_calibrate+0x14>
 c108668:	e15b31b0 	ldrh	r3, [fp, #-16]
 c10866c:	e353007d 	cmp	r3, #125	; 0x7d
 c108670:	8affff1b 	bhi	c1082e4 <ts_calibrate+0x14>
 c108674:	e15b31b0 	ldrh	r3, [fp, #-16]
 c108678:	e3530072 	cmp	r3, #114	; 0x72
 c10867c:	9affff18 	bls	c1082e4 <ts_calibrate+0x14>
 c108680:	ebffee5c 	bl	c103ff8 <lcd_clear>
 c108684:	ebffee42 	bl	c103f94 <lcd_off>
 c108688:	e24bd00c 	sub	sp, fp, #12
 c10868c:	e89d6800 	ldm	sp, {fp, sp, lr}
 c108690:	e12fff1e 	bx	lr
 c108694:	0c10ad4c 	.word	0x0c10ad4c
 c108698:	0c10ad70 	.word	0x0c10ad70
 c10869c:	01d20044 	.word	0x01d20044
 c1086a0:	0c1154fc 	.word	0x0c1154fc
 c1086a4:	0c115502 	.word	0x0c115502
 c1086a8:	0c10ad98 	.word	0x0c10ad98
 c1086ac:	0c10ad9c 	.word	0x0c10ad9c
 c1086b0:	0000013f 	.word	0x0000013f
 c1086b4:	0c1154fe 	.word	0x0c1154fe
 c1086b8:	0c115500 	.word	0x0c115500
 c1086bc:	0c10adc4 	.word	0x0c10adc4

0c1086c0 <ts_getpostime>:
 c1086c0:	e1a0c00d 	mov	ip, sp
 c1086c4:	e92dd800 	push	{fp, ip, lr, pc}
 c1086c8:	e24cb004 	sub	fp, ip, #4
 c1086cc:	e24dd018 	sub	sp, sp, #24
 c1086d0:	e50b0018 	str	r0, [fp, #-24]	; 0xffffffe8
 c1086d4:	e50b101c 	str	r1, [fp, #-28]	; 0xffffffe4
 c1086d8:	e50b2020 	str	r2, [fp, #-32]	; 0xffffffe0
 c1086dc:	e1a00000 	nop			; (mov r0, r0)
 c1086e0:	e59f309c 	ldr	r3, [pc, #156]	; c108784 <ts_getpostime+0xc4>
 c1086e4:	e5933000 	ldr	r3, [r3]
 c1086e8:	e2033004 	and	r3, r3, #4
 c1086ec:	e3530000 	cmp	r3, #0
 c1086f0:	1afffffa 	bne	c1086e0 <ts_getpostime+0x20>
 c1086f4:	ebfffd2e 	bl	c107bb4 <timer3_start>
 c1086f8:	e3a0001e 	mov	r0, #30
 c1086fc:	ebfffcc1 	bl	c107a08 <sw_delay_ms>
 c108700:	e24b200e 	sub	r2, fp, #14
 c108704:	e24b3010 	sub	r3, fp, #16
 c108708:	e1a00002 	mov	r0, r2
 c10870c:	e1a01003 	mov	r1, r3
 c108710:	eb00006a 	bl	c1088c0 <ts_scan>
 c108714:	e15b20be 	ldrh	r2, [fp, #-14]
 c108718:	e15b31b0 	ldrh	r3, [fp, #-16]
 c10871c:	e1a00002 	mov	r0, r2
 c108720:	e1a01003 	mov	r1, r3
 c108724:	e51b2018 	ldr	r2, [fp, #-24]	; 0xffffffe8
 c108728:	e51b301c 	ldr	r3, [fp, #-28]	; 0xffffffe4
 c10872c:	eb000084 	bl	c108944 <ts_sample2coord>
 c108730:	e1a00000 	nop			; (mov r0, r0)
 c108734:	e59f3048 	ldr	r3, [pc, #72]	; c108784 <ts_getpostime+0xc4>
 c108738:	e5933000 	ldr	r3, [r3]
 c10873c:	e2033004 	and	r3, r3, #4
 c108740:	e3530000 	cmp	r3, #0
 c108744:	0afffffa 	beq	c108734 <ts_getpostime+0x74>
 c108748:	ebfffd50 	bl	c107c90 <timer3_stop>
 c10874c:	e1a03000 	mov	r3, r0
 c108750:	e1a02003 	mov	r2, r3
 c108754:	e59f302c 	ldr	r3, [pc, #44]	; c108788 <ts_getpostime+0xc8>
 c108758:	e0831392 	umull	r1, r3, r2, r3
 c10875c:	e1a031a3 	lsr	r3, r3, #3
 c108760:	e1a03803 	lsl	r3, r3, #16
 c108764:	e1a02823 	lsr	r2, r3, #16
 c108768:	e51b3020 	ldr	r3, [fp, #-32]	; 0xffffffe0
 c10876c:	e1c320b0 	strh	r2, [r3]
 c108770:	e3a00064 	mov	r0, #100	; 0x64
 c108774:	ebfffca3 	bl	c107a08 <sw_delay_ms>
 c108778:	e24bd00c 	sub	sp, fp, #12
 c10877c:	e89d6800 	ldm	sp, {fp, sp, lr}
 c108780:	e12fff1e 	bx	lr
 c108784:	01d20044 	.word	0x01d20044
 c108788:	cccccccd 	.word	0xcccccccd

0c10878c <ts_timeout_getpos>:
 c10878c:	e1a0c00d 	mov	ip, sp
 c108790:	e92dd800 	push	{fp, ip, lr, pc}
 c108794:	e24cb004 	sub	fp, ip, #4
 c108798:	e24dd018 	sub	sp, sp, #24
 c10879c:	e50b0018 	str	r0, [fp, #-24]	; 0xffffffe8
 c1087a0:	e50b101c 	str	r1, [fp, #-28]	; 0xffffffe4
 c1087a4:	e1a03002 	mov	r3, r2
 c1087a8:	e14b31be 	strh	r3, [fp, #-30]	; 0xffffffe2
 c1087ac:	e51b3018 	ldr	r3, [fp, #-24]	; 0xffffffe8
 c1087b0:	e3a02000 	mov	r2, #0
 c1087b4:	e1c320b0 	strh	r2, [r3]
 c1087b8:	e51b301c 	ldr	r3, [fp, #-28]	; 0xffffffe4
 c1087bc:	e3a02000 	mov	r2, #0
 c1087c0:	e1c320b0 	strh	r2, [r3]
 c1087c4:	e15b31be 	ldrh	r3, [fp, #-30]	; 0xffffffe2
 c1087c8:	e1a02003 	mov	r2, r3
 c1087cc:	e1a02102 	lsl	r2, r2, #2
 c1087d0:	e0823003 	add	r3, r2, r3
 c1087d4:	e1a03083 	lsl	r3, r3, #1
 c1087d8:	e1a03803 	lsl	r3, r3, #16
 c1087dc:	e1a03823 	lsr	r3, r3, #16
 c1087e0:	e1a00003 	mov	r0, r3
 c1087e4:	ebfffd3e 	bl	c107ce4 <timer3_start_timeout>
 c1087e8:	e1a00000 	nop			; (mov r0, r0)
 c1087ec:	e59f30c8 	ldr	r3, [pc, #200]	; c1088bc <ts_timeout_getpos+0x130>
 c1087f0:	e5933000 	ldr	r3, [r3]
 c1087f4:	e2033004 	and	r3, r3, #4
 c1087f8:	e3530000 	cmp	r3, #0
 c1087fc:	0a000003 	beq	c108810 <ts_timeout_getpos+0x84>
 c108800:	ebfffd70 	bl	c107dc8 <timer3_timeout>
 c108804:	e1a03000 	mov	r3, r0
 c108808:	e3530000 	cmp	r3, #0
 c10880c:	0afffff6 	beq	c1087ec <ts_timeout_getpos+0x60>
 c108810:	ebfffd6c 	bl	c107dc8 <timer3_timeout>
 c108814:	e1a03000 	mov	r3, r0
 c108818:	e3530000 	cmp	r3, #0
 c10881c:	0a000001 	beq	c108828 <ts_timeout_getpos+0x9c>
 c108820:	e3a030fe 	mov	r3, #254	; 0xfe
 c108824:	ea000020 	b	c1088ac <ts_timeout_getpos+0x120>
 c108828:	e3a0001e 	mov	r0, #30
 c10882c:	ebfffc75 	bl	c107a08 <sw_delay_ms>
 c108830:	e24b200e 	sub	r2, fp, #14
 c108834:	e24b3010 	sub	r3, fp, #16
 c108838:	e1a00002 	mov	r0, r2
 c10883c:	e1a01003 	mov	r1, r3
 c108840:	eb00001e 	bl	c1088c0 <ts_scan>
 c108844:	e15b20be 	ldrh	r2, [fp, #-14]
 c108848:	e15b31b0 	ldrh	r3, [fp, #-16]
 c10884c:	e1a00002 	mov	r0, r2
 c108850:	e1a01003 	mov	r1, r3
 c108854:	e51b2018 	ldr	r2, [fp, #-24]	; 0xffffffe8
 c108858:	e51b301c 	ldr	r3, [fp, #-28]	; 0xffffffe4
 c10885c:	eb000038 	bl	c108944 <ts_sample2coord>
 c108860:	e1a00000 	nop			; (mov r0, r0)
 c108864:	e59f3050 	ldr	r3, [pc, #80]	; c1088bc <ts_timeout_getpos+0x130>
 c108868:	e5933000 	ldr	r3, [r3]
 c10886c:	e2033004 	and	r3, r3, #4
 c108870:	e3530000 	cmp	r3, #0
 c108874:	1a000003 	bne	c108888 <ts_timeout_getpos+0xfc>
 c108878:	ebfffd52 	bl	c107dc8 <timer3_timeout>
 c10887c:	e1a03000 	mov	r3, r0
 c108880:	e3530000 	cmp	r3, #0
 c108884:	0afffff6 	beq	c108864 <ts_timeout_getpos+0xd8>
 c108888:	ebfffd4e 	bl	c107dc8 <timer3_timeout>
 c10888c:	e1a03000 	mov	r3, r0
 c108890:	e3530000 	cmp	r3, #0
 c108894:	0a000001 	beq	c1088a0 <ts_timeout_getpos+0x114>
 c108898:	e3a030fe 	mov	r3, #254	; 0xfe
 c10889c:	ea000002 	b	c1088ac <ts_timeout_getpos+0x120>
 c1088a0:	e3a00064 	mov	r0, #100	; 0x64
 c1088a4:	ebfffc57 	bl	c107a08 <sw_delay_ms>
 c1088a8:	e3a03001 	mov	r3, #1
 c1088ac:	e1a00003 	mov	r0, r3
 c1088b0:	e24bd00c 	sub	sp, fp, #12
 c1088b4:	e89d6800 	ldm	sp, {fp, sp, lr}
 c1088b8:	e12fff1e 	bx	lr
 c1088bc:	01d20044 	.word	0x01d20044

0c1088c0 <ts_scan>:
 c1088c0:	e1a0c00d 	mov	ip, sp
 c1088c4:	e92dd800 	push	{fp, ip, lr, pc}
 c1088c8:	e24cb004 	sub	fp, ip, #4
 c1088cc:	e24dd008 	sub	sp, sp, #8
 c1088d0:	e50b0010 	str	r0, [fp, #-16]
 c1088d4:	e50b1014 	str	r1, [fp, #-20]	; 0xffffffec
 c1088d8:	e59f3060 	ldr	r3, [pc, #96]	; c108940 <ts_scan+0x80>
 c1088dc:	e3a02060 	mov	r2, #96	; 0x60
 c1088e0:	e5832000 	str	r2, [r3]
 c1088e4:	e3a00001 	mov	r0, #1
 c1088e8:	eb0002d7 	bl	c10944c <adc_getSample>
 c1088ec:	e1a03000 	mov	r3, r0
 c1088f0:	e1a02003 	mov	r2, r3
 c1088f4:	e51b3010 	ldr	r3, [fp, #-16]
 c1088f8:	e1c320b0 	strh	r2, [r3]
 c1088fc:	e59f303c 	ldr	r3, [pc, #60]	; c108940 <ts_scan+0x80>
 c108900:	e3a02090 	mov	r2, #144	; 0x90
 c108904:	e5832000 	str	r2, [r3]
 c108908:	e3a00000 	mov	r0, #0
 c10890c:	eb0002ce 	bl	c10944c <adc_getSample>
 c108910:	e1a03000 	mov	r3, r0
 c108914:	e1a02003 	mov	r2, r3
 c108918:	e51b3014 	ldr	r3, [fp, #-20]	; 0xffffffec
 c10891c:	e1c320b0 	strh	r2, [r3]
 c108920:	e59f3018 	ldr	r3, [pc, #24]	; c108940 <ts_scan+0x80>
 c108924:	e3a020b0 	mov	r2, #176	; 0xb0
 c108928:	e5832000 	str	r2, [r3]
 c10892c:	e3a00001 	mov	r0, #1
 c108930:	ebfffc34 	bl	c107a08 <sw_delay_ms>
 c108934:	e24bd00c 	sub	sp, fp, #12
 c108938:	e89d6800 	ldm	sp, {fp, sp, lr}
 c10893c:	e12fff1e 	bx	lr
 c108940:	01d2002c 	.word	0x01d2002c

0c108944 <ts_sample2coord>:
 c108944:	e1a0c00d 	mov	ip, sp
 c108948:	e92dd800 	push	{fp, ip, lr, pc}
 c10894c:	e24cb004 	sub	fp, ip, #4
 c108950:	e24dd010 	sub	sp, sp, #16
 c108954:	e50b2014 	str	r2, [fp, #-20]	; 0xffffffec
 c108958:	e50b3018 	str	r3, [fp, #-24]	; 0xffffffe8
 c10895c:	e14b00be 	strh	r0, [fp, #-14]
 c108960:	e14b11b0 	strh	r1, [fp, #-16]
 c108964:	e59f3150 	ldr	r3, [pc, #336]	; c108abc <ts_sample2coord+0x178>
 c108968:	e1d330b0 	ldrh	r3, [r3]
 c10896c:	e15b20be 	ldrh	r2, [fp, #-14]
 c108970:	e1520003 	cmp	r2, r3
 c108974:	2a000003 	bcs	c108988 <ts_sample2coord+0x44>
 c108978:	e51b3014 	ldr	r3, [fp, #-20]	; 0xffffffec
 c10897c:	e3a02000 	mov	r2, #0
 c108980:	e1c320b0 	strh	r2, [r3]
 c108984:	ea00001f 	b	c108a08 <ts_sample2coord+0xc4>
 c108988:	e59f3130 	ldr	r3, [pc, #304]	; c108ac0 <ts_sample2coord+0x17c>
 c10898c:	e1d330b0 	ldrh	r3, [r3]
 c108990:	e15b20be 	ldrh	r2, [fp, #-14]
 c108994:	e1520003 	cmp	r2, r3
 c108998:	9a000003 	bls	c1089ac <ts_sample2coord+0x68>
 c10899c:	e51b3014 	ldr	r3, [fp, #-20]	; 0xffffffec
 c1089a0:	e59f211c 	ldr	r2, [pc, #284]	; c108ac4 <ts_sample2coord+0x180>
 c1089a4:	e1c320b0 	strh	r2, [r3]
 c1089a8:	ea000016 	b	c108a08 <ts_sample2coord+0xc4>
 c1089ac:	e15b20be 	ldrh	r2, [fp, #-14]
 c1089b0:	e59f3104 	ldr	r3, [pc, #260]	; c108abc <ts_sample2coord+0x178>
 c1089b4:	e1d330b0 	ldrh	r3, [r3]
 c1089b8:	e0632002 	rsb	r2, r3, r2
 c1089bc:	e1a03002 	mov	r3, r2
 c1089c0:	e1a03103 	lsl	r3, r3, #2
 c1089c4:	e0833002 	add	r3, r3, r2
 c1089c8:	e1a03303 	lsl	r3, r3, #6
 c1089cc:	e1a02003 	mov	r2, r3
 c1089d0:	e59f30e8 	ldr	r3, [pc, #232]	; c108ac0 <ts_sample2coord+0x17c>
 c1089d4:	e1d330b0 	ldrh	r3, [r3]
 c1089d8:	e1a01003 	mov	r1, r3
 c1089dc:	e59f30d8 	ldr	r3, [pc, #216]	; c108abc <ts_sample2coord+0x178>
 c1089e0:	e1d330b0 	ldrh	r3, [r3]
 c1089e4:	e0633001 	rsb	r3, r3, r1
 c1089e8:	e1a00002 	mov	r0, r2
 c1089ec:	e1a01003 	mov	r1, r3
 c1089f0:	eb000316 	bl	c109650 <__aeabi_idiv>
 c1089f4:	e1a03000 	mov	r3, r0
 c1089f8:	e1a03803 	lsl	r3, r3, #16
 c1089fc:	e1a02823 	lsr	r2, r3, #16
 c108a00:	e51b3014 	ldr	r3, [fp, #-20]	; 0xffffffec
 c108a04:	e1c320b0 	strh	r2, [r3]
 c108a08:	e59f30b8 	ldr	r3, [pc, #184]	; c108ac8 <ts_sample2coord+0x184>
 c108a0c:	e1d330b0 	ldrh	r3, [r3]
 c108a10:	e15b21b0 	ldrh	r2, [fp, #-16]
 c108a14:	e1520003 	cmp	r2, r3
 c108a18:	2a000003 	bcs	c108a2c <ts_sample2coord+0xe8>
 c108a1c:	e51b3018 	ldr	r3, [fp, #-24]	; 0xffffffe8
 c108a20:	e3a020ef 	mov	r2, #239	; 0xef
 c108a24:	e1c320b0 	strh	r2, [r3]
 c108a28:	ea000020 	b	c108ab0 <ts_sample2coord+0x16c>
 c108a2c:	e59f3098 	ldr	r3, [pc, #152]	; c108acc <ts_sample2coord+0x188>
 c108a30:	e1d330b0 	ldrh	r3, [r3]
 c108a34:	e15b21b0 	ldrh	r2, [fp, #-16]
 c108a38:	e1520003 	cmp	r2, r3
 c108a3c:	9a000003 	bls	c108a50 <ts_sample2coord+0x10c>
 c108a40:	e51b3018 	ldr	r3, [fp, #-24]	; 0xffffffe8
 c108a44:	e3a02000 	mov	r2, #0
 c108a48:	e1c320b0 	strh	r2, [r3]
 c108a4c:	ea000017 	b	c108ab0 <ts_sample2coord+0x16c>
 c108a50:	e59f3074 	ldr	r3, [pc, #116]	; c108acc <ts_sample2coord+0x188>
 c108a54:	e1d330b0 	ldrh	r3, [r3]
 c108a58:	e1a02003 	mov	r2, r3
 c108a5c:	e15b31b0 	ldrh	r3, [fp, #-16]
 c108a60:	e0632002 	rsb	r2, r3, r2
 c108a64:	e1a03002 	mov	r3, r2
 c108a68:	e1a03203 	lsl	r3, r3, #4
 c108a6c:	e0623003 	rsb	r3, r2, r3
 c108a70:	e1a03203 	lsl	r3, r3, #4
 c108a74:	e1a02003 	mov	r2, r3
 c108a78:	e59f304c 	ldr	r3, [pc, #76]	; c108acc <ts_sample2coord+0x188>
 c108a7c:	e1d330b0 	ldrh	r3, [r3]
 c108a80:	e1a01003 	mov	r1, r3
 c108a84:	e59f303c 	ldr	r3, [pc, #60]	; c108ac8 <ts_sample2coord+0x184>
 c108a88:	e1d330b0 	ldrh	r3, [r3]
 c108a8c:	e0633001 	rsb	r3, r3, r1
 c108a90:	e1a00002 	mov	r0, r2
 c108a94:	e1a01003 	mov	r1, r3
 c108a98:	eb0002ec 	bl	c109650 <__aeabi_idiv>
 c108a9c:	e1a03000 	mov	r3, r0
 c108aa0:	e1a03803 	lsl	r3, r3, #16
 c108aa4:	e1a02823 	lsr	r2, r3, #16
 c108aa8:	e51b3018 	ldr	r3, [fp, #-24]	; 0xffffffe8
 c108aac:	e1c320b0 	strh	r2, [r3]
 c108ab0:	e24bd00c 	sub	sp, fp, #12
 c108ab4:	e89d6800 	ldm	sp, {fp, sp, lr}
 c108ab8:	e12fff1e 	bx	lr
 c108abc:	0c1154fc 	.word	0x0c1154fc
 c108ac0:	0c1154fe 	.word	0x0c1154fe
 c108ac4:	0000013f 	.word	0x0000013f
 c108ac8:	0c115500 	.word	0x0c115500
 c108acc:	0c115502 	.word	0x0c115502

0c108ad0 <ts_open>:
 c108ad0:	e1a0c00d 	mov	ip, sp
 c108ad4:	e92dd800 	push	{fp, ip, lr, pc}
 c108ad8:	e24cb004 	sub	fp, ip, #4
 c108adc:	e24dd008 	sub	sp, sp, #8
 c108ae0:	e50b0010 	str	r0, [fp, #-16]
 c108ae4:	e59f3030 	ldr	r3, [pc, #48]	; c108b1c <ts_open+0x4c>
 c108ae8:	e51b2010 	ldr	r2, [fp, #-16]
 c108aec:	e5832000 	str	r2, [r3]
 c108af0:	e59f3028 	ldr	r3, [pc, #40]	; c108b20 <ts_open+0x50>
 c108af4:	e3a02502 	mov	r2, #8388608	; 0x800000
 c108af8:	e5832000 	str	r2, [r3]
 c108afc:	e59f3020 	ldr	r3, [pc, #32]	; c108b24 <ts_open+0x54>
 c108b00:	e59f201c 	ldr	r2, [pc, #28]	; c108b24 <ts_open+0x54>
 c108b04:	e5922000 	ldr	r2, [r2]
 c108b08:	e3c22512 	bic	r2, r2, #75497472	; 0x4800000
 c108b0c:	e5832000 	str	r2, [r3]
 c108b10:	e24bd00c 	sub	sp, fp, #12
 c108b14:	e89d6800 	ldm	sp, {fp, sp, lr}
 c108b18:	e12fff1e 	bx	lr
 c108b1c:	0c7fff7c 	.word	0x0c7fff7c
 c108b20:	01e00024 	.word	0x01e00024
 c108b24:	01e0000c 	.word	0x01e0000c

0c108b28 <ts_close>:
 c108b28:	e1a0c00d 	mov	ip, sp
 c108b2c:	e92dd800 	push	{fp, ip, lr, pc}
 c108b30:	e24cb004 	sub	fp, ip, #4
 c108b34:	e59f3024 	ldr	r3, [pc, #36]	; c108b60 <ts_close+0x38>
 c108b38:	e59f2020 	ldr	r2, [pc, #32]	; c108b60 <ts_close+0x38>
 c108b3c:	e5922000 	ldr	r2, [r2]
 c108b40:	e3822502 	orr	r2, r2, #8388608	; 0x800000
 c108b44:	e5832000 	str	r2, [r3]
 c108b48:	e59f3014 	ldr	r3, [pc, #20]	; c108b64 <ts_close+0x3c>
 c108b4c:	e59f2014 	ldr	r2, [pc, #20]	; c108b68 <ts_close+0x40>
 c108b50:	e5832000 	str	r2, [r3]
 c108b54:	e24bd00c 	sub	sp, fp, #12
 c108b58:	e89d6800 	ldm	sp, {fp, sp, lr}
 c108b5c:	e12fff1e 	bx	lr
 c108b60:	01e0000c 	.word	0x01e0000c
 c108b64:	0c7fff7c 	.word	0x0c7fff7c
 c108b68:	0c10701c 	.word	0x0c10701c

0c108b6c <ts_init>:
 c108b6c:	e1a0c00d 	mov	ip, sp
 c108b70:	e92dd800 	push	{fp, ip, lr, pc}
 c108b74:	e24cb004 	sub	fp, ip, #4
 c108b78:	e59f309c 	ldr	r3, [pc, #156]	; c108c1c <ts_init+0xb0>
 c108b7c:	e59f2098 	ldr	r2, [pc, #152]	; c108c1c <ts_init+0xb0>
 c108b80:	e5922000 	ldr	r2, [r2]
 c108b84:	e3822d52 	orr	r2, r2, #5248	; 0x1480
 c108b88:	e5832000 	str	r2, [r3]
 c108b8c:	e59f308c 	ldr	r3, [pc, #140]	; c108c20 <ts_init+0xb4>
 c108b90:	e59f2088 	ldr	r2, [pc, #136]	; c108c20 <ts_init+0xb4>
 c108b94:	e5922000 	ldr	r2, [r2]
 c108b98:	e3c22cff 	bic	r2, r2, #65280	; 0xff00
 c108b9c:	e3822c55 	orr	r2, r2, #21760	; 0x5500
 c108ba0:	e5832000 	str	r2, [r3]
 c108ba4:	e59f3078 	ldr	r3, [pc, #120]	; c108c24 <ts_init+0xb8>
 c108ba8:	e59f2074 	ldr	r2, [pc, #116]	; c108c24 <ts_init+0xb8>
 c108bac:	e5922000 	ldr	r2, [r2]
 c108bb0:	e38220f0 	orr	r2, r2, #240	; 0xf0
 c108bb4:	e5832000 	str	r2, [r3]
 c108bb8:	e59f3068 	ldr	r3, [pc, #104]	; c108c28 <ts_init+0xbc>
 c108bbc:	e59f2064 	ldr	r2, [pc, #100]	; c108c28 <ts_init+0xbc>
 c108bc0:	e5922000 	ldr	r2, [r2]
 c108bc4:	e3822030 	orr	r2, r2, #48	; 0x30
 c108bc8:	e5832000 	str	r2, [r3]
 c108bcc:	e59f3058 	ldr	r3, [pc, #88]	; c108c2c <ts_init+0xc0>
 c108bd0:	e59f2054 	ldr	r2, [pc, #84]	; c108c2c <ts_init+0xc0>
 c108bd4:	e5922000 	ldr	r2, [r2]
 c108bd8:	e3c22c07 	bic	r2, r2, #1792	; 0x700
 c108bdc:	e3822c02 	orr	r2, r2, #512	; 0x200
 c108be0:	e5832000 	str	r2, [r3]
 c108be4:	ebfffad5 	bl	c107740 <timers_init>
 c108be8:	ebffec6e 	bl	c103da8 <lcd_init>
 c108bec:	eb000205 	bl	c109408 <adc_init>
 c108bf0:	e59f3038 	ldr	r3, [pc, #56]	; c108c30 <ts_init+0xc4>
 c108bf4:	e3a020b0 	mov	r2, #176	; 0xb0
 c108bf8:	e5832000 	str	r2, [r3]
 c108bfc:	e3a00001 	mov	r0, #1
 c108c00:	ebfffb80 	bl	c107a08 <sw_delay_ms>
 c108c04:	ebfffd82 	bl	c108214 <ts_on>
 c108c08:	ebfffdb0 	bl	c1082d0 <ts_calibrate>
 c108c0c:	ebfffd8b 	bl	c108240 <ts_off>
 c108c10:	e24bd00c 	sub	sp, fp, #12
 c108c14:	e89d6800 	ldm	sp, {fp, sp, lr}
 c108c18:	e12fff1e 	bx	lr
 c108c1c:	01d80004 	.word	0x01d80004
 c108c20:	01d20028 	.word	0x01d20028
 c108c24:	01d20030 	.word	0x01d20030
 c108c28:	01d20040 	.word	0x01d20040
 c108c2c:	01d20050 	.word	0x01d20050
 c108c30:	01d2002c 	.word	0x01d2002c

0c108c34 <ts_getpos>:
 c108c34:	e1a0c00d 	mov	ip, sp
 c108c38:	e92dd800 	push	{fp, ip, lr, pc}
 c108c3c:	e24cb004 	sub	fp, ip, #4
 c108c40:	e24dd010 	sub	sp, sp, #16
 c108c44:	e50b0018 	str	r0, [fp, #-24]	; 0xffffffe8
 c108c48:	e50b101c 	str	r1, [fp, #-28]	; 0xffffffe4
 c108c4c:	e1a00000 	nop			; (mov r0, r0)
 c108c50:	e59f3070 	ldr	r3, [pc, #112]	; c108cc8 <ts_getpos+0x94>
 c108c54:	e5933000 	ldr	r3, [r3]
 c108c58:	e2033004 	and	r3, r3, #4
 c108c5c:	e3530000 	cmp	r3, #0
 c108c60:	1afffffa 	bne	c108c50 <ts_getpos+0x1c>
 c108c64:	e3a0001e 	mov	r0, #30
 c108c68:	ebfffb66 	bl	c107a08 <sw_delay_ms>
 c108c6c:	e24b200e 	sub	r2, fp, #14
 c108c70:	e24b3010 	sub	r3, fp, #16
 c108c74:	e1a00002 	mov	r0, r2
 c108c78:	e1a01003 	mov	r1, r3
 c108c7c:	ebffff0f 	bl	c1088c0 <ts_scan>
 c108c80:	e15b20be 	ldrh	r2, [fp, #-14]
 c108c84:	e15b31b0 	ldrh	r3, [fp, #-16]
 c108c88:	e1a00002 	mov	r0, r2
 c108c8c:	e1a01003 	mov	r1, r3
 c108c90:	e51b2018 	ldr	r2, [fp, #-24]	; 0xffffffe8
 c108c94:	e51b301c 	ldr	r3, [fp, #-28]	; 0xffffffe4
 c108c98:	ebffff29 	bl	c108944 <ts_sample2coord>
 c108c9c:	e1a00000 	nop			; (mov r0, r0)
 c108ca0:	e59f3020 	ldr	r3, [pc, #32]	; c108cc8 <ts_getpos+0x94>
 c108ca4:	e5933000 	ldr	r3, [r3]
 c108ca8:	e2033004 	and	r3, r3, #4
 c108cac:	e3530000 	cmp	r3, #0
 c108cb0:	0afffffa 	beq	c108ca0 <ts_getpos+0x6c>
 c108cb4:	e3a00064 	mov	r0, #100	; 0x64
 c108cb8:	ebfffb52 	bl	c107a08 <sw_delay_ms>
 c108cbc:	e24bd00c 	sub	sp, fp, #12
 c108cc0:	e89d6800 	ldm	sp, {fp, sp, lr}
 c108cc4:	e12fff1e 	bx	lr
 c108cc8:	01d20044 	.word	0x01d20044

0c108ccc <uart0_init>:
 c108ccc:	e1a0c00d 	mov	ip, sp
 c108cd0:	e92dd800 	push	{fp, ip, lr, pc}
 c108cd4:	e24cb004 	sub	fp, ip, #4
 c108cd8:	e3a00008 	mov	r0, #8
 c108cdc:	ebfff184 	bl	c1052f4 <power_on>
 c108ce0:	e59f306c 	ldr	r3, [pc, #108]	; c108d54 <uart0_init+0x88>
 c108ce4:	e59f2068 	ldr	r2, [pc, #104]	; c108d54 <uart0_init+0x88>
 c108ce8:	e5922000 	ldr	r2, [r2]
 c108cec:	e3c2203c 	bic	r2, r2, #60	; 0x3c
 c108cf0:	e3822028 	orr	r2, r2, #40	; 0x28
 c108cf4:	e5832000 	str	r2, [r3]
 c108cf8:	e59f3058 	ldr	r3, [pc, #88]	; c108d58 <uart0_init+0x8c>
 c108cfc:	e59f2054 	ldr	r2, [pc, #84]	; c108d58 <uart0_init+0x8c>
 c108d00:	e5922000 	ldr	r2, [r2]
 c108d04:	e3822006 	orr	r2, r2, #6
 c108d08:	e5832000 	str	r2, [r3]
 c108d0c:	e59f3048 	ldr	r3, [pc, #72]	; c108d5c <uart0_init+0x90>
 c108d10:	e3a02001 	mov	r2, #1
 c108d14:	e5832000 	str	r2, [r3]
 c108d18:	e59f3040 	ldr	r3, [pc, #64]	; c108d60 <uart0_init+0x94>
 c108d1c:	e3a02000 	mov	r2, #0
 c108d20:	e5832000 	str	r2, [r3]
 c108d24:	e3a0361d 	mov	r3, #30408704	; 0x1d00000
 c108d28:	e3a02003 	mov	r2, #3
 c108d2c:	e5832000 	str	r2, [r3]
 c108d30:	e59f302c 	ldr	r3, [pc, #44]	; c108d64 <uart0_init+0x98>
 c108d34:	e3a02022 	mov	r2, #34	; 0x22
 c108d38:	e5832000 	str	r2, [r3]
 c108d3c:	e59f3024 	ldr	r3, [pc, #36]	; c108d68 <uart0_init+0x9c>
 c108d40:	e3a02005 	mov	r2, #5
 c108d44:	e5832000 	str	r2, [r3]
 c108d48:	e24bd00c 	sub	sp, fp, #12
 c108d4c:	e89d6800 	ldm	sp, {fp, sp, lr}
 c108d50:	e12fff1e 	bx	lr
 c108d54:	01d20028 	.word	0x01d20028
 c108d58:	01d20030 	.word	0x01d20030
 c108d5c:	01d00008 	.word	0x01d00008
 c108d60:	01d0000c 	.word	0x01d0000c
 c108d64:	01d00028 	.word	0x01d00028
 c108d68:	01d00004 	.word	0x01d00004

0c108d6c <uart0_putchar>:
 c108d6c:	e1a0c00d 	mov	ip, sp
 c108d70:	e92dd800 	push	{fp, ip, lr, pc}
 c108d74:	e24cb004 	sub	fp, ip, #4
 c108d78:	e24dd008 	sub	sp, sp, #8
 c108d7c:	e1a03000 	mov	r3, r0
 c108d80:	e54b300d 	strb	r3, [fp, #-13]
 c108d84:	e1a00000 	nop			; (mov r0, r0)
 c108d88:	e59f3024 	ldr	r3, [pc, #36]	; c108db4 <uart0_putchar+0x48>
 c108d8c:	e5933000 	ldr	r3, [r3]
 c108d90:	e2033c02 	and	r3, r3, #512	; 0x200
 c108d94:	e3530000 	cmp	r3, #0
 c108d98:	1afffffa 	bne	c108d88 <uart0_putchar+0x1c>
 c108d9c:	e59f3014 	ldr	r3, [pc, #20]	; c108db8 <uart0_putchar+0x4c>
 c108da0:	e55b200d 	ldrb	r2, [fp, #-13]
 c108da4:	e5832000 	str	r2, [r3]
 c108da8:	e24bd00c 	sub	sp, fp, #12
 c108dac:	e89d6800 	ldm	sp, {fp, sp, lr}
 c108db0:	e12fff1e 	bx	lr
 c108db4:	01d00018 	.word	0x01d00018
 c108db8:	01d00020 	.word	0x01d00020

0c108dbc <uart0_getchar>:
 c108dbc:	e1a0c00d 	mov	ip, sp
 c108dc0:	e92dd800 	push	{fp, ip, lr, pc}
 c108dc4:	e24cb004 	sub	fp, ip, #4
 c108dc8:	e24dd008 	sub	sp, sp, #8
 c108dcc:	e1a00000 	nop			; (mov r0, r0)
 c108dd0:	e59f302c 	ldr	r3, [pc, #44]	; c108e04 <uart0_getchar+0x48>
 c108dd4:	e5933000 	ldr	r3, [r3]
 c108dd8:	e203300f 	and	r3, r3, #15
 c108ddc:	e3530000 	cmp	r3, #0
 c108de0:	0afffffa 	beq	c108dd0 <uart0_getchar+0x14>
 c108de4:	e59f301c 	ldr	r3, [pc, #28]	; c108e08 <uart0_getchar+0x4c>
 c108de8:	e5933000 	ldr	r3, [r3]
 c108dec:	e54b300d 	strb	r3, [fp, #-13]
 c108df0:	e55b300d 	ldrb	r3, [fp, #-13]
 c108df4:	e1a00003 	mov	r0, r3
 c108df8:	e24bd00c 	sub	sp, fp, #12
 c108dfc:	e89d6800 	ldm	sp, {fp, sp, lr}
 c108e00:	e12fff1e 	bx	lr
 c108e04:	01d00018 	.word	0x01d00018
 c108e08:	01d00024 	.word	0x01d00024

0c108e0c <uart0_puts>:
 c108e0c:	e1a0c00d 	mov	ip, sp
 c108e10:	e92dd800 	push	{fp, ip, lr, pc}
 c108e14:	e24cb004 	sub	fp, ip, #4
 c108e18:	e24dd008 	sub	sp, sp, #8
 c108e1c:	e50b0010 	str	r0, [fp, #-16]
 c108e20:	ea000006 	b	c108e40 <uart0_puts+0x34>
 c108e24:	e51b3010 	ldr	r3, [fp, #-16]
 c108e28:	e5d33000 	ldrb	r3, [r3]
 c108e2c:	e51b2010 	ldr	r2, [fp, #-16]
 c108e30:	e2822001 	add	r2, r2, #1
 c108e34:	e50b2010 	str	r2, [fp, #-16]
 c108e38:	e1a00003 	mov	r0, r3
 c108e3c:	ebffffca 	bl	c108d6c <uart0_putchar>
 c108e40:	e51b3010 	ldr	r3, [fp, #-16]
 c108e44:	e5d33000 	ldrb	r3, [r3]
 c108e48:	e3530000 	cmp	r3, #0
 c108e4c:	1afffff4 	bne	c108e24 <uart0_puts+0x18>
 c108e50:	e24bd00c 	sub	sp, fp, #12
 c108e54:	e89d6800 	ldm	sp, {fp, sp, lr}
 c108e58:	e12fff1e 	bx	lr

0c108e5c <uart0_putint>:
 c108e5c:	e1a0c00d 	mov	ip, sp
 c108e60:	e92dd800 	push	{fp, ip, lr, pc}
 c108e64:	e24cb004 	sub	fp, ip, #4
 c108e68:	e24dd018 	sub	sp, sp, #24
 c108e6c:	e50b0020 	str	r0, [fp, #-32]	; 0xffffffe0
 c108e70:	e24b301c 	sub	r3, fp, #28
 c108e74:	e283300b 	add	r3, r3, #11
 c108e78:	e50b3010 	str	r3, [fp, #-16]
 c108e7c:	e51b3010 	ldr	r3, [fp, #-16]
 c108e80:	e3a02000 	mov	r2, #0
 c108e84:	e5c32000 	strb	r2, [r3]
 c108e88:	e51b3020 	ldr	r3, [fp, #-32]	; 0xffffffe0
 c108e8c:	e3530000 	cmp	r3, #0
 c108e90:	ba00001d 	blt	c108f0c <uart0_putint+0xb0>
 c108e94:	e51b3010 	ldr	r3, [fp, #-16]
 c108e98:	e2433001 	sub	r3, r3, #1
 c108e9c:	e50b3010 	str	r3, [fp, #-16]
 c108ea0:	e51b1020 	ldr	r1, [fp, #-32]	; 0xffffffe0
 c108ea4:	e59f3100 	ldr	r3, [pc, #256]	; c108fac <uart0_putint+0x150>
 c108ea8:	e0c32391 	smull	r2, r3, r1, r3
 c108eac:	e1a02143 	asr	r2, r3, #2
 c108eb0:	e1a03fc1 	asr	r3, r1, #31
 c108eb4:	e0632002 	rsb	r2, r3, r2
 c108eb8:	e1a03002 	mov	r3, r2
 c108ebc:	e1a03103 	lsl	r3, r3, #2
 c108ec0:	e0833002 	add	r3, r3, r2
 c108ec4:	e1a03083 	lsl	r3, r3, #1
 c108ec8:	e0632001 	rsb	r2, r3, r1
 c108ecc:	e20230ff 	and	r3, r2, #255	; 0xff
 c108ed0:	e2833030 	add	r3, r3, #48	; 0x30
 c108ed4:	e20320ff 	and	r2, r3, #255	; 0xff
 c108ed8:	e51b3010 	ldr	r3, [fp, #-16]
 c108edc:	e5c32000 	strb	r2, [r3]
 c108ee0:	e51b3020 	ldr	r3, [fp, #-32]	; 0xffffffe0
 c108ee4:	e59f20c0 	ldr	r2, [pc, #192]	; c108fac <uart0_putint+0x150>
 c108ee8:	e0c21293 	smull	r1, r2, r3, r2
 c108eec:	e1a02142 	asr	r2, r2, #2
 c108ef0:	e1a03fc3 	asr	r3, r3, #31
 c108ef4:	e0633002 	rsb	r3, r3, r2
 c108ef8:	e50b3020 	str	r3, [fp, #-32]	; 0xffffffe0
 c108efc:	e51b3020 	ldr	r3, [fp, #-32]	; 0xffffffe0
 c108f00:	e3530000 	cmp	r3, #0
 c108f04:	1affffe2 	bne	c108e94 <uart0_putint+0x38>
 c108f08:	ea000022 	b	c108f98 <uart0_putint+0x13c>
 c108f0c:	e51b3010 	ldr	r3, [fp, #-16]
 c108f10:	e2433001 	sub	r3, r3, #1
 c108f14:	e50b3010 	str	r3, [fp, #-16]
 c108f18:	e51b1020 	ldr	r1, [fp, #-32]	; 0xffffffe0
 c108f1c:	e59f3088 	ldr	r3, [pc, #136]	; c108fac <uart0_putint+0x150>
 c108f20:	e0c32391 	smull	r2, r3, r1, r3
 c108f24:	e1a02143 	asr	r2, r3, #2
 c108f28:	e1a03fc1 	asr	r3, r1, #31
 c108f2c:	e0632002 	rsb	r2, r3, r2
 c108f30:	e1a03002 	mov	r3, r2
 c108f34:	e1a03103 	lsl	r3, r3, #2
 c108f38:	e0833002 	add	r3, r3, r2
 c108f3c:	e1a03083 	lsl	r3, r3, #1
 c108f40:	e0632001 	rsb	r2, r3, r1
 c108f44:	e20230ff 	and	r3, r2, #255	; 0xff
 c108f48:	e2633030 	rsb	r3, r3, #48	; 0x30
 c108f4c:	e20320ff 	and	r2, r3, #255	; 0xff
 c108f50:	e51b3010 	ldr	r3, [fp, #-16]
 c108f54:	e5c32000 	strb	r2, [r3]
 c108f58:	e51b3020 	ldr	r3, [fp, #-32]	; 0xffffffe0
 c108f5c:	e59f2048 	ldr	r2, [pc, #72]	; c108fac <uart0_putint+0x150>
 c108f60:	e0c21293 	smull	r1, r2, r3, r2
 c108f64:	e1a02142 	asr	r2, r2, #2
 c108f68:	e1a03fc3 	asr	r3, r3, #31
 c108f6c:	e0633002 	rsb	r3, r3, r2
 c108f70:	e50b3020 	str	r3, [fp, #-32]	; 0xffffffe0
 c108f74:	e51b3020 	ldr	r3, [fp, #-32]	; 0xffffffe0
 c108f78:	e3530000 	cmp	r3, #0
 c108f7c:	1affffe2 	bne	c108f0c <uart0_putint+0xb0>
 c108f80:	e51b3010 	ldr	r3, [fp, #-16]
 c108f84:	e2433001 	sub	r3, r3, #1
 c108f88:	e50b3010 	str	r3, [fp, #-16]
 c108f8c:	e51b3010 	ldr	r3, [fp, #-16]
 c108f90:	e3a0202d 	mov	r2, #45	; 0x2d
 c108f94:	e5c32000 	strb	r2, [r3]
 c108f98:	e51b0010 	ldr	r0, [fp, #-16]
 c108f9c:	ebffff9a 	bl	c108e0c <uart0_puts>
 c108fa0:	e24bd00c 	sub	sp, fp, #12
 c108fa4:	e89d6800 	ldm	sp, {fp, sp, lr}
 c108fa8:	e12fff1e 	bx	lr
 c108fac:	66666667 	.word	0x66666667

0c108fb0 <uart0_puthex>:
 c108fb0:	e1a0c00d 	mov	ip, sp
 c108fb4:	e92dd800 	push	{fp, ip, lr, pc}
 c108fb8:	e24cb004 	sub	fp, ip, #4
 c108fbc:	e24dd018 	sub	sp, sp, #24
 c108fc0:	e50b0020 	str	r0, [fp, #-32]	; 0xffffffe0
 c108fc4:	e24b301c 	sub	r3, fp, #28
 c108fc8:	e2833008 	add	r3, r3, #8
 c108fcc:	e50b3010 	str	r3, [fp, #-16]
 c108fd0:	e51b3010 	ldr	r3, [fp, #-16]
 c108fd4:	e3a02000 	mov	r2, #0
 c108fd8:	e5c32000 	strb	r2, [r3]
 c108fdc:	e51b3020 	ldr	r3, [fp, #-32]	; 0xffffffe0
 c108fe0:	e20330ff 	and	r3, r3, #255	; 0xff
 c108fe4:	e203300f 	and	r3, r3, #15
 c108fe8:	e54b3011 	strb	r3, [fp, #-17]	; 0xffffffef
 c108fec:	e55b3011 	ldrb	r3, [fp, #-17]	; 0xffffffef
 c108ff0:	e3530009 	cmp	r3, #9
 c108ff4:	8a000008 	bhi	c10901c <uart0_puthex+0x6c>
 c108ff8:	e51b3010 	ldr	r3, [fp, #-16]
 c108ffc:	e2433001 	sub	r3, r3, #1
 c109000:	e50b3010 	str	r3, [fp, #-16]
 c109004:	e55b3011 	ldrb	r3, [fp, #-17]	; 0xffffffef
 c109008:	e2833030 	add	r3, r3, #48	; 0x30
 c10900c:	e20320ff 	and	r2, r3, #255	; 0xff
 c109010:	e51b3010 	ldr	r3, [fp, #-16]
 c109014:	e5c32000 	strb	r2, [r3]
 c109018:	ea000007 	b	c10903c <uart0_puthex+0x8c>
 c10901c:	e51b3010 	ldr	r3, [fp, #-16]
 c109020:	e2433001 	sub	r3, r3, #1
 c109024:	e50b3010 	str	r3, [fp, #-16]
 c109028:	e55b3011 	ldrb	r3, [fp, #-17]	; 0xffffffef
 c10902c:	e2833057 	add	r3, r3, #87	; 0x57
 c109030:	e20320ff 	and	r2, r3, #255	; 0xff
 c109034:	e51b3010 	ldr	r3, [fp, #-16]
 c109038:	e5c32000 	strb	r2, [r3]
 c10903c:	e51b3020 	ldr	r3, [fp, #-32]	; 0xffffffe0
 c109040:	e1a03223 	lsr	r3, r3, #4
 c109044:	e50b3020 	str	r3, [fp, #-32]	; 0xffffffe0
 c109048:	e51b3020 	ldr	r3, [fp, #-32]	; 0xffffffe0
 c10904c:	e3530000 	cmp	r3, #0
 c109050:	1affffe1 	bne	c108fdc <uart0_puthex+0x2c>
 c109054:	e51b0010 	ldr	r0, [fp, #-16]
 c109058:	ebffff6b 	bl	c108e0c <uart0_puts>
 c10905c:	e24bd00c 	sub	sp, fp, #12
 c109060:	e89d6800 	ldm	sp, {fp, sp, lr}
 c109064:	e12fff1e 	bx	lr

0c109068 <uart0_gets>:
 c109068:	e1a0c00d 	mov	ip, sp
 c10906c:	e92dd800 	push	{fp, ip, lr, pc}
 c109070:	e24cb004 	sub	fp, ip, #4
 c109074:	e24dd010 	sub	sp, sp, #16
 c109078:	e50b0018 	str	r0, [fp, #-24]	; 0xffffffe8
 c10907c:	ea000005 	b	c109098 <uart0_gets+0x30>
 c109080:	e51b3018 	ldr	r3, [fp, #-24]	; 0xffffffe8
 c109084:	e55b200d 	ldrb	r2, [fp, #-13]
 c109088:	e5c32000 	strb	r2, [r3]
 c10908c:	e51b3018 	ldr	r3, [fp, #-24]	; 0xffffffe8
 c109090:	e2833001 	add	r3, r3, #1
 c109094:	e50b3018 	str	r3, [fp, #-24]	; 0xffffffe8
 c109098:	ebffff47 	bl	c108dbc <uart0_getchar>
 c10909c:	e1a03000 	mov	r3, r0
 c1090a0:	e54b300d 	strb	r3, [fp, #-13]
 c1090a4:	e55b300d 	ldrb	r3, [fp, #-13]
 c1090a8:	e353000a 	cmp	r3, #10
 c1090ac:	1afffff3 	bne	c109080 <uart0_gets+0x18>
 c1090b0:	e51b3018 	ldr	r3, [fp, #-24]	; 0xffffffe8
 c1090b4:	e3a02000 	mov	r2, #0
 c1090b8:	e5c32000 	strb	r2, [r3]
 c1090bc:	e24bd00c 	sub	sp, fp, #12
 c1090c0:	e89d6800 	ldm	sp, {fp, sp, lr}
 c1090c4:	e12fff1e 	bx	lr

0c1090c8 <uart0_getint>:
 c1090c8:	e1a0c00d 	mov	ip, sp
 c1090cc:	e92dd800 	push	{fp, ip, lr, pc}
 c1090d0:	e24cb004 	sub	fp, ip, #4
 c1090d4:	e24dde11 	sub	sp, sp, #272	; 0x110
 c1090d8:	e24b3f46 	sub	r3, fp, #280	; 0x118
 c1090dc:	e50b3010 	str	r3, [fp, #-16]
 c1090e0:	e3a03000 	mov	r3, #0
 c1090e4:	e50b3014 	str	r3, [fp, #-20]	; 0xffffffec
 c1090e8:	e3a03000 	mov	r3, #0
 c1090ec:	e54b3015 	strb	r3, [fp, #-21]	; 0xffffffeb
 c1090f0:	e24b3f46 	sub	r3, fp, #280	; 0x118
 c1090f4:	e1a00003 	mov	r0, r3
 c1090f8:	ebffffda 	bl	c109068 <uart0_gets>
 c1090fc:	e51b3010 	ldr	r3, [fp, #-16]
 c109100:	e5d33000 	ldrb	r3, [r3]
 c109104:	e353002d 	cmp	r3, #45	; 0x2d
 c109108:	1a000014 	bne	c109160 <uart0_getint+0x98>
 c10910c:	e3a03001 	mov	r3, #1
 c109110:	e54b3015 	strb	r3, [fp, #-21]	; 0xffffffeb
 c109114:	e51b3010 	ldr	r3, [fp, #-16]
 c109118:	e2833001 	add	r3, r3, #1
 c10911c:	e50b3010 	str	r3, [fp, #-16]
 c109120:	ea00000f 	b	c109164 <uart0_getint+0x9c>
 c109124:	e51b2014 	ldr	r2, [fp, #-20]	; 0xffffffec
 c109128:	e1a03002 	mov	r3, r2
 c10912c:	e1a03103 	lsl	r3, r3, #2
 c109130:	e0833002 	add	r3, r3, r2
 c109134:	e1a03083 	lsl	r3, r3, #1
 c109138:	e1a02003 	mov	r2, r3
 c10913c:	e51b3010 	ldr	r3, [fp, #-16]
 c109140:	e5d33000 	ldrb	r3, [r3]
 c109144:	e2433030 	sub	r3, r3, #48	; 0x30
 c109148:	e0823003 	add	r3, r2, r3
 c10914c:	e50b3014 	str	r3, [fp, #-20]	; 0xffffffec
 c109150:	e51b3010 	ldr	r3, [fp, #-16]
 c109154:	e2833001 	add	r3, r3, #1
 c109158:	e50b3010 	str	r3, [fp, #-16]
 c10915c:	ea000000 	b	c109164 <uart0_getint+0x9c>
 c109160:	e1a00000 	nop			; (mov r0, r0)
 c109164:	e51b3010 	ldr	r3, [fp, #-16]
 c109168:	e5d33000 	ldrb	r3, [r3]
 c10916c:	e3530000 	cmp	r3, #0
 c109170:	1affffeb 	bne	c109124 <uart0_getint+0x5c>
 c109174:	e55b3015 	ldrb	r3, [fp, #-21]	; 0xffffffeb
 c109178:	e3530000 	cmp	r3, #0
 c10917c:	0a000002 	beq	c10918c <uart0_getint+0xc4>
 c109180:	e51b3014 	ldr	r3, [fp, #-20]	; 0xffffffec
 c109184:	e2633000 	rsb	r3, r3, #0
 c109188:	e50b3014 	str	r3, [fp, #-20]	; 0xffffffec
 c10918c:	e51b3014 	ldr	r3, [fp, #-20]	; 0xffffffec
 c109190:	e1a00003 	mov	r0, r3
 c109194:	e24bd00c 	sub	sp, fp, #12
 c109198:	e89d6800 	ldm	sp, {fp, sp, lr}
 c10919c:	e12fff1e 	bx	lr

0c1091a0 <uart0_gethex>:
 c1091a0:	e1a0c00d 	mov	ip, sp
 c1091a4:	e92dd800 	push	{fp, ip, lr, pc}
 c1091a8:	e24cb004 	sub	fp, ip, #4
 c1091ac:	e24ddf42 	sub	sp, sp, #264	; 0x108
 c1091b0:	e24b3f45 	sub	r3, fp, #276	; 0x114
 c1091b4:	e50b3010 	str	r3, [fp, #-16]
 c1091b8:	e3a03000 	mov	r3, #0
 c1091bc:	e50b3014 	str	r3, [fp, #-20]	; 0xffffffec
 c1091c0:	e24b3f45 	sub	r3, fp, #276	; 0x114
 c1091c4:	e1a00003 	mov	r0, r3
 c1091c8:	ebffffa6 	bl	c109068 <uart0_gets>
 c1091cc:	ea00002f 	b	c109290 <uart0_gethex+0xf0>
 c1091d0:	e51b3010 	ldr	r3, [fp, #-16]
 c1091d4:	e5d33000 	ldrb	r3, [r3]
 c1091d8:	e3530040 	cmp	r3, #64	; 0x40
 c1091dc:	9a00000e 	bls	c10921c <uart0_gethex+0x7c>
 c1091e0:	e51b3010 	ldr	r3, [fp, #-16]
 c1091e4:	e5d33000 	ldrb	r3, [r3]
 c1091e8:	e3530046 	cmp	r3, #70	; 0x46
 c1091ec:	8a00000a 	bhi	c10921c <uart0_gethex+0x7c>
 c1091f0:	e51b3014 	ldr	r3, [fp, #-20]	; 0xffffffec
 c1091f4:	e1a02203 	lsl	r2, r3, #4
 c1091f8:	e51b3010 	ldr	r3, [fp, #-16]
 c1091fc:	e5d33000 	ldrb	r3, [r3]
 c109200:	e0823003 	add	r3, r2, r3
 c109204:	e2433037 	sub	r3, r3, #55	; 0x37
 c109208:	e50b3014 	str	r3, [fp, #-20]	; 0xffffffec
 c10920c:	e51b3010 	ldr	r3, [fp, #-16]
 c109210:	e2833001 	add	r3, r3, #1
 c109214:	e50b3010 	str	r3, [fp, #-16]
 c109218:	ea00001c 	b	c109290 <uart0_gethex+0xf0>
 c10921c:	e51b3010 	ldr	r3, [fp, #-16]
 c109220:	e5d33000 	ldrb	r3, [r3]
 c109224:	e3530060 	cmp	r3, #96	; 0x60
 c109228:	9a00000e 	bls	c109268 <uart0_gethex+0xc8>
 c10922c:	e51b3010 	ldr	r3, [fp, #-16]
 c109230:	e5d33000 	ldrb	r3, [r3]
 c109234:	e3530066 	cmp	r3, #102	; 0x66
 c109238:	8a00000a 	bhi	c109268 <uart0_gethex+0xc8>
 c10923c:	e51b3014 	ldr	r3, [fp, #-20]	; 0xffffffec
 c109240:	e1a02203 	lsl	r2, r3, #4
 c109244:	e51b3010 	ldr	r3, [fp, #-16]
 c109248:	e5d33000 	ldrb	r3, [r3]
 c10924c:	e0823003 	add	r3, r2, r3
 c109250:	e2433057 	sub	r3, r3, #87	; 0x57
 c109254:	e50b3014 	str	r3, [fp, #-20]	; 0xffffffec
 c109258:	e51b3010 	ldr	r3, [fp, #-16]
 c10925c:	e2833001 	add	r3, r3, #1
 c109260:	e50b3010 	str	r3, [fp, #-16]
 c109264:	ea000009 	b	c109290 <uart0_gethex+0xf0>
 c109268:	e51b3014 	ldr	r3, [fp, #-20]	; 0xffffffec
 c10926c:	e1a02203 	lsl	r2, r3, #4
 c109270:	e51b3010 	ldr	r3, [fp, #-16]
 c109274:	e5d33000 	ldrb	r3, [r3]
 c109278:	e0823003 	add	r3, r2, r3
 c10927c:	e2433030 	sub	r3, r3, #48	; 0x30
 c109280:	e50b3014 	str	r3, [fp, #-20]	; 0xffffffec
 c109284:	e51b3010 	ldr	r3, [fp, #-16]
 c109288:	e2833001 	add	r3, r3, #1
 c10928c:	e50b3010 	str	r3, [fp, #-16]
 c109290:	e51b3010 	ldr	r3, [fp, #-16]
 c109294:	e5d33000 	ldrb	r3, [r3]
 c109298:	e3530000 	cmp	r3, #0
 c10929c:	1affffcb 	bne	c1091d0 <uart0_gethex+0x30>
 c1092a0:	e51b3014 	ldr	r3, [fp, #-20]	; 0xffffffec
 c1092a4:	e1a00003 	mov	r0, r3
 c1092a8:	e24bd00c 	sub	sp, fp, #12
 c1092ac:	e89d6800 	ldm	sp, {fp, sp, lr}
 c1092b0:	e12fff1e 	bx	lr

0c1092b4 <adc_on>:
 c1092b4:	e1a0c00d 	mov	ip, sp
 c1092b8:	e92dd800 	push	{fp, ip, lr, pc}
 c1092bc:	e24cb004 	sub	fp, ip, #4
 c1092c0:	e3a0000c 	mov	r0, #12
 c1092c4:	ebfff00a 	bl	c1052f4 <power_on>
 c1092c8:	e3a03775 	mov	r3, #30670848	; 0x1d40000
 c1092cc:	e3a02775 	mov	r2, #30670848	; 0x1d40000
 c1092d0:	e5922000 	ldr	r2, [r2]
 c1092d4:	e3c22020 	bic	r2, r2, #32
 c1092d8:	e5832000 	str	r2, [r3]
 c1092dc:	e3a0000a 	mov	r0, #10
 c1092e0:	ebfff9c8 	bl	c107a08 <sw_delay_ms>
 c1092e4:	e59f3010 	ldr	r3, [pc, #16]	; c1092fc <adc_on+0x48>
 c1092e8:	e3a02001 	mov	r2, #1
 c1092ec:	e5c32000 	strb	r2, [r3]
 c1092f0:	e24bd00c 	sub	sp, fp, #12
 c1092f4:	e89d6800 	ldm	sp, {fp, sp, lr}
 c1092f8:	e12fff1e 	bx	lr
 c1092fc:	0c115506 	.word	0x0c115506

0c109300 <adc_off>:
 c109300:	e1a0c00d 	mov	ip, sp
 c109304:	e92dd800 	push	{fp, ip, lr, pc}
 c109308:	e24cb004 	sub	fp, ip, #4
 c10930c:	e3a03775 	mov	r3, #30670848	; 0x1d40000
 c109310:	e3a02775 	mov	r2, #30670848	; 0x1d40000
 c109314:	e5922000 	ldr	r2, [r2]
 c109318:	e3822020 	orr	r2, r2, #32
 c10931c:	e5832000 	str	r2, [r3]
 c109320:	e3a0000c 	mov	r0, #12
 c109324:	ebfff02a 	bl	c1053d4 <power_off>
 c109328:	e59f3010 	ldr	r3, [pc, #16]	; c109340 <adc_off+0x40>
 c10932c:	e3a02000 	mov	r2, #0
 c109330:	e5c32000 	strb	r2, [r3]
 c109334:	e24bd00c 	sub	sp, fp, #12
 c109338:	e89d6800 	ldm	sp, {fp, sp, lr}
 c10933c:	e12fff1e 	bx	lr
 c109340:	0c115506 	.word	0x0c115506

0c109344 <adc_status>:
 c109344:	e1a0c00d 	mov	ip, sp
 c109348:	e92dd800 	push	{fp, ip, lr, pc}
 c10934c:	e24cb004 	sub	fp, ip, #4
 c109350:	e59f3010 	ldr	r3, [pc, #16]	; c109368 <adc_status+0x24>
 c109354:	e5d33000 	ldrb	r3, [r3]
 c109358:	e1a00003 	mov	r0, r3
 c10935c:	e24bd00c 	sub	sp, fp, #12
 c109360:	e89d6800 	ldm	sp, {fp, sp, lr}
 c109364:	e12fff1e 	bx	lr
 c109368:	0c115506 	.word	0x0c115506

0c10936c <adc_open>:
 c10936c:	e1a0c00d 	mov	ip, sp
 c109370:	e92dd800 	push	{fp, ip, lr, pc}
 c109374:	e24cb004 	sub	fp, ip, #4
 c109378:	e24dd008 	sub	sp, sp, #8
 c10937c:	e50b0010 	str	r0, [fp, #-16]
 c109380:	e59f3030 	ldr	r3, [pc, #48]	; c1093b8 <adc_open+0x4c>
 c109384:	e51b2010 	ldr	r2, [fp, #-16]
 c109388:	e5832000 	str	r2, [r3]
 c10938c:	e59f3028 	ldr	r3, [pc, #40]	; c1093bc <adc_open+0x50>
 c109390:	e3a02001 	mov	r2, #1
 c109394:	e5832000 	str	r2, [r3]
 c109398:	e59f3020 	ldr	r3, [pc, #32]	; c1093c0 <adc_open+0x54>
 c10939c:	e59f201c 	ldr	r2, [pc, #28]	; c1093c0 <adc_open+0x54>
 c1093a0:	e5922000 	ldr	r2, [r2]
 c1093a4:	e3c22341 	bic	r2, r2, #67108865	; 0x4000001
 c1093a8:	e5832000 	str	r2, [r3]
 c1093ac:	e24bd00c 	sub	sp, fp, #12
 c1093b0:	e89d6800 	ldm	sp, {fp, sp, lr}
 c1093b4:	e12fff1e 	bx	lr
 c1093b8:	0c7fff20 	.word	0x0c7fff20
 c1093bc:	01e00024 	.word	0x01e00024
 c1093c0:	01e0000c 	.word	0x01e0000c

0c1093c4 <adc_close>:
 c1093c4:	e1a0c00d 	mov	ip, sp
 c1093c8:	e92dd800 	push	{fp, ip, lr, pc}
 c1093cc:	e24cb004 	sub	fp, ip, #4
 c1093d0:	e59f3024 	ldr	r3, [pc, #36]	; c1093fc <adc_close+0x38>
 c1093d4:	e59f2020 	ldr	r2, [pc, #32]	; c1093fc <adc_close+0x38>
 c1093d8:	e5922000 	ldr	r2, [r2]
 c1093dc:	e3822001 	orr	r2, r2, #1
 c1093e0:	e5832000 	str	r2, [r3]
 c1093e4:	e59f3014 	ldr	r3, [pc, #20]	; c109400 <adc_close+0x3c>
 c1093e8:	e59f2014 	ldr	r2, [pc, #20]	; c109404 <adc_close+0x40>
 c1093ec:	e5832000 	str	r2, [r3]
 c1093f0:	e24bd00c 	sub	sp, fp, #12
 c1093f4:	e89d6800 	ldm	sp, {fp, sp, lr}
 c1093f8:	e12fff1e 	bx	lr
 c1093fc:	01e0000c 	.word	0x01e0000c
 c109400:	0c7fff20 	.word	0x0c7fff20
 c109404:	0c1069a4 	.word	0x0c1069a4

0c109408 <adc_init>:
 c109408:	e1a0c00d 	mov	ip, sp
 c10940c:	e92dd800 	push	{fp, ip, lr, pc}
 c109410:	e24cb004 	sub	fp, ip, #4
 c109414:	e59f3028 	ldr	r3, [pc, #40]	; c109444 <adc_init+0x3c>
 c109418:	e59f2024 	ldr	r2, [pc, #36]	; c109444 <adc_init+0x3c>
 c10941c:	e5922000 	ldr	r2, [r2]
 c109420:	e3822d42 	orr	r2, r2, #4224	; 0x1080
 c109424:	e5832000 	str	r2, [r3]
 c109428:	e59f3018 	ldr	r3, [pc, #24]	; c109448 <adc_init+0x40>
 c10942c:	e3a02013 	mov	r2, #19
 c109430:	e5832000 	str	r2, [r3]
 c109434:	ebffffb1 	bl	c109300 <adc_off>
 c109438:	e24bd00c 	sub	sp, fp, #12
 c10943c:	e89d6800 	ldm	sp, {fp, sp, lr}
 c109440:	e12fff1e 	bx	lr
 c109444:	01d80004 	.word	0x01d80004
 c109448:	01d40004 	.word	0x01d40004

0c10944c <adc_getSample>:
 c10944c:	e1a0c00d 	mov	ip, sp
 c109450:	e92dd800 	push	{fp, ip, lr, pc}
 c109454:	e24cb004 	sub	fp, ip, #4
 c109458:	e24dd010 	sub	sp, sp, #16
 c10945c:	e1a03000 	mov	r3, r0
 c109460:	e54b3015 	strb	r3, [fp, #-21]	; 0xffffffeb
 c109464:	e3a03775 	mov	r3, #30670848	; 0x1d40000
 c109468:	e55b2015 	ldrb	r2, [fp, #-21]	; 0xffffffeb
 c10946c:	e1a02102 	lsl	r2, r2, #2
 c109470:	e5832000 	str	r2, [r3]
 c109474:	e3a0000a 	mov	r0, #10
 c109478:	ebfff962 	bl	c107a08 <sw_delay_ms>
 c10947c:	e3a03000 	mov	r3, #0
 c109480:	e54b3011 	strb	r3, [fp, #-17]	; 0xffffffef
 c109484:	e3a03000 	mov	r3, #0
 c109488:	e50b3010 	str	r3, [fp, #-16]
 c10948c:	ea00001b 	b	c109500 <adc_getSample+0xb4>
 c109490:	e3a03775 	mov	r3, #30670848	; 0x1d40000
 c109494:	e3a02775 	mov	r2, #30670848	; 0x1d40000
 c109498:	e5922000 	ldr	r2, [r2]
 c10949c:	e3822001 	orr	r2, r2, #1
 c1094a0:	e5832000 	str	r2, [r3]
 c1094a4:	e1a00000 	nop			; (mov r0, r0)
 c1094a8:	e3a03775 	mov	r3, #30670848	; 0x1d40000
 c1094ac:	e5933000 	ldr	r3, [r3]
 c1094b0:	e2033001 	and	r3, r3, #1
 c1094b4:	e20330ff 	and	r3, r3, #255	; 0xff
 c1094b8:	e3530000 	cmp	r3, #0
 c1094bc:	1afffff9 	bne	c1094a8 <adc_getSample+0x5c>
 c1094c0:	e1a00000 	nop			; (mov r0, r0)
 c1094c4:	e3a03775 	mov	r3, #30670848	; 0x1d40000
 c1094c8:	e5933000 	ldr	r3, [r3]
 c1094cc:	e2033040 	and	r3, r3, #64	; 0x40
 c1094d0:	e3530000 	cmp	r3, #0
 c1094d4:	0afffffa 	beq	c1094c4 <adc_getSample+0x78>
 c1094d8:	e59f3054 	ldr	r3, [pc, #84]	; c109534 <adc_getSample+0xe8>
 c1094dc:	e5933000 	ldr	r3, [r3]
 c1094e0:	e1a03b03 	lsl	r3, r3, #22
 c1094e4:	e1a03b23 	lsr	r3, r3, #22
 c1094e8:	e51b2010 	ldr	r2, [fp, #-16]
 c1094ec:	e0823003 	add	r3, r2, r3
 c1094f0:	e50b3010 	str	r3, [fp, #-16]
 c1094f4:	e55b3011 	ldrb	r3, [fp, #-17]	; 0xffffffef
 c1094f8:	e2833001 	add	r3, r3, #1
 c1094fc:	e54b3011 	strb	r3, [fp, #-17]	; 0xffffffef
 c109500:	e55b3011 	ldrb	r3, [fp, #-17]	; 0xffffffef
 c109504:	e3530004 	cmp	r3, #4
 c109508:	9affffe0 	bls	c109490 <adc_getSample+0x44>
 c10950c:	e51b2010 	ldr	r2, [fp, #-16]
 c109510:	e59f3020 	ldr	r3, [pc, #32]	; c109538 <adc_getSample+0xec>
 c109514:	e0831392 	umull	r1, r3, r2, r3
 c109518:	e1a03123 	lsr	r3, r3, #2
 c10951c:	e1a03803 	lsl	r3, r3, #16
 c109520:	e1a03823 	lsr	r3, r3, #16
 c109524:	e1a00003 	mov	r0, r3
 c109528:	e24bd00c 	sub	sp, fp, #12
 c10952c:	e89d6800 	ldm	sp, {fp, sp, lr}
 c109530:	e12fff1e 	bx	lr
 c109534:	01d40008 	.word	0x01d40008
 c109538:	cccccccd 	.word	0xcccccccd

0c10953c <__aeabi_uidiv>:
 c10953c:	e2512001 	subs	r2, r1, #1
 c109540:	012fff1e 	bxeq	lr
 c109544:	3a000036 	bcc	c109624 <__aeabi_uidiv+0xe8>
 c109548:	e1500001 	cmp	r0, r1
 c10954c:	9a000022 	bls	c1095dc <__aeabi_uidiv+0xa0>
 c109550:	e1110002 	tst	r1, r2
 c109554:	0a000023 	beq	c1095e8 <__aeabi_uidiv+0xac>
 c109558:	e311020e 	tst	r1, #-536870912	; 0xe0000000
 c10955c:	01a01181 	lsleq	r1, r1, #3
 c109560:	03a03008 	moveq	r3, #8
 c109564:	13a03001 	movne	r3, #1
 c109568:	e3510201 	cmp	r1, #268435456	; 0x10000000
 c10956c:	31510000 	cmpcc	r1, r0
 c109570:	31a01201 	lslcc	r1, r1, #4
 c109574:	31a03203 	lslcc	r3, r3, #4
 c109578:	3afffffa 	bcc	c109568 <__aeabi_uidiv+0x2c>
 c10957c:	e3510102 	cmp	r1, #-2147483648	; 0x80000000
 c109580:	31510000 	cmpcc	r1, r0
 c109584:	31a01081 	lslcc	r1, r1, #1
 c109588:	31a03083 	lslcc	r3, r3, #1
 c10958c:	3afffffa 	bcc	c10957c <__aeabi_uidiv+0x40>
 c109590:	e3a02000 	mov	r2, #0
 c109594:	e1500001 	cmp	r0, r1
 c109598:	20400001 	subcs	r0, r0, r1
 c10959c:	21822003 	orrcs	r2, r2, r3
 c1095a0:	e15000a1 	cmp	r0, r1, lsr #1
 c1095a4:	204000a1 	subcs	r0, r0, r1, lsr #1
 c1095a8:	218220a3 	orrcs	r2, r2, r3, lsr #1
 c1095ac:	e1500121 	cmp	r0, r1, lsr #2
 c1095b0:	20400121 	subcs	r0, r0, r1, lsr #2
 c1095b4:	21822123 	orrcs	r2, r2, r3, lsr #2
 c1095b8:	e15001a1 	cmp	r0, r1, lsr #3
 c1095bc:	204001a1 	subcs	r0, r0, r1, lsr #3
 c1095c0:	218221a3 	orrcs	r2, r2, r3, lsr #3
 c1095c4:	e3500000 	cmp	r0, #0
 c1095c8:	11b03223 	lsrsne	r3, r3, #4
 c1095cc:	11a01221 	lsrne	r1, r1, #4
 c1095d0:	1affffef 	bne	c109594 <__aeabi_uidiv+0x58>
 c1095d4:	e1a00002 	mov	r0, r2
 c1095d8:	e12fff1e 	bx	lr
 c1095dc:	03a00001 	moveq	r0, #1
 c1095e0:	13a00000 	movne	r0, #0
 c1095e4:	e12fff1e 	bx	lr
 c1095e8:	e3510801 	cmp	r1, #65536	; 0x10000
 c1095ec:	21a01821 	lsrcs	r1, r1, #16
 c1095f0:	23a02010 	movcs	r2, #16
 c1095f4:	33a02000 	movcc	r2, #0
 c1095f8:	e3510c01 	cmp	r1, #256	; 0x100
 c1095fc:	21a01421 	lsrcs	r1, r1, #8
 c109600:	22822008 	addcs	r2, r2, #8
 c109604:	e3510010 	cmp	r1, #16
 c109608:	21a01221 	lsrcs	r1, r1, #4
 c10960c:	22822004 	addcs	r2, r2, #4
 c109610:	e3510004 	cmp	r1, #4
 c109614:	82822003 	addhi	r2, r2, #3
 c109618:	908220a1 	addls	r2, r2, r1, lsr #1
 c10961c:	e1a00230 	lsr	r0, r0, r2
 c109620:	e12fff1e 	bx	lr
 c109624:	e3500000 	cmp	r0, #0
 c109628:	13e00000 	mvnne	r0, #0
 c10962c:	ea000059 	b	c109798 <__aeabi_idiv0>

0c109630 <__aeabi_uidivmod>:
 c109630:	e3510000 	cmp	r1, #0
 c109634:	0afffffa 	beq	c109624 <__aeabi_uidiv+0xe8>
 c109638:	e92d4003 	push	{r0, r1, lr}
 c10963c:	ebffffbe 	bl	c10953c <__aeabi_uidiv>
 c109640:	e8bd4006 	pop	{r1, r2, lr}
 c109644:	e0030092 	mul	r3, r2, r0
 c109648:	e0411003 	sub	r1, r1, r3
 c10964c:	e12fff1e 	bx	lr

0c109650 <__aeabi_idiv>:
 c109650:	e3510000 	cmp	r1, #0
 c109654:	0a000043 	beq	c109768 <.divsi3_skip_div0_test+0x110>

0c109658 <.divsi3_skip_div0_test>:
 c109658:	e020c001 	eor	ip, r0, r1
 c10965c:	42611000 	rsbmi	r1, r1, #0
 c109660:	e2512001 	subs	r2, r1, #1
 c109664:	0a000027 	beq	c109708 <.divsi3_skip_div0_test+0xb0>
 c109668:	e1b03000 	movs	r3, r0
 c10966c:	42603000 	rsbmi	r3, r0, #0
 c109670:	e1530001 	cmp	r3, r1
 c109674:	9a000026 	bls	c109714 <.divsi3_skip_div0_test+0xbc>
 c109678:	e1110002 	tst	r1, r2
 c10967c:	0a000028 	beq	c109724 <.divsi3_skip_div0_test+0xcc>
 c109680:	e311020e 	tst	r1, #-536870912	; 0xe0000000
 c109684:	01a01181 	lsleq	r1, r1, #3
 c109688:	03a02008 	moveq	r2, #8
 c10968c:	13a02001 	movne	r2, #1
 c109690:	e3510201 	cmp	r1, #268435456	; 0x10000000
 c109694:	31510003 	cmpcc	r1, r3
 c109698:	31a01201 	lslcc	r1, r1, #4
 c10969c:	31a02202 	lslcc	r2, r2, #4
 c1096a0:	3afffffa 	bcc	c109690 <.divsi3_skip_div0_test+0x38>
 c1096a4:	e3510102 	cmp	r1, #-2147483648	; 0x80000000
 c1096a8:	31510003 	cmpcc	r1, r3
 c1096ac:	31a01081 	lslcc	r1, r1, #1
 c1096b0:	31a02082 	lslcc	r2, r2, #1
 c1096b4:	3afffffa 	bcc	c1096a4 <.divsi3_skip_div0_test+0x4c>
 c1096b8:	e3a00000 	mov	r0, #0
 c1096bc:	e1530001 	cmp	r3, r1
 c1096c0:	20433001 	subcs	r3, r3, r1
 c1096c4:	21800002 	orrcs	r0, r0, r2
 c1096c8:	e15300a1 	cmp	r3, r1, lsr #1
 c1096cc:	204330a1 	subcs	r3, r3, r1, lsr #1
 c1096d0:	218000a2 	orrcs	r0, r0, r2, lsr #1
 c1096d4:	e1530121 	cmp	r3, r1, lsr #2
 c1096d8:	20433121 	subcs	r3, r3, r1, lsr #2
 c1096dc:	21800122 	orrcs	r0, r0, r2, lsr #2
 c1096e0:	e15301a1 	cmp	r3, r1, lsr #3
 c1096e4:	204331a1 	subcs	r3, r3, r1, lsr #3
 c1096e8:	218001a2 	orrcs	r0, r0, r2, lsr #3
 c1096ec:	e3530000 	cmp	r3, #0
 c1096f0:	11b02222 	lsrsne	r2, r2, #4
 c1096f4:	11a01221 	lsrne	r1, r1, #4
 c1096f8:	1affffef 	bne	c1096bc <.divsi3_skip_div0_test+0x64>
 c1096fc:	e35c0000 	cmp	ip, #0
 c109700:	42600000 	rsbmi	r0, r0, #0
 c109704:	e12fff1e 	bx	lr
 c109708:	e13c0000 	teq	ip, r0
 c10970c:	42600000 	rsbmi	r0, r0, #0
 c109710:	e12fff1e 	bx	lr
 c109714:	33a00000 	movcc	r0, #0
 c109718:	01a00fcc 	asreq	r0, ip, #31
 c10971c:	03800001 	orreq	r0, r0, #1
 c109720:	e12fff1e 	bx	lr
 c109724:	e3510801 	cmp	r1, #65536	; 0x10000
 c109728:	21a01821 	lsrcs	r1, r1, #16
 c10972c:	23a02010 	movcs	r2, #16
 c109730:	33a02000 	movcc	r2, #0
 c109734:	e3510c01 	cmp	r1, #256	; 0x100
 c109738:	21a01421 	lsrcs	r1, r1, #8
 c10973c:	22822008 	addcs	r2, r2, #8
 c109740:	e3510010 	cmp	r1, #16
 c109744:	21a01221 	lsrcs	r1, r1, #4
 c109748:	22822004 	addcs	r2, r2, #4
 c10974c:	e3510004 	cmp	r1, #4
 c109750:	82822003 	addhi	r2, r2, #3
 c109754:	908220a1 	addls	r2, r2, r1, lsr #1
 c109758:	e35c0000 	cmp	ip, #0
 c10975c:	e1a00233 	lsr	r0, r3, r2
 c109760:	42600000 	rsbmi	r0, r0, #0
 c109764:	e12fff1e 	bx	lr
 c109768:	e3500000 	cmp	r0, #0
 c10976c:	c3e00102 	mvngt	r0, #-2147483648	; 0x80000000
 c109770:	b3a00102 	movlt	r0, #-2147483648	; 0x80000000
 c109774:	ea000007 	b	c109798 <__aeabi_idiv0>

0c109778 <__aeabi_idivmod>:
 c109778:	e3510000 	cmp	r1, #0
 c10977c:	0afffff9 	beq	c109768 <.divsi3_skip_div0_test+0x110>
 c109780:	e92d4003 	push	{r0, r1, lr}
 c109784:	ebffffb3 	bl	c109658 <.divsi3_skip_div0_test>
 c109788:	e8bd4006 	pop	{r1, r2, lr}
 c10978c:	e0030092 	mul	r3, r2, r0
 c109790:	e0411003 	sub	r1, r1, r3
 c109794:	e12fff1e 	bx	lr

0c109798 <__aeabi_idiv0>:
 c109798:	e12fff1e 	bx	lr

0c10979c <__aeabi_uldivmod>:
 c10979c:	e3530000 	cmp	r3, #0
 c1097a0:	03520000 	cmpeq	r2, #0
 c1097a4:	1a000004 	bne	c1097bc <__aeabi_uldivmod+0x20>
 c1097a8:	e3510000 	cmp	r1, #0
 c1097ac:	03500000 	cmpeq	r0, #0
 c1097b0:	13e01000 	mvnne	r1, #0
 c1097b4:	13e00000 	mvnne	r0, #0
 c1097b8:	eafffff6 	b	c109798 <__aeabi_idiv0>
 c1097bc:	e24dd008 	sub	sp, sp, #8
 c1097c0:	e92d6000 	push	{sp, lr}
 c1097c4:	eb000013 	bl	c109818 <__gnu_uldivmod_helper>
 c1097c8:	e59de004 	ldr	lr, [sp, #4]
 c1097cc:	e28dd008 	add	sp, sp, #8
 c1097d0:	e8bd000c 	pop	{r2, r3}
 c1097d4:	e12fff1e 	bx	lr

0c1097d8 <__gnu_ldivmod_helper>:
 c1097d8:	e92d40f8 	push	{r3, r4, r5, r6, r7, lr}
 c1097dc:	e1a04002 	mov	r4, r2
 c1097e0:	e1a07003 	mov	r7, r3
 c1097e4:	e1a05000 	mov	r5, r0
 c1097e8:	e1a06001 	mov	r6, r1
 c1097ec:	eb000019 	bl	c109858 <__divdi3>
 c1097f0:	e0070790 	mul	r7, r0, r7
 c1097f4:	e0832490 	umull	r2, r3, r0, r4
 c1097f8:	e0247491 	mla	r4, r1, r4, r7
 c1097fc:	e0843003 	add	r3, r4, r3
 c109800:	e0555002 	subs	r5, r5, r2
 c109804:	e0c66003 	sbc	r6, r6, r3
 c109808:	e59d3018 	ldr	r3, [sp, #24]
 c10980c:	e8830060 	stm	r3, {r5, r6}
 c109810:	e8bd40f8 	pop	{r3, r4, r5, r6, r7, lr}
 c109814:	e12fff1e 	bx	lr

0c109818 <__gnu_uldivmod_helper>:
 c109818:	e92d40f8 	push	{r3, r4, r5, r6, r7, lr}
 c10981c:	e1a04002 	mov	r4, r2
 c109820:	e1a07003 	mov	r7, r3
 c109824:	e1a05000 	mov	r5, r0
 c109828:	e1a06001 	mov	r6, r1
 c10982c:	eb000133 	bl	c109d00 <__udivdi3>
 c109830:	e0070790 	mul	r7, r0, r7
 c109834:	e0832490 	umull	r2, r3, r0, r4
 c109838:	e0247491 	mla	r4, r1, r4, r7
 c10983c:	e0843003 	add	r3, r4, r3
 c109840:	e0555002 	subs	r5, r5, r2
 c109844:	e0c66003 	sbc	r6, r6, r3
 c109848:	e59d3018 	ldr	r3, [sp, #24]
 c10984c:	e8830060 	stm	r3, {r5, r6}
 c109850:	e8bd40f8 	pop	{r3, r4, r5, r6, r7, lr}
 c109854:	e12fff1e 	bx	lr

0c109858 <__divdi3>:
 c109858:	e92d4ff0 	push	{r4, r5, r6, r7, r8, r9, sl, fp, lr}
 c10985c:	e3510000 	cmp	r1, #0
 c109860:	e24dd014 	sub	sp, sp, #20
 c109864:	e1a0c003 	mov	ip, r3
 c109868:	a3a07000 	movge	r7, #0
 c10986c:	ba000094 	blt	c109ac4 <__divdi3+0x26c>
 c109870:	e35c0000 	cmp	ip, #0
 c109874:	ba00008e 	blt	c109ab4 <__divdi3+0x25c>
 c109878:	e253a000 	subs	sl, r3, #0
 c10987c:	e1a0b000 	mov	fp, r0
 c109880:	e1a08001 	mov	r8, r1
 c109884:	e1a09002 	mov	r9, r2
 c109888:	e1a04002 	mov	r4, r2
 c10988c:	e1a05000 	mov	r5, r0
 c109890:	e1a06001 	mov	r6, r1
 c109894:	1a00003e 	bne	c109994 <__divdi3+0x13c>
 c109898:	e1520001 	cmp	r2, r1
 c10989c:	9a00004c 	bls	c1099d4 <__divdi3+0x17c>
 c1098a0:	e1a00002 	mov	r0, r2
 c1098a4:	eb000222 	bl	c10a134 <__clzsi2>
 c1098a8:	e3500000 	cmp	r0, #0
 c1098ac:	12603020 	rsbne	r3, r0, #32
 c1098b0:	11a0333b 	lsrne	r3, fp, r3
 c1098b4:	11a04019 	lslne	r4, r9, r0
 c1098b8:	11836018 	orrne	r6, r3, r8, lsl r0
 c1098bc:	e1a09824 	lsr	r9, r4, #16
 c1098c0:	11a0501b 	lslne	r5, fp, r0
 c1098c4:	e1a01009 	mov	r1, r9
 c1098c8:	e1a00006 	mov	r0, r6
 c1098cc:	ebffff1a 	bl	c10953c <__aeabi_uidiv>
 c1098d0:	e1a01009 	mov	r1, r9
 c1098d4:	e1a0a000 	mov	sl, r0
 c1098d8:	e1a00006 	mov	r0, r6
 c1098dc:	ebffff53 	bl	c109630 <__aeabi_uidivmod>
 c1098e0:	e1a08804 	lsl	r8, r4, #16
 c1098e4:	e1a08828 	lsr	r8, r8, #16
 c1098e8:	e0030a98 	mul	r3, r8, sl
 c1098ec:	e1a0b825 	lsr	fp, r5, #16
 c1098f0:	e18bb801 	orr	fp, fp, r1, lsl #16
 c1098f4:	e153000b 	cmp	r3, fp
 c1098f8:	9a000005 	bls	c109914 <__divdi3+0xbc>
 c1098fc:	e09bb004 	adds	fp, fp, r4
 c109900:	e24aa001 	sub	sl, sl, #1
 c109904:	2a000002 	bcs	c109914 <__divdi3+0xbc>
 c109908:	e153000b 	cmp	r3, fp
 c10990c:	824aa001 	subhi	sl, sl, #1
 c109910:	808bb004 	addhi	fp, fp, r4
 c109914:	e063b00b 	rsb	fp, r3, fp
 c109918:	e1a01009 	mov	r1, r9
 c10991c:	e1a0000b 	mov	r0, fp
 c109920:	ebffff05 	bl	c10953c <__aeabi_uidiv>
 c109924:	e1a01009 	mov	r1, r9
 c109928:	e1a06000 	mov	r6, r0
 c10992c:	e1a0000b 	mov	r0, fp
 c109930:	ebffff3e 	bl	c109630 <__aeabi_uidivmod>
 c109934:	e0080896 	mul	r8, r6, r8
 c109938:	e1a00805 	lsl	r0, r5, #16
 c10993c:	e1a05820 	lsr	r5, r0, #16
 c109940:	e1855801 	orr	r5, r5, r1, lsl #16
 c109944:	e1580005 	cmp	r8, r5
 c109948:	9a000004 	bls	c109960 <__divdi3+0x108>
 c10994c:	e0955004 	adds	r5, r5, r4
 c109950:	e2466001 	sub	r6, r6, #1
 c109954:	2a000001 	bcs	c109960 <__divdi3+0x108>
 c109958:	e1580005 	cmp	r8, r5
 c10995c:	82466001 	subhi	r6, r6, #1
 c109960:	e186680a 	orr	r6, r6, sl, lsl #16
 c109964:	e3a09000 	mov	r9, #0
 c109968:	e3570000 	cmp	r7, #0
 c10996c:	e1a03006 	mov	r3, r6
 c109970:	e1a04009 	mov	r4, r9
 c109974:	0a000001 	beq	c109980 <__divdi3+0x128>
 c109978:	e2733000 	rsbs	r3, r3, #0
 c10997c:	e2e44000 	rsc	r4, r4, #0
 c109980:	e1a00003 	mov	r0, r3
 c109984:	e1a01004 	mov	r1, r4
 c109988:	e28dd014 	add	sp, sp, #20
 c10998c:	e8bd4ff0 	pop	{r4, r5, r6, r7, r8, r9, sl, fp, lr}
 c109990:	e12fff1e 	bx	lr
 c109994:	e15a0001 	cmp	sl, r1
 c109998:	83a09000 	movhi	r9, #0
 c10999c:	81a06009 	movhi	r6, r9
 c1099a0:	8afffff0 	bhi	c109968 <__divdi3+0x110>
 c1099a4:	e1a00003 	mov	r0, r3
 c1099a8:	eb0001e1 	bl	c10a134 <__clzsi2>
 c1099ac:	e2504000 	subs	r4, r0, #0
 c1099b0:	1a00007a 	bne	c109ba0 <__divdi3+0x348>
 c1099b4:	e15a0008 	cmp	sl, r8
 c1099b8:	2159000b 	cmpcs	r9, fp
 c1099bc:	83a09000 	movhi	r9, #0
 c1099c0:	93a09001 	movls	r9, #1
 c1099c4:	93a06001 	movls	r6, #1
 c1099c8:	91a09004 	movls	r9, r4
 c1099cc:	81a06009 	movhi	r6, r9
 c1099d0:	eaffffe4 	b	c109968 <__divdi3+0x110>
 c1099d4:	e3520000 	cmp	r2, #0
 c1099d8:	1a000003 	bne	c1099ec <__divdi3+0x194>
 c1099dc:	e3a00001 	mov	r0, #1
 c1099e0:	e1a01002 	mov	r1, r2
 c1099e4:	ebfffed4 	bl	c10953c <__aeabi_uidiv>
 c1099e8:	e1a04000 	mov	r4, r0
 c1099ec:	e1a00004 	mov	r0, r4
 c1099f0:	eb0001cf 	bl	c10a134 <__clzsi2>
 c1099f4:	e2503000 	subs	r3, r0, #0
 c1099f8:	1a000035 	bne	c109ad4 <__divdi3+0x27c>
 c1099fc:	e3a01001 	mov	r1, #1
 c109a00:	e1a09804 	lsl	r9, r4, #16
 c109a04:	e58d1008 	str	r1, [sp, #8]
 c109a08:	e0646006 	rsb	r6, r4, r6
 c109a0c:	e1a08824 	lsr	r8, r4, #16
 c109a10:	e1a09829 	lsr	r9, r9, #16
 c109a14:	e1a01008 	mov	r1, r8
 c109a18:	e1a00006 	mov	r0, r6
 c109a1c:	ebfffec6 	bl	c10953c <__aeabi_uidiv>
 c109a20:	e1a01008 	mov	r1, r8
 c109a24:	e1a0a000 	mov	sl, r0
 c109a28:	e1a00006 	mov	r0, r6
 c109a2c:	ebfffeff 	bl	c109630 <__aeabi_uidivmod>
 c109a30:	e0030a99 	mul	r3, r9, sl
 c109a34:	e1a0c825 	lsr	ip, r5, #16
 c109a38:	e18cb801 	orr	fp, ip, r1, lsl #16
 c109a3c:	e153000b 	cmp	r3, fp
 c109a40:	9a000005 	bls	c109a5c <__divdi3+0x204>
 c109a44:	e09bb004 	adds	fp, fp, r4
 c109a48:	e24aa001 	sub	sl, sl, #1
 c109a4c:	2a000002 	bcs	c109a5c <__divdi3+0x204>
 c109a50:	e153000b 	cmp	r3, fp
 c109a54:	824aa001 	subhi	sl, sl, #1
 c109a58:	808bb004 	addhi	fp, fp, r4
 c109a5c:	e063b00b 	rsb	fp, r3, fp
 c109a60:	e1a01008 	mov	r1, r8
 c109a64:	e1a0000b 	mov	r0, fp
 c109a68:	ebfffeb3 	bl	c10953c <__aeabi_uidiv>
 c109a6c:	e1a01008 	mov	r1, r8
 c109a70:	e1a06000 	mov	r6, r0
 c109a74:	e1a0000b 	mov	r0, fp
 c109a78:	ebfffeec 	bl	c109630 <__aeabi_uidivmod>
 c109a7c:	e0090996 	mul	r9, r6, r9
 c109a80:	e1a00805 	lsl	r0, r5, #16
 c109a84:	e1a05820 	lsr	r5, r0, #16
 c109a88:	e1855801 	orr	r5, r5, r1, lsl #16
 c109a8c:	e1590005 	cmp	r9, r5
 c109a90:	9a000004 	bls	c109aa8 <__divdi3+0x250>
 c109a94:	e0955004 	adds	r5, r5, r4
 c109a98:	e2466001 	sub	r6, r6, #1
 c109a9c:	2a000001 	bcs	c109aa8 <__divdi3+0x250>
 c109aa0:	e1590005 	cmp	r9, r5
 c109aa4:	82466001 	subhi	r6, r6, #1
 c109aa8:	e186680a 	orr	r6, r6, sl, lsl #16
 c109aac:	e59d9008 	ldr	r9, [sp, #8]
 c109ab0:	eaffffac 	b	c109968 <__divdi3+0x110>
 c109ab4:	e1e07007 	mvn	r7, r7
 c109ab8:	e2722000 	rsbs	r2, r2, #0
 c109abc:	e2e33000 	rsc	r3, r3, #0
 c109ac0:	eaffff6c 	b	c109878 <__divdi3+0x20>
 c109ac4:	e2700000 	rsbs	r0, r0, #0
 c109ac8:	e2e11000 	rsc	r1, r1, #0
 c109acc:	e3e07000 	mvn	r7, #0
 c109ad0:	eaffff66 	b	c109870 <__divdi3+0x18>
 c109ad4:	e2638020 	rsb	r8, r3, #32
 c109ad8:	e1a0b835 	lsr	fp, r5, r8
 c109adc:	e1a04314 	lsl	r4, r4, r3
 c109ae0:	e1a0a836 	lsr	sl, r6, r8
 c109ae4:	e18be316 	orr	lr, fp, r6, lsl r3
 c109ae8:	e1a08824 	lsr	r8, r4, #16
 c109aec:	e1a0c804 	lsl	ip, r4, #16
 c109af0:	e1a01008 	mov	r1, r8
 c109af4:	e1a0000a 	mov	r0, sl
 c109af8:	e1a0982c 	lsr	r9, ip, #16
 c109afc:	e1a05315 	lsl	r5, r5, r3
 c109b00:	e58de008 	str	lr, [sp, #8]
 c109b04:	ebfffe8c 	bl	c10953c <__aeabi_uidiv>
 c109b08:	e1a01008 	mov	r1, r8
 c109b0c:	e1a0b000 	mov	fp, r0
 c109b10:	e1a0000a 	mov	r0, sl
 c109b14:	ebfffec5 	bl	c109630 <__aeabi_uidivmod>
 c109b18:	e0030b99 	mul	r3, r9, fp
 c109b1c:	e59d2008 	ldr	r2, [sp, #8]
 c109b20:	e1a06822 	lsr	r6, r2, #16
 c109b24:	e1866801 	orr	r6, r6, r1, lsl #16
 c109b28:	e1530006 	cmp	r3, r6
 c109b2c:	9a000002 	bls	c109b3c <__divdi3+0x2e4>
 c109b30:	e0966004 	adds	r6, r6, r4
 c109b34:	e24bb001 	sub	fp, fp, #1
 c109b38:	3a00006c 	bcc	c109cf0 <__divdi3+0x498>
 c109b3c:	e0636006 	rsb	r6, r3, r6
 c109b40:	e1a01008 	mov	r1, r8
 c109b44:	e1a00006 	mov	r0, r6
 c109b48:	ebfffe7b 	bl	c10953c <__aeabi_uidiv>
 c109b4c:	e1a01008 	mov	r1, r8
 c109b50:	e1a0a000 	mov	sl, r0
 c109b54:	e1a00006 	mov	r0, r6
 c109b58:	ebfffeb4 	bl	c109630 <__aeabi_uidivmod>
 c109b5c:	e0030a99 	mul	r3, r9, sl
 c109b60:	e59d2008 	ldr	r2, [sp, #8]
 c109b64:	e1a06802 	lsl	r6, r2, #16
 c109b68:	e1a00826 	lsr	r0, r6, #16
 c109b6c:	e1806801 	orr	r6, r0, r1, lsl #16
 c109b70:	e1530006 	cmp	r3, r6
 c109b74:	9a000005 	bls	c109b90 <__divdi3+0x338>
 c109b78:	e0966004 	adds	r6, r6, r4
 c109b7c:	e24aa001 	sub	sl, sl, #1
 c109b80:	2a000002 	bcs	c109b90 <__divdi3+0x338>
 c109b84:	e1530006 	cmp	r3, r6
 c109b88:	824aa001 	subhi	sl, sl, #1
 c109b8c:	80866004 	addhi	r6, r6, r4
 c109b90:	e0636006 	rsb	r6, r3, r6
 c109b94:	e18a380b 	orr	r3, sl, fp, lsl #16
 c109b98:	e58d3008 	str	r3, [sp, #8]
 c109b9c:	eaffff9c 	b	c109a14 <__divdi3+0x1bc>
 c109ba0:	e2641020 	rsb	r1, r4, #32
 c109ba4:	e1a00139 	lsr	r0, r9, r1
 c109ba8:	e1a0213b 	lsr	r2, fp, r1
 c109bac:	e180a41a 	orr	sl, r0, sl, lsl r4
 c109bb0:	e1a06138 	lsr	r6, r8, r1
 c109bb4:	e1828418 	orr	r8, r2, r8, lsl r4
 c109bb8:	e1a0380a 	lsl	r3, sl, #16
 c109bbc:	e1a0b82a 	lsr	fp, sl, #16
 c109bc0:	e1a0e823 	lsr	lr, r3, #16
 c109bc4:	e1a0100b 	mov	r1, fp
 c109bc8:	e1a00006 	mov	r0, r6
 c109bcc:	e58d8008 	str	r8, [sp, #8]
 c109bd0:	e58de00c 	str	lr, [sp, #12]
 c109bd4:	ebfffe58 	bl	c10953c <__aeabi_uidiv>
 c109bd8:	e1a0100b 	mov	r1, fp
 c109bdc:	e1a08000 	mov	r8, r0
 c109be0:	e1a00006 	mov	r0, r6
 c109be4:	ebfffe91 	bl	c109630 <__aeabi_uidivmod>
 c109be8:	e59dc00c 	ldr	ip, [sp, #12]
 c109bec:	e002089c 	mul	r2, ip, r8
 c109bf0:	e59d3008 	ldr	r3, [sp, #8]
 c109bf4:	e1a06823 	lsr	r6, r3, #16
 c109bf8:	e1861801 	orr	r1, r6, r1, lsl #16
 c109bfc:	e1520001 	cmp	r2, r1
 c109c00:	e1a03419 	lsl	r3, r9, r4
 c109c04:	9a000002 	bls	c109c14 <__divdi3+0x3bc>
 c109c08:	e091100a 	adds	r1, r1, sl
 c109c0c:	e2488001 	sub	r8, r8, #1
 c109c10:	3a000032 	bcc	c109ce0 <__divdi3+0x488>
 c109c14:	e0629001 	rsb	r9, r2, r1
 c109c18:	e1a00009 	mov	r0, r9
 c109c1c:	e1a0100b 	mov	r1, fp
 c109c20:	e58d3004 	str	r3, [sp, #4]
 c109c24:	ebfffe44 	bl	c10953c <__aeabi_uidiv>
 c109c28:	e1a0100b 	mov	r1, fp
 c109c2c:	e1a06000 	mov	r6, r0
 c109c30:	e1a00009 	mov	r0, r9
 c109c34:	ebfffe7d 	bl	c109630 <__aeabi_uidivmod>
 c109c38:	e59d000c 	ldr	r0, [sp, #12]
 c109c3c:	e0020690 	mul	r2, r0, r6
 c109c40:	e59d3008 	ldr	r3, [sp, #8]
 c109c44:	e1a0c803 	lsl	ip, r3, #16
 c109c48:	e1a0982c 	lsr	r9, ip, #16
 c109c4c:	e1890801 	orr	r0, r9, r1, lsl #16
 c109c50:	e1520000 	cmp	r2, r0
 c109c54:	e59d3004 	ldr	r3, [sp, #4]
 c109c58:	9a000002 	bls	c109c68 <__divdi3+0x410>
 c109c5c:	e090000a 	adds	r0, r0, sl
 c109c60:	e2466001 	sub	r6, r6, #1
 c109c64:	3a000019 	bcc	c109cd0 <__divdi3+0x478>
 c109c68:	e062e000 	rsb	lr, r2, r0
 c109c6c:	e1866808 	orr	r6, r6, r8, lsl #16
 c109c70:	e1a02826 	lsr	r2, r6, #16
 c109c74:	e1a01823 	lsr	r1, r3, #16
 c109c78:	e1c6c802 	bic	ip, r6, r2, lsl #16
 c109c7c:	e1c39801 	bic	r9, r3, r1, lsl #16
 c109c80:	e003099c 	mul	r3, ip, r9
 c109c84:	e0090992 	mul	r9, r2, r9
 c109c88:	e00c0c91 	mul	ip, r1, ip
 c109c8c:	e0010192 	mul	r1, r2, r1
 c109c90:	e099c00c 	adds	ip, r9, ip
 c109c94:	22811801 	addcs	r1, r1, #65536	; 0x10000
 c109c98:	e093380c 	adds	r3, r3, ip, lsl #16
 c109c9c:	e0a1182c 	adc	r1, r1, ip, lsr #16
 c109ca0:	e15e0001 	cmp	lr, r1
 c109ca4:	3a000006 	bcc	c109cc4 <__divdi3+0x46c>
 c109ca8:	13a02000 	movne	r2, #0
 c109cac:	03a02001 	moveq	r2, #1
 c109cb0:	e1530415 	cmp	r3, r5, lsl r4
 c109cb4:	93a09000 	movls	r9, #0
 c109cb8:	82029001 	andhi	r9, r2, #1
 c109cbc:	e3590000 	cmp	r9, #0
 c109cc0:	0affff28 	beq	c109968 <__divdi3+0x110>
 c109cc4:	e2466001 	sub	r6, r6, #1
 c109cc8:	e3a09000 	mov	r9, #0
 c109ccc:	eaffff25 	b	c109968 <__divdi3+0x110>
 c109cd0:	e1520000 	cmp	r2, r0
 c109cd4:	82466001 	subhi	r6, r6, #1
 c109cd8:	8080000a 	addhi	r0, r0, sl
 c109cdc:	eaffffe1 	b	c109c68 <__divdi3+0x410>
 c109ce0:	e1520001 	cmp	r2, r1
 c109ce4:	82488001 	subhi	r8, r8, #1
 c109ce8:	8081100a 	addhi	r1, r1, sl
 c109cec:	eaffffc8 	b	c109c14 <__divdi3+0x3bc>
 c109cf0:	e1530006 	cmp	r3, r6
 c109cf4:	824bb001 	subhi	fp, fp, #1
 c109cf8:	80866004 	addhi	r6, r6, r4
 c109cfc:	eaffff8e 	b	c109b3c <__divdi3+0x2e4>

0c109d00 <__udivdi3>:
 c109d00:	e92d4ff0 	push	{r4, r5, r6, r7, r8, r9, sl, fp, lr}
 c109d04:	e2538000 	subs	r8, r3, #0
 c109d08:	e24dd00c 	sub	sp, sp, #12
 c109d0c:	e1a05000 	mov	r5, r0
 c109d10:	e1a04001 	mov	r4, r1
 c109d14:	e1a06002 	mov	r6, r2
 c109d18:	e1a0a002 	mov	sl, r2
 c109d1c:	e1a0b000 	mov	fp, r0
 c109d20:	e1a07001 	mov	r7, r1
 c109d24:	1a000037 	bne	c109e08 <__udivdi3+0x108>
 c109d28:	e1520001 	cmp	r2, r1
 c109d2c:	9a000045 	bls	c109e48 <__udivdi3+0x148>
 c109d30:	e1a00002 	mov	r0, r2
 c109d34:	eb0000fe 	bl	c10a134 <__clzsi2>
 c109d38:	e3500000 	cmp	r0, #0
 c109d3c:	12603020 	rsbne	r3, r0, #32
 c109d40:	11a03335 	lsrne	r3, r5, r3
 c109d44:	11a0a016 	lslne	sl, r6, r0
 c109d48:	11837014 	orrne	r7, r3, r4, lsl r0
 c109d4c:	e1a0482a 	lsr	r4, sl, #16
 c109d50:	11a0b015 	lslne	fp, r5, r0
 c109d54:	e1a01004 	mov	r1, r4
 c109d58:	e1a00007 	mov	r0, r7
 c109d5c:	ebfffdf6 	bl	c10953c <__aeabi_uidiv>
 c109d60:	e1a01004 	mov	r1, r4
 c109d64:	e1a08000 	mov	r8, r0
 c109d68:	e1a00007 	mov	r0, r7
 c109d6c:	ebfffe2f 	bl	c109630 <__aeabi_uidivmod>
 c109d70:	e1a0680a 	lsl	r6, sl, #16
 c109d74:	e1a06826 	lsr	r6, r6, #16
 c109d78:	e0030896 	mul	r3, r6, r8
 c109d7c:	e1a0782b 	lsr	r7, fp, #16
 c109d80:	e1877801 	orr	r7, r7, r1, lsl #16
 c109d84:	e1530007 	cmp	r3, r7
 c109d88:	9a000005 	bls	c109da4 <__udivdi3+0xa4>
 c109d8c:	e097700a 	adds	r7, r7, sl
 c109d90:	e2488001 	sub	r8, r8, #1
 c109d94:	2a000002 	bcs	c109da4 <__udivdi3+0xa4>
 c109d98:	e1530007 	cmp	r3, r7
 c109d9c:	82488001 	subhi	r8, r8, #1
 c109da0:	8087700a 	addhi	r7, r7, sl
 c109da4:	e0637007 	rsb	r7, r3, r7
 c109da8:	e1a01004 	mov	r1, r4
 c109dac:	e1a00007 	mov	r0, r7
 c109db0:	ebfffde1 	bl	c10953c <__aeabi_uidiv>
 c109db4:	e1a01004 	mov	r1, r4
 c109db8:	e1a05000 	mov	r5, r0
 c109dbc:	e1a00007 	mov	r0, r7
 c109dc0:	ebfffe1a 	bl	c109630 <__aeabi_uidivmod>
 c109dc4:	e0060695 	mul	r6, r5, r6
 c109dc8:	e1a0080b 	lsl	r0, fp, #16
 c109dcc:	e1a0b820 	lsr	fp, r0, #16
 c109dd0:	e18bb801 	orr	fp, fp, r1, lsl #16
 c109dd4:	e156000b 	cmp	r6, fp
 c109dd8:	9a000004 	bls	c109df0 <__udivdi3+0xf0>
 c109ddc:	e09bb00a 	adds	fp, fp, sl
 c109de0:	e2455001 	sub	r5, r5, #1
 c109de4:	2a000001 	bcs	c109df0 <__udivdi3+0xf0>
 c109de8:	e156000b 	cmp	r6, fp
 c109dec:	82455001 	subhi	r5, r5, #1
 c109df0:	e1858808 	orr	r8, r5, r8, lsl #16
 c109df4:	e3a01000 	mov	r1, #0
 c109df8:	e1a00008 	mov	r0, r8
 c109dfc:	e28dd00c 	add	sp, sp, #12
 c109e00:	e8bd4ff0 	pop	{r4, r5, r6, r7, r8, r9, sl, fp, lr}
 c109e04:	e12fff1e 	bx	lr
 c109e08:	e1580001 	cmp	r8, r1
 c109e0c:	83a01000 	movhi	r1, #0
 c109e10:	81a08001 	movhi	r8, r1
 c109e14:	8afffff7 	bhi	c109df8 <__udivdi3+0xf8>
 c109e18:	e1a00008 	mov	r0, r8
 c109e1c:	eb0000c4 	bl	c10a134 <__clzsi2>
 c109e20:	e2507000 	subs	r7, r0, #0
 c109e24:	1a00003e 	bne	c109f24 <__udivdi3+0x224>
 c109e28:	e1580004 	cmp	r8, r4
 c109e2c:	21560005 	cmpcs	r6, r5
 c109e30:	83a01000 	movhi	r1, #0
 c109e34:	93a01001 	movls	r1, #1
 c109e38:	93a08001 	movls	r8, #1
 c109e3c:	91a01007 	movls	r1, r7
 c109e40:	81a08001 	movhi	r8, r1
 c109e44:	eaffffeb 	b	c109df8 <__udivdi3+0xf8>
 c109e48:	e3520000 	cmp	r2, #0
 c109e4c:	1a000003 	bne	c109e60 <__udivdi3+0x160>
 c109e50:	e3a00001 	mov	r0, #1
 c109e54:	e1a01002 	mov	r1, r2
 c109e58:	ebfffdb7 	bl	c10953c <__aeabi_uidiv>
 c109e5c:	e1a0a000 	mov	sl, r0
 c109e60:	e1a0000a 	mov	r0, sl
 c109e64:	eb0000b2 	bl	c10a134 <__clzsi2>
 c109e68:	e2503000 	subs	r3, r0, #0
 c109e6c:	1a000075 	bne	c10a048 <__udivdi3+0x348>
 c109e70:	e1a0180a 	lsl	r1, sl, #16
 c109e74:	e06a4004 	rsb	r4, sl, r4
 c109e78:	e1a0982a 	lsr	r9, sl, #16
 c109e7c:	e1a06821 	lsr	r6, r1, #16
 c109e80:	e3a07001 	mov	r7, #1
 c109e84:	e1a01009 	mov	r1, r9
 c109e88:	e1a00004 	mov	r0, r4
 c109e8c:	ebfffdaa 	bl	c10953c <__aeabi_uidiv>
 c109e90:	e1a01009 	mov	r1, r9
 c109e94:	e1a05000 	mov	r5, r0
 c109e98:	e1a00004 	mov	r0, r4
 c109e9c:	ebfffde3 	bl	c109630 <__aeabi_uidivmod>
 c109ea0:	e0030596 	mul	r3, r6, r5
 c109ea4:	e1a0282b 	lsr	r2, fp, #16
 c109ea8:	e1824801 	orr	r4, r2, r1, lsl #16
 c109eac:	e1530004 	cmp	r3, r4
 c109eb0:	9a000005 	bls	c109ecc <__udivdi3+0x1cc>
 c109eb4:	e094400a 	adds	r4, r4, sl
 c109eb8:	e2455001 	sub	r5, r5, #1
 c109ebc:	2a000002 	bcs	c109ecc <__udivdi3+0x1cc>
 c109ec0:	e1530004 	cmp	r3, r4
 c109ec4:	82455001 	subhi	r5, r5, #1
 c109ec8:	8084400a 	addhi	r4, r4, sl
 c109ecc:	e0634004 	rsb	r4, r3, r4
 c109ed0:	e1a01009 	mov	r1, r9
 c109ed4:	e1a00004 	mov	r0, r4
 c109ed8:	ebfffd97 	bl	c10953c <__aeabi_uidiv>
 c109edc:	e1a01009 	mov	r1, r9
 c109ee0:	e1a08000 	mov	r8, r0
 c109ee4:	e1a00004 	mov	r0, r4
 c109ee8:	ebfffdd0 	bl	c109630 <__aeabi_uidivmod>
 c109eec:	e0060698 	mul	r6, r8, r6
 c109ef0:	e1a0b80b 	lsl	fp, fp, #16
 c109ef4:	e1a0382b 	lsr	r3, fp, #16
 c109ef8:	e183b801 	orr	fp, r3, r1, lsl #16
 c109efc:	e156000b 	cmp	r6, fp
 c109f00:	9a000004 	bls	c109f18 <__udivdi3+0x218>
 c109f04:	e09bb00a 	adds	fp, fp, sl
 c109f08:	e2488001 	sub	r8, r8, #1
 c109f0c:	2a000001 	bcs	c109f18 <__udivdi3+0x218>
 c109f10:	e156000b 	cmp	r6, fp
 c109f14:	82488001 	subhi	r8, r8, #1
 c109f18:	e1888805 	orr	r8, r8, r5, lsl #16
 c109f1c:	e1a01007 	mov	r1, r7
 c109f20:	eaffffb4 	b	c109df8 <__udivdi3+0xf8>
 c109f24:	e267a020 	rsb	sl, r7, #32
 c109f28:	e1a01a36 	lsr	r1, r6, sl
 c109f2c:	e1a02a35 	lsr	r2, r5, sl
 c109f30:	e1818718 	orr	r8, r1, r8, lsl r7
 c109f34:	e1a0ba34 	lsr	fp, r4, sl
 c109f38:	e1829714 	orr	r9, r2, r4, lsl r7
 c109f3c:	e1a0a828 	lsr	sl, r8, #16
 c109f40:	e1a0e808 	lsl	lr, r8, #16
 c109f44:	e1a0100a 	mov	r1, sl
 c109f48:	e1a0000b 	mov	r0, fp
 c109f4c:	e1a0482e 	lsr	r4, lr, #16
 c109f50:	e58d9004 	str	r9, [sp, #4]
 c109f54:	ebfffd78 	bl	c10953c <__aeabi_uidiv>
 c109f58:	e1a0100a 	mov	r1, sl
 c109f5c:	e1a09000 	mov	r9, r0
 c109f60:	e1a0000b 	mov	r0, fp
 c109f64:	ebfffdb1 	bl	c109630 <__aeabi_uidivmod>
 c109f68:	e0020994 	mul	r2, r4, r9
 c109f6c:	e59d0004 	ldr	r0, [sp, #4]
 c109f70:	e1a0c820 	lsr	ip, r0, #16
 c109f74:	e18cb801 	orr	fp, ip, r1, lsl #16
 c109f78:	e152000b 	cmp	r2, fp
 c109f7c:	e1a03716 	lsl	r3, r6, r7
 c109f80:	9a000002 	bls	c109f90 <__udivdi3+0x290>
 c109f84:	e09bb008 	adds	fp, fp, r8
 c109f88:	e2499001 	sub	r9, r9, #1
 c109f8c:	3a000060 	bcc	c10a114 <__udivdi3+0x414>
 c109f90:	e062b00b 	rsb	fp, r2, fp
 c109f94:	e1a0100a 	mov	r1, sl
 c109f98:	e1a0000b 	mov	r0, fp
 c109f9c:	e58d3000 	str	r3, [sp]
 c109fa0:	ebfffd65 	bl	c10953c <__aeabi_uidiv>
 c109fa4:	e1a0100a 	mov	r1, sl
 c109fa8:	e1a06000 	mov	r6, r0
 c109fac:	e1a0000b 	mov	r0, fp
 c109fb0:	ebfffd9e 	bl	c109630 <__aeabi_uidivmod>
 c109fb4:	e0040496 	mul	r4, r6, r4
 c109fb8:	e59d0004 	ldr	r0, [sp, #4]
 c109fbc:	e1a0c800 	lsl	ip, r0, #16
 c109fc0:	e1a0382c 	lsr	r3, ip, #16
 c109fc4:	e1832801 	orr	r2, r3, r1, lsl #16
 c109fc8:	e1540002 	cmp	r4, r2
 c109fcc:	e59d3000 	ldr	r3, [sp]
 c109fd0:	9a000002 	bls	c109fe0 <__udivdi3+0x2e0>
 c109fd4:	e0922008 	adds	r2, r2, r8
 c109fd8:	e2466001 	sub	r6, r6, #1
 c109fdc:	3a000048 	bcc	c10a104 <__udivdi3+0x404>
 c109fe0:	e0644002 	rsb	r4, r4, r2
 c109fe4:	e1868809 	orr	r8, r6, r9, lsl #16
 c109fe8:	e1a02828 	lsr	r2, r8, #16
 c109fec:	e1a0e823 	lsr	lr, r3, #16
 c109ff0:	e1c80802 	bic	r0, r8, r2, lsl #16
 c109ff4:	e1c3680e 	bic	r6, r3, lr, lsl #16
 c109ff8:	e0030690 	mul	r3, r0, r6
 c109ffc:	e0060692 	mul	r6, r2, r6
 c10a000:	e000009e 	mul	r0, lr, r0
 c10a004:	e00e0e92 	mul	lr, r2, lr
 c10a008:	e0960000 	adds	r0, r6, r0
 c10a00c:	228ee801 	addcs	lr, lr, #65536	; 0x10000
 c10a010:	e0933800 	adds	r3, r3, r0, lsl #16
 c10a014:	e0aee820 	adc	lr, lr, r0, lsr #16
 c10a018:	e154000e 	cmp	r4, lr
 c10a01c:	3a000006 	bcc	c10a03c <__udivdi3+0x33c>
 c10a020:	13a02000 	movne	r2, #0
 c10a024:	03a02001 	moveq	r2, #1
 c10a028:	e1530715 	cmp	r3, r5, lsl r7
 c10a02c:	93a01000 	movls	r1, #0
 c10a030:	82021001 	andhi	r1, r2, #1
 c10a034:	e3510000 	cmp	r1, #0
 c10a038:	0affff6e 	beq	c109df8 <__udivdi3+0xf8>
 c10a03c:	e2488001 	sub	r8, r8, #1
 c10a040:	e3a01000 	mov	r1, #0
 c10a044:	eaffff6b 	b	c109df8 <__udivdi3+0xf8>
 c10a048:	e2639020 	rsb	r9, r3, #32
 c10a04c:	e1a0a31a 	lsl	sl, sl, r3
 c10a050:	e1a07934 	lsr	r7, r4, r9
 c10a054:	e1a08935 	lsr	r8, r5, r9
 c10a058:	e1a0982a 	lsr	r9, sl, #16
 c10a05c:	e1a0280a 	lsl	r2, sl, #16
 c10a060:	e1a01009 	mov	r1, r9
 c10a064:	e1a00007 	mov	r0, r7
 c10a068:	e1888314 	orr	r8, r8, r4, lsl r3
 c10a06c:	e1a0b315 	lsl	fp, r5, r3
 c10a070:	e1a06822 	lsr	r6, r2, #16
 c10a074:	ebfffd30 	bl	c10953c <__aeabi_uidiv>
 c10a078:	e1a01009 	mov	r1, r9
 c10a07c:	e1a05000 	mov	r5, r0
 c10a080:	e1a00007 	mov	r0, r7
 c10a084:	ebfffd69 	bl	c109630 <__aeabi_uidivmod>
 c10a088:	e0030596 	mul	r3, r6, r5
 c10a08c:	e1a04828 	lsr	r4, r8, #16
 c10a090:	e1844801 	orr	r4, r4, r1, lsl #16
 c10a094:	e1530004 	cmp	r3, r4
 c10a098:	9a000002 	bls	c10a0a8 <__udivdi3+0x3a8>
 c10a09c:	e094400a 	adds	r4, r4, sl
 c10a0a0:	e2455001 	sub	r5, r5, #1
 c10a0a4:	3a00001e 	bcc	c10a124 <__udivdi3+0x424>
 c10a0a8:	e0634004 	rsb	r4, r3, r4
 c10a0ac:	e1a01009 	mov	r1, r9
 c10a0b0:	e1a00004 	mov	r0, r4
 c10a0b4:	ebfffd20 	bl	c10953c <__aeabi_uidiv>
 c10a0b8:	e1a01009 	mov	r1, r9
 c10a0bc:	e1a07000 	mov	r7, r0
 c10a0c0:	e1a00004 	mov	r0, r4
 c10a0c4:	ebfffd59 	bl	c109630 <__aeabi_uidivmod>
 c10a0c8:	e0030796 	mul	r3, r6, r7
 c10a0cc:	e1a00808 	lsl	r0, r8, #16
 c10a0d0:	e1a0c820 	lsr	ip, r0, #16
 c10a0d4:	e18c4801 	orr	r4, ip, r1, lsl #16
 c10a0d8:	e1530004 	cmp	r3, r4
 c10a0dc:	9a000005 	bls	c10a0f8 <__udivdi3+0x3f8>
 c10a0e0:	e094400a 	adds	r4, r4, sl
 c10a0e4:	e2477001 	sub	r7, r7, #1
 c10a0e8:	2a000002 	bcs	c10a0f8 <__udivdi3+0x3f8>
 c10a0ec:	e1530004 	cmp	r3, r4
 c10a0f0:	82477001 	subhi	r7, r7, #1
 c10a0f4:	8084400a 	addhi	r4, r4, sl
 c10a0f8:	e0634004 	rsb	r4, r3, r4
 c10a0fc:	e1877805 	orr	r7, r7, r5, lsl #16
 c10a100:	eaffff5f 	b	c109e84 <__udivdi3+0x184>
 c10a104:	e1540002 	cmp	r4, r2
 c10a108:	82466001 	subhi	r6, r6, #1
 c10a10c:	80822008 	addhi	r2, r2, r8
 c10a110:	eaffffb2 	b	c109fe0 <__udivdi3+0x2e0>
 c10a114:	e152000b 	cmp	r2, fp
 c10a118:	82499001 	subhi	r9, r9, #1
 c10a11c:	808bb008 	addhi	fp, fp, r8
 c10a120:	eaffff9a 	b	c109f90 <__udivdi3+0x290>
 c10a124:	e1530004 	cmp	r3, r4
 c10a128:	82455001 	subhi	r5, r5, #1
 c10a12c:	8084400a 	addhi	r4, r4, sl
 c10a130:	eaffffdc 	b	c10a0a8 <__udivdi3+0x3a8>

0c10a134 <__clzsi2>:
 c10a134:	e3a0101c 	mov	r1, #28
 c10a138:	e3500801 	cmp	r0, #65536	; 0x10000
 c10a13c:	21a00820 	lsrcs	r0, r0, #16
 c10a140:	22411010 	subcs	r1, r1, #16
 c10a144:	e3500c01 	cmp	r0, #256	; 0x100
 c10a148:	21a00420 	lsrcs	r0, r0, #8
 c10a14c:	22411008 	subcs	r1, r1, #8
 c10a150:	e3500010 	cmp	r0, #16
 c10a154:	21a00220 	lsrcs	r0, r0, #4
 c10a158:	22411004 	subcs	r1, r1, #4
 c10a15c:	e28f2008 	add	r2, pc, #8
 c10a160:	e7d20000 	ldrb	r0, [r2, r0]
 c10a164:	e0800001 	add	r0, r0, r1
 c10a168:	e12fff1e 	bx	lr
 c10a16c:	02020304 	.word	0x02020304
 c10a170:	01010101 	.word	0x01010101
	...
