
proyecto.elf:     file format elf32-littlearm

Sections:
Idx Name          Size      VMA       LMA       File off  Algn
  0 .text         000073c0  0c100000  0c100000  00008000  2**2
                  CONTENTS, ALLOC, LOAD, READONLY, CODE
  1 .rodata       000017c0  0c1073c0  0c1073c0  0000f3c0  2**2
                  CONTENTS, ALLOC, LOAD, READONLY, DATA
  2 .ARM.exidx    00000008  0c108b80  0c108b80  00010b80  2**2
                  CONTENTS, ALLOC, LOAD, READONLY, DATA
  3 .data         00000014  0c108b88  0c108b88  00010b88  2**2
                  CONTENTS, ALLOC, LOAD, DATA
  4 .lcdbuffer    00009600  0c108b9c  0c108b9c  00010b9c  2**2
                  CONTENTS, ALLOC, LOAD, DATA
  5 .bss          0000010d  0c11219c  0c11219c  0001a19c  2**2
                  ALLOC
  6 .debug_abbrev 00000c8e  00000000  00000000  0001a19c  2**0
                  CONTENTS, READONLY, DEBUGGING
  7 .debug_info   0000270f  00000000  00000000  0001ae2a  2**0
                  CONTENTS, READONLY, DEBUGGING
  8 .debug_line   00001171  00000000  00000000  0001d539  2**0
                  CONTENTS, READONLY, DEBUGGING
  9 .debug_macinfo 00040bba  00000000  00000000  0001e6aa  2**0
                  CONTENTS, READONLY, DEBUGGING
 10 .debug_loc    00001810  00000000  00000000  0005f264  2**0
                  CONTENTS, READONLY, DEBUGGING
 11 .debug_pubnames 00000a06  00000000  00000000  00060a74  2**0
                  CONTENTS, READONLY, DEBUGGING
 12 .debug_pubtypes 000002d8  00000000  00000000  0006147a  2**0
                  CONTENTS, READONLY, DEBUGGING
 13 .debug_aranges 000001a0  00000000  00000000  00061752  2**0
                  CONTENTS, READONLY, DEBUGGING
 14 .debug_str    00000b6c  00000000  00000000  000618f2  2**0
                  CONTENTS, READONLY, DEBUGGING
 15 .comment      0000002a  00000000  00000000  0006245e  2**0
                  CONTENTS, READONLY
 16 .ARM.attributes 00000032  00000000  00000000  00062488  2**0
                  CONTENTS, READONLY
 17 .debug_frame  00001570  00000000  00000000  000624bc  2**2
                  CONTENTS, READONLY, DEBUGGING

Disassembly of section .text:

0c100000 <delete_task>:
#include <s3c44b0x.h>

static task_t tasks[MAX_TASKS];   /* Lista ordenada de TCBs */

void delete_task( uint32 id )
{
 c100000:	e1a0c00d 	mov	ip, sp
 c100004:	e92dd800 	push	{fp, ip, lr, pc}
 c100008:	e24cb004 	sub	fp, ip, #4
 c10000c:	e24dd008 	sub	sp, sp, #8
 c100010:	e50b0010 	str	r0, [fp, #-16]
    tasks[id].pfunction = NULL;
 c100014:	e59f3074 	ldr	r3, [pc, #116]	; c100090 <_code_start+0x90>
 c100018:	e51b2010 	ldr	r2, [fp, #-16]
 c10001c:	e3a01000 	mov	r1, #0
 c100020:	e7831202 	str	r1, [r3, r2, lsl #4]
    tasks[id].period = 0; 
 c100024:	e59f1064 	ldr	r1, [pc, #100]	; c100090 <_code_start+0x90>
 c100028:	e51b2010 	ldr	r2, [fp, #-16]
 c10002c:	e3a03004 	mov	r3, #4
 c100030:	e1a02202 	lsl	r2, r2, #4
 c100034:	e0812002 	add	r2, r1, r2
 c100038:	e0823003 	add	r3, r2, r3
 c10003c:	e3a02000 	mov	r2, #0
 c100040:	e5832000 	str	r2, [r3]
    tasks[id].ticks = 0;
 c100044:	e59f1044 	ldr	r1, [pc, #68]	; c100090 <_code_start+0x90>
 c100048:	e51b2010 	ldr	r2, [fp, #-16]
 c10004c:	e3a03008 	mov	r3, #8
 c100050:	e1a02202 	lsl	r2, r2, #4
 c100054:	e0812002 	add	r2, r1, r2
 c100058:	e0823003 	add	r3, r2, r3
 c10005c:	e3a02000 	mov	r2, #0
 c100060:	e5832000 	str	r2, [r3]
    tasks[id].ready = FALSE;     
 c100064:	e59f1024 	ldr	r1, [pc, #36]	; c100090 <_code_start+0x90>
 c100068:	e51b2010 	ldr	r2, [fp, #-16]
 c10006c:	e3a03008 	mov	r3, #8
 c100070:	e1a02202 	lsl	r2, r2, #4
 c100074:	e0812002 	add	r2, r1, r2
 c100078:	e0823003 	add	r3, r2, r3
 c10007c:	e3a02000 	mov	r2, #0
 c100080:	e5c32004 	strb	r2, [r3, #4]
}
 c100084:	e24bd00c 	sub	sp, fp, #12
 c100088:	e89d6800 	ldm	sp, {fp, sp, lr}
 c10008c:	e12fff1e 	bx	lr
 c100090:	0c11219c 	.word	0x0c11219c

0c100094 <create_task>:

uint32 create_task( void (*pfunction)( void ), uint32 period )
{
 c100094:	e1a0c00d 	mov	ip, sp
 c100098:	e92dd800 	push	{fp, ip, lr, pc}
 c10009c:	e24cb004 	sub	fp, ip, #4
 c1000a0:	e24dd010 	sub	sp, sp, #16
 c1000a4:	e50b0018 	str	r0, [fp, #-24]	; 0xffffffe8
 c1000a8:	e50b101c 	str	r1, [fp, #-28]	; 0xffffffe4
    uint32 id;
    
    for( id=0; id<MAX_TASKS && tasks[id].pfunction ; id++ ); /* Busca la primera entrada libre (con función no NULL) de la lista de TCB */
 c1000ac:	e3a03000 	mov	r3, #0
 c1000b0:	e50b3010 	str	r3, [fp, #-16]
 c1000b4:	ea000002 	b	c1000c4 <create_task+0x30>
 c1000b8:	e51b3010 	ldr	r3, [fp, #-16]
 c1000bc:	e2833001 	add	r3, r3, #1
 c1000c0:	e50b3010 	str	r3, [fp, #-16]
 c1000c4:	e51b3010 	ldr	r3, [fp, #-16]
 c1000c8:	e3530009 	cmp	r3, #9
 c1000cc:	8a000004 	bhi	c1000e4 <create_task+0x50>
 c1000d0:	e59f309c 	ldr	r3, [pc, #156]	; c100174 <create_task+0xe0>
 c1000d4:	e51b2010 	ldr	r2, [fp, #-16]
 c1000d8:	e7933202 	ldr	r3, [r3, r2, lsl #4]
 c1000dc:	e3530000 	cmp	r3, #0
 c1000e0:	1afffff4 	bne	c1000b8 <create_task+0x24>
    
    tasks[id].pfunction = pfunction;
 c1000e4:	e59f3088 	ldr	r3, [pc, #136]	; c100174 <create_task+0xe0>
 c1000e8:	e51b2010 	ldr	r2, [fp, #-16]
 c1000ec:	e51b1018 	ldr	r1, [fp, #-24]	; 0xffffffe8
 c1000f0:	e7831202 	str	r1, [r3, r2, lsl #4]
    tasks[id].period = period; 
 c1000f4:	e59f1078 	ldr	r1, [pc, #120]	; c100174 <create_task+0xe0>
 c1000f8:	e51b2010 	ldr	r2, [fp, #-16]
 c1000fc:	e3a03004 	mov	r3, #4
 c100100:	e1a02202 	lsl	r2, r2, #4
 c100104:	e0812002 	add	r2, r1, r2
 c100108:	e0823003 	add	r3, r2, r3
 c10010c:	e51b201c 	ldr	r2, [fp, #-28]	; 0xffffffe4
 c100110:	e5832000 	str	r2, [r3]
    tasks[id].ticks = 0;
 c100114:	e59f1058 	ldr	r1, [pc, #88]	; c100174 <create_task+0xe0>
 c100118:	e51b2010 	ldr	r2, [fp, #-16]
 c10011c:	e3a03008 	mov	r3, #8
 c100120:	e1a02202 	lsl	r2, r2, #4
 c100124:	e0812002 	add	r2, r1, r2
 c100128:	e0823003 	add	r3, r2, r3
 c10012c:	e3a02000 	mov	r2, #0
 c100130:	e5832000 	str	r2, [r3]
    tasks[id].ready = FALSE;     
 c100134:	e59f1038 	ldr	r1, [pc, #56]	; c100174 <create_task+0xe0>
 c100138:	e51b2010 	ldr	r2, [fp, #-16]
 c10013c:	e3a03008 	mov	r3, #8
 c100140:	e1a02202 	lsl	r2, r2, #4
 c100144:	e0812002 	add	r2, r1, r2
 c100148:	e0823003 	add	r3, r2, r3
 c10014c:	e3a02000 	mov	r2, #0
 c100150:	e5c32004 	strb	r2, [r3, #4]
        
    (*pfunction)();     /* Asume que la primera llamada a la tarea la inicializa */
 c100154:	e51b3018 	ldr	r3, [fp, #-24]	; 0xffffffe8
 c100158:	e1a0e00f 	mov	lr, pc
 c10015c:	e12fff13 	bx	r3

    return id;    
 c100160:	e51b3010 	ldr	r3, [fp, #-16]
}
 c100164:	e1a00003 	mov	r0, r3
 c100168:	e24bd00c 	sub	sp, fp, #12
 c10016c:	e89d6800 	ldm	sp, {fp, sp, lr}
 c100170:	e12fff1e 	bx	lr
 c100174:	0c11219c 	.word	0x0c11219c

0c100178 <scheduler_init>:

void scheduler_init( void )
{
 c100178:	e1a0c00d 	mov	ip, sp
 c10017c:	e92dd800 	push	{fp, ip, lr, pc}
 c100180:	e24cb004 	sub	fp, ip, #4
 c100184:	e24dd008 	sub	sp, sp, #8
    uint32 id;
    
    for( id=0; id<MAX_TASKS; id++ )
 c100188:	e3a03000 	mov	r3, #0
 c10018c:	e50b3010 	str	r3, [fp, #-16]
 c100190:	ea000004 	b	c1001a8 <scheduler_init+0x30>
        delete_task( id );
 c100194:	e51b0010 	ldr	r0, [fp, #-16]
 c100198:	ebffff98 	bl	c100000 <delete_task>

void scheduler_init( void )
{
    uint32 id;
    
    for( id=0; id<MAX_TASKS; id++ )
 c10019c:	e51b3010 	ldr	r3, [fp, #-16]
 c1001a0:	e2833001 	add	r3, r3, #1
 c1001a4:	e50b3010 	str	r3, [fp, #-16]
 c1001a8:	e51b3010 	ldr	r3, [fp, #-16]
 c1001ac:	e3530009 	cmp	r3, #9
 c1001b0:	9afffff7 	bls	c100194 <scheduler_init+0x1c>
        delete_task( id );
};
 c1001b4:	e24bd00c 	sub	sp, fp, #12
 c1001b8:	e89d6800 	ldm	sp, {fp, sp, lr}
 c1001bc:	e12fff1e 	bx	lr

0c1001c0 <scheduler>:

void scheduler( void ) /* Esta funcion es la ISR del timer0 */
{
 c1001c0:	e52dc004 	push	{ip}		; (str ip, [sp, #-4]!)
 c1001c4:	e1a0c00d 	mov	ip, sp
 c1001c8:	e92dd80f 	push	{r0, r1, r2, r3, fp, ip, lr, pc}
 c1001cc:	e24cb004 	sub	fp, ip, #4
 c1001d0:	e24dd008 	sub	sp, sp, #8
    uint32 id;
    
    I_ISPC = BIT_TIMER0;    /* Borra el bit de interrupción pendiente */
 c1001d4:	e59f3108 	ldr	r3, [pc, #264]	; c1002e4 <scheduler+0x124>
 c1001d8:	e3a02a02 	mov	r2, #8192	; 0x2000
 c1001dc:	e5832000 	str	r2, [r3]

    for( id=0; id<MAX_TASKS; id++ )                     /* Recorre la lista completa de TCB */
 c1001e0:	e3a03000 	mov	r3, #0
 c1001e4:	e50b3020 	str	r3, [fp, #-32]	; 0xffffffe0
 c1001e8:	ea000036 	b	c1002c8 <scheduler+0x108>
        if( tasks[id].pfunction )
 c1001ec:	e59f30f4 	ldr	r3, [pc, #244]	; c1002e8 <scheduler+0x128>
 c1001f0:	e51b2020 	ldr	r2, [fp, #-32]	; 0xffffffe0
 c1001f4:	e7933202 	ldr	r3, [r3, r2, lsl #4]
 c1001f8:	e3530000 	cmp	r3, #0
 c1001fc:	0a00002e 	beq	c1002bc <scheduler+0xfc>
            if( ++tasks[id].ticks == tasks[id].period ) /* Si el contador de ticks equivale a su periodo de ejecución: */
 c100200:	e59f10e0 	ldr	r1, [pc, #224]	; c1002e8 <scheduler+0x128>
 c100204:	e51b2020 	ldr	r2, [fp, #-32]	; 0xffffffe0
 c100208:	e3a03008 	mov	r3, #8
 c10020c:	e1a02202 	lsl	r2, r2, #4
 c100210:	e0812002 	add	r2, r1, r2
 c100214:	e0823003 	add	r3, r2, r3
 c100218:	e5933000 	ldr	r3, [r3]
 c10021c:	e2832001 	add	r2, r3, #1
 c100220:	e59f00c0 	ldr	r0, [pc, #192]	; c1002e8 <scheduler+0x128>
 c100224:	e51b1020 	ldr	r1, [fp, #-32]	; 0xffffffe0
 c100228:	e3a03008 	mov	r3, #8
 c10022c:	e1a01201 	lsl	r1, r1, #4
 c100230:	e0801001 	add	r1, r0, r1
 c100234:	e0813003 	add	r3, r1, r3
 c100238:	e5832000 	str	r2, [r3]
 c10023c:	e59f10a4 	ldr	r1, [pc, #164]	; c1002e8 <scheduler+0x128>
 c100240:	e51b2020 	ldr	r2, [fp, #-32]	; 0xffffffe0
 c100244:	e3a03008 	mov	r3, #8
 c100248:	e1a02202 	lsl	r2, r2, #4
 c10024c:	e0812002 	add	r2, r1, r2
 c100250:	e0823003 	add	r3, r2, r3
 c100254:	e5932000 	ldr	r2, [r3]
 c100258:	e59f0088 	ldr	r0, [pc, #136]	; c1002e8 <scheduler+0x128>
 c10025c:	e51b1020 	ldr	r1, [fp, #-32]	; 0xffffffe0
 c100260:	e3a03004 	mov	r3, #4
 c100264:	e1a01201 	lsl	r1, r1, #4
 c100268:	e0801001 	add	r1, r0, r1
 c10026c:	e0813003 	add	r3, r1, r3
 c100270:	e5933000 	ldr	r3, [r3]
 c100274:	e1520003 	cmp	r2, r3
 c100278:	1a00000f 	bne	c1002bc <scheduler+0xfc>
            {
                tasks[id].ticks = 0;                    /* Inicializa a 0 su contador de ticks */
 c10027c:	e59f1064 	ldr	r1, [pc, #100]	; c1002e8 <scheduler+0x128>
 c100280:	e51b2020 	ldr	r2, [fp, #-32]	; 0xffffffe0
 c100284:	e3a03008 	mov	r3, #8
 c100288:	e1a02202 	lsl	r2, r2, #4
 c10028c:	e0812002 	add	r2, r1, r2
 c100290:	e0823003 	add	r3, r2, r3
 c100294:	e3a02000 	mov	r2, #0
 c100298:	e5832000 	str	r2, [r3]
                tasks[id].ready = TRUE;                 /* Pasa la tarea a estado "preparado" */
 c10029c:	e59f1044 	ldr	r1, [pc, #68]	; c1002e8 <scheduler+0x128>
 c1002a0:	e51b2020 	ldr	r2, [fp, #-32]	; 0xffffffe0
 c1002a4:	e3a03008 	mov	r3, #8
 c1002a8:	e1a02202 	lsl	r2, r2, #4
 c1002ac:	e0812002 	add	r2, r1, r2
 c1002b0:	e0823003 	add	r3, r2, r3
 c1002b4:	e3a02001 	mov	r2, #1
 c1002b8:	e5c32004 	strb	r2, [r3, #4]
{
    uint32 id;
    
    I_ISPC = BIT_TIMER0;    /* Borra el bit de interrupción pendiente */

    for( id=0; id<MAX_TASKS; id++ )                     /* Recorre la lista completa de TCB */
 c1002bc:	e51b3020 	ldr	r3, [fp, #-32]	; 0xffffffe0
 c1002c0:	e2833001 	add	r3, r3, #1
 c1002c4:	e50b3020 	str	r3, [fp, #-32]	; 0xffffffe0
 c1002c8:	e51b3020 	ldr	r3, [fp, #-32]	; 0xffffffe0
 c1002cc:	e3530009 	cmp	r3, #9
 c1002d0:	9affffc5 	bls	c1001ec <scheduler+0x2c>
            if( ++tasks[id].ticks == tasks[id].period ) /* Si el contador de ticks equivale a su periodo de ejecución: */
            {
                tasks[id].ticks = 0;                    /* Inicializa a 0 su contador de ticks */
                tasks[id].ready = TRUE;                 /* Pasa la tarea a estado "preparado" */
            };
};
 c1002d4:	e24bd01c 	sub	sp, fp, #28
 c1002d8:	e89d680f 	ldm	sp, {r0, r1, r2, r3, fp, sp, lr}
 c1002dc:	e49dc004 	pop	{ip}		; (ldr ip, [sp], #4)
 c1002e0:	e25ef004 	subs	pc, lr, #4
 c1002e4:	01e00024 	.word	0x01e00024
 c1002e8:	0c11219c 	.word	0x0c11219c

0c1002ec <dispacher>:
    
void dispacher( void )
{
 c1002ec:	e1a0c00d 	mov	ip, sp
 c1002f0:	e92dd800 	push	{fp, ip, lr, pc}
 c1002f4:	e24cb004 	sub	fp, ip, #4
 c1002f8:	e24dd008 	sub	sp, sp, #8
    uint32 id;
    
    for( id=0; id<MAX_TASKS; id++ )                     /* Recorre la lista completa de TCB */
 c1002fc:	e3a03000 	mov	r3, #0
 c100300:	e50b3010 	str	r3, [fp, #-16]
 c100304:	ea000018 	b	c10036c <dispacher+0x80>
        if( tasks[id].ready == TRUE )                   /* Si la tarea está en estado "preparado": */
 c100308:	e59f1074 	ldr	r1, [pc, #116]	; c100384 <dispacher+0x98>
 c10030c:	e51b2010 	ldr	r2, [fp, #-16]
 c100310:	e3a03008 	mov	r3, #8
 c100314:	e1a02202 	lsl	r2, r2, #4
 c100318:	e0812002 	add	r2, r1, r2
 c10031c:	e0823003 	add	r3, r2, r3
 c100320:	e5d33004 	ldrb	r3, [r3, #4]
 c100324:	e3530001 	cmp	r3, #1
 c100328:	1a00000c 	bne	c100360 <dispacher+0x74>
        {
            (*tasks[id].pfunction)();                   /* La ejecuta */
 c10032c:	e59f3050 	ldr	r3, [pc, #80]	; c100384 <dispacher+0x98>
 c100330:	e51b2010 	ldr	r2, [fp, #-16]
 c100334:	e7933202 	ldr	r3, [r3, r2, lsl #4]
 c100338:	e1a0e00f 	mov	lr, pc
 c10033c:	e12fff13 	bx	r3
            tasks[id].ready = FALSE;                    /* Pasa la tarea a estado "no preparado" */
 c100340:	e59f103c 	ldr	r1, [pc, #60]	; c100384 <dispacher+0x98>
 c100344:	e51b2010 	ldr	r2, [fp, #-16]
 c100348:	e3a03008 	mov	r3, #8
 c10034c:	e1a02202 	lsl	r2, r2, #4
 c100350:	e0812002 	add	r2, r1, r2
 c100354:	e0823003 	add	r3, r2, r3
 c100358:	e3a02000 	mov	r2, #0
 c10035c:	e5c32004 	strb	r2, [r3, #4]
    
void dispacher( void )
{
    uint32 id;
    
    for( id=0; id<MAX_TASKS; id++ )                     /* Recorre la lista completa de TCB */
 c100360:	e51b3010 	ldr	r3, [fp, #-16]
 c100364:	e2833001 	add	r3, r3, #1
 c100368:	e50b3010 	str	r3, [fp, #-16]
 c10036c:	e51b3010 	ldr	r3, [fp, #-16]
 c100370:	e3530009 	cmp	r3, #9
 c100374:	9affffe3 	bls	c100308 <dispacher+0x1c>
        if( tasks[id].ready == TRUE )                   /* Si la tarea está en estado "preparado": */
        {
            (*tasks[id].pfunction)();                   /* La ejecuta */
            tasks[id].ready = FALSE;                    /* Pasa la tarea a estado "no preparado" */
        }
};
 c100378:	e24bd00c 	sub	sp, fp, #12
 c10037c:	e89d6800 	ldm	sp, {fp, sp, lr}
 c100380:	e12fff1e 	bx	lr
 c100384:	0c11219c 	.word	0x0c11219c

0c100388 <main>:
boolean printTicketFlag;    /* mailbox donde la mainTask indica a ticketPrintTask que imprima un ticket */

/*******************************************************************/

void main( void )
{
 c100388:	e1a0c00d 	mov	ip, sp
 c10038c:	e92dd800 	push	{fp, ip, lr, pc}
 c100390:	e24cb004 	sub	fp, ip, #4
    
    sys_init();      
 c100394:	eb000b74 	bl	c10316c <sys_init>
    leds_init();
 c100398:	eb00080c 	bl	c1023d0 <leds_init>
    segs_init();
 c10039c:	eb000b35 	bl	c103078 <segs_init>
    uart0_init();
 c1003a0:	eb0016da 	bl	c105f10 <uart0_init>
    rtc_init();
 c1003a4:	eb0008e8 	bl	c10274c <rtc_init>
    timers_init();
 c1003a8:	eb001175 	bl	c104984 <timers_init>
    keypad_init();
 c1003ac:	eb0002cf 	bl	c100ef0 <keypad_init>
    lcd_init();
 c1003b0:	eb00030d 	bl	c100fec <lcd_init>
    ts_init();
 c1003b4:	eb00167d 	bl	c105db0 <ts_init>

    lcd_on();
 c1003b8:	eb000377 	bl	c10119c <lcd_on>
    ts_on();
 c1003bc:	eb001425 	bl	c105458 <ts_on>

    setup();
 c1003c0:	eb000170 	bl	c100988 <setup>

    scheduler_init();                       /* Inicializa el kernel */
 c1003c4:	ebffff6b 	bl	c100178 <scheduler_init>

    create_task( tsScanTask,          5 );    /* Crea las tareas de la aplicacion... */
 c1003c8:	e59f0058 	ldr	r0, [pc, #88]	; c100428 <main+0xa0>
 c1003cc:	e3a01005 	mov	r1, #5
 c1003d0:	ebffff2f 	bl	c100094 <create_task>
    create_task( coinsAcceptorTask,   5 );    /* ... el kernel asigna la prioridad segun orden de creacion */
 c1003d4:	e59f0050 	ldr	r0, [pc, #80]	; c10042c <main+0xa4>
 c1003d8:	e3a01005 	mov	r1, #5
 c1003dc:	ebffff2c 	bl	c100094 <create_task>
    create_task( mainTask,           10 );    /* ... las tareas mas frecuentes tienen mayor prioridad (criterio Rate-Monotonic-Scheduling) */
 c1003e0:	e59f0048 	ldr	r0, [pc, #72]	; c100430 <main+0xa8>
 c1003e4:	e3a0100a 	mov	r1, #10
 c1003e8:	ebffff29 	bl	c100094 <create_task>
    create_task( coinsMoverTask,     10 );
 c1003ec:	e59f0040 	ldr	r0, [pc, #64]	; c100434 <main+0xac>
 c1003f0:	e3a0100a 	mov	r1, #10
 c1003f4:	ebffff26 	bl	c100094 <create_task>
    create_task( clockTask,          10 );
 c1003f8:	e59f0038 	ldr	r0, [pc, #56]	; c100438 <main+0xb0>
 c1003fc:	e3a0100a 	mov	r1, #10
 c100400:	ebffff23 	bl	c100094 <create_task>
    create_task( ticketPrinterTask,  10 );
 c100404:	e59f0030 	ldr	r0, [pc, #48]	; c10043c <main+0xb4>
 c100408:	e3a0100a 	mov	r1, #10
 c10040c:	ebffff20 	bl	c100094 <create_task>

    timer0_open_tick( scheduler, TICKS_PER_SEC );  /* Instala scheduler como RTI del timer0  */
 c100410:	e59f0028 	ldr	r0, [pc, #40]	; c100440 <main+0xb8>
 c100414:	e3a01064 	mov	r1, #100	; 0x64
 c100418:	eb00130a 	bl	c105048 <timer0_open_tick>

    while( 1 )
    {
        sleep();                /* Entra en estado IDLE, sale por interrupcion */
 c10041c:	eb001147 	bl	c104940 <sleep>
        dispacher();            /* Las tareas preparadas se ejecutan en esta hebra (background) en orden de prioridad */
 c100420:	ebffffb1 	bl	c1002ec <dispacher>
    }
 c100424:	eafffffc 	b	c10041c <main+0x94>
 c100428:	0c100674 	.word	0x0c100674
 c10042c:	0c100760 	.word	0x0c100760
 c100430:	0c100444 	.word	0x0c100444
 c100434:	0c100858 	.word	0x0c100858
 c100438:	0c10065c 	.word	0x0c10065c
 c10043c:	0c100644 	.word	0x0c100644
 c100440:	0c1001c0 	.word	0x0c1001c0

0c100444 <mainTask>:

/* 
** Tarea principal, se activa cada 100 ms muestreando los mensajes enviados de otras tareas y actuando en consecuencia  
*/
void mainTask( void )  
{
 c100444:	e1a0c00d 	mov	ip, sp
 c100448:	e92dd800 	push	{fp, ip, lr, pc}
 c10044c:	e24cb004 	sub	fp, ip, #4
    static boolean init = TRUE;
    static enum { demo_waiting, demo_acceptCoins } state;
    static uint16 credit;
    static uint16 ticks;

    if( init )
 c100450:	e59f31d0 	ldr	r3, [pc, #464]	; c100628 <mainTask+0x1e4>
 c100454:	e5d33000 	ldrb	r3, [r3]
 c100458:	e3530000 	cmp	r3, #0
 c10045c:	0a00000a 	beq	c10048c <mainTask+0x48>
    {
        init   = FALSE;
 c100460:	e59f31c0 	ldr	r3, [pc, #448]	; c100628 <mainTask+0x1e4>
 c100464:	e3a02000 	mov	r2, #0
 c100468:	e5c32000 	strb	r2, [r3]
        plotWelcomeScreen();
 c10046c:	eb000167 	bl	c100a10 <plotWelcomeScreen>
        credit = 0;
 c100470:	e59f31b4 	ldr	r3, [pc, #436]	; c10062c <mainTask+0x1e8>
 c100474:	e3a02000 	mov	r2, #0
 c100478:	e1c320b0 	strh	r2, [r3]
        state = demo_waiting;
 c10047c:	e59f31ac 	ldr	r3, [pc, #428]	; c100630 <mainTask+0x1ec>
 c100480:	e3a02000 	mov	r2, #0
 c100484:	e5c32000 	strb	r2, [r3]
 c100488:	ea000063 	b	c10061c <mainTask+0x1d8>
    }
    else switch( state )
 c10048c:	e59f319c 	ldr	r3, [pc, #412]	; c100630 <mainTask+0x1ec>
 c100490:	e5d33000 	ldrb	r3, [r3]
 c100494:	e3530000 	cmp	r3, #0
 c100498:	0a000002 	beq	c1004a8 <mainTask+0x64>
 c10049c:	e3530001 	cmp	r3, #1
 c1004a0:	0a00001c 	beq	c100518 <mainTask+0xd4>
 c1004a4:	ea00005c 	b	c10061c <mainTask+0x1d8>
    {
        case demo_waiting:                        /* Estado en donde rechaza monedas y espera la pulsacion de la pantalla */
            if( tsPressedMsg.flag )                    /* Chequea si se ha pulsado la pantalla (mensaje recibido de la tarea tsPressedTask) */
 c1004a8:	e59f3184 	ldr	r3, [pc, #388]	; c100634 <mainTask+0x1f0>
 c1004ac:	e5d33000 	ldrb	r3, [r3]
 c1004b0:	e3530000 	cmp	r3, #0
 c1004b4:	0a000009 	beq	c1004e0 <mainTask+0x9c>
            {
                tsPressedMsg.flag = FALSE;                 /* Marca el mensaje como leido */
 c1004b8:	e59f3174 	ldr	r3, [pc, #372]	; c100634 <mainTask+0x1f0>
 c1004bc:	e3a02000 	mov	r2, #0
 c1004c0:	e5c32000 	strb	r2, [r3]
                lcd_clear();                               /* Borra pantalla */
 c1004c4:	eb00035c 	bl	c10123c <lcd_clear>
                state = demo_acceptCoins;                  /* Salta al estado demo_acceptCoins ... */
 c1004c8:	e59f3160 	ldr	r3, [pc, #352]	; c100630 <mainTask+0x1ec>
 c1004cc:	e3a02001 	mov	r2, #1
 c1004d0:	e5c32000 	strb	r2, [r3]
                ticks = 500;                               /* ... en el que debera permanecer un maximo de 500 ticks sin no hay actividad */
 c1004d4:	e59f315c 	ldr	r3, [pc, #348]	; c100638 <mainTask+0x1f4>
 c1004d8:	e3a02f7d 	mov	r2, #500	; 0x1f4
 c1004dc:	e1c320b0 	strh	r2, [r3]
            }    
            if( coinAcceptorMsg.flag )                /* Chequea si se ha introducido una moneda (mensaje recibido de la tarea coinAcceptorTask) */
 c1004e0:	e59f3154 	ldr	r3, [pc, #340]	; c10063c <mainTask+0x1f8>
 c1004e4:	e5d33000 	ldrb	r3, [r3]
 c1004e8:	e3530000 	cmp	r3, #0
 c1004ec:	0a000047 	beq	c100610 <mainTask+0x1cc>
            {
                coinAcceptorMsg.flag = FALSE;              /* Marca el mensaje como leido */
 c1004f0:	e59f3144 	ldr	r3, [pc, #324]	; c10063c <mainTask+0x1f8>
 c1004f4:	e3a02000 	mov	r2, #0
 c1004f8:	e5c32000 	strb	r2, [r3]
                coinsMoverMsg.accept = FALSE;              /* Envia un mensaje para que la moneda se devuelva */
 c1004fc:	e59f313c 	ldr	r3, [pc, #316]	; c100640 <mainTask+0x1fc>
 c100500:	e3a02000 	mov	r2, #0
 c100504:	e5c32001 	strb	r2, [r3, #1]
                coinsMoverMsg.flag   = TRUE;
 c100508:	e59f3130 	ldr	r3, [pc, #304]	; c100640 <mainTask+0x1fc>
 c10050c:	e3a02001 	mov	r2, #1
 c100510:	e5c32000 	strb	r2, [r3]
            }    
            break;
 c100514:	ea000040 	b	c10061c <mainTask+0x1d8>
        case demo_acceptCoins:                    /* Estado en deonde acepta monedas y espera la pulsacion de la pantalla durante un tiempo maximo */
            if( !(--ticks) )                           /* Decrementa ticks y chequea si ha permanecido en este estado el tiempo maximo */
 c100518:	e59f3118 	ldr	r3, [pc, #280]	; c100638 <mainTask+0x1f4>
 c10051c:	e1d330b0 	ldrh	r3, [r3]
 c100520:	e2433001 	sub	r3, r3, #1
 c100524:	e1a03803 	lsl	r3, r3, #16
 c100528:	e1a02823 	lsr	r2, r3, #16
 c10052c:	e59f3104 	ldr	r3, [pc, #260]	; c100638 <mainTask+0x1f4>
 c100530:	e1c320b0 	strh	r2, [r3]
 c100534:	e59f30fc 	ldr	r3, [pc, #252]	; c100638 <mainTask+0x1f4>
 c100538:	e1d330b0 	ldrh	r3, [r3]
 c10053c:	e3530000 	cmp	r3, #0
 c100540:	1a000003 	bne	c100554 <mainTask+0x110>
            {
                plotWelcomeScreen();                       /* Visualiza pantalla inicial */
 c100544:	eb000131 	bl	c100a10 <plotWelcomeScreen>
                state = demo_waiting;                      /* Salta al estado demo_waiting */
 c100548:	e59f30e0 	ldr	r3, [pc, #224]	; c100630 <mainTask+0x1ec>
 c10054c:	e3a02000 	mov	r2, #0
 c100550:	e5c32000 	strb	r2, [r3]
            }
            if( tsPressedMsg.flag )                    /* Chequea si se ha pulsado la pantalla (mensaje recibido de la tarea tsPressedTask) */
 c100554:	e59f30d8 	ldr	r3, [pc, #216]	; c100634 <mainTask+0x1f0>
 c100558:	e5d33000 	ldrb	r3, [r3]
 c10055c:	e3530000 	cmp	r3, #0
 c100560:	0a00000f 	beq	c1005a4 <mainTask+0x160>
            {
                tsPressedMsg.flag = FALSE;                /* Marca el mensaje como leido */
 c100564:	e59f30c8 	ldr	r3, [pc, #200]	; c100634 <mainTask+0x1f0>
 c100568:	e3a02000 	mov	r2, #0
 c10056c:	e5c32000 	strb	r2, [r3]
                coinsMoverMsg.accept = TRUE;              /* Envia un mensaje para que las monedas se acepten */
 c100570:	e59f30c8 	ldr	r3, [pc, #200]	; c100640 <mainTask+0x1fc>
 c100574:	e3a02001 	mov	r2, #1
 c100578:	e5c32001 	strb	r2, [r3, #1]
                coinsMoverMsg.flag   = TRUE;
 c10057c:	e59f30bc 	ldr	r3, [pc, #188]	; c100640 <mainTask+0x1fc>
 c100580:	e3a02001 	mov	r2, #1
 c100584:	e5c32000 	strb	r2, [r3]
                credit = 0;                               /* Pone el saldo a 0 */
 c100588:	e59f309c 	ldr	r3, [pc, #156]	; c10062c <mainTask+0x1e8>
 c10058c:	e3a02000 	mov	r2, #0
 c100590:	e1c320b0 	strh	r2, [r3]
                plotWelcomeScreen();                      /* Visualiza pantalla inicial */
 c100594:	eb00011d 	bl	c100a10 <plotWelcomeScreen>
                state = demo_waiting;                     /* Salta al estado demo_waiting */
 c100598:	e59f3090 	ldr	r3, [pc, #144]	; c100630 <mainTask+0x1ec>
 c10059c:	e3a02000 	mov	r2, #0
 c1005a0:	e5c32000 	strb	r2, [r3]
            }    
            if( coinAcceptorMsg.flag )                /* Chequea si se ha introducido una moneda (mensaje recibido de la tarea coinAcceptorTask) */
 c1005a4:	e59f3090 	ldr	r3, [pc, #144]	; c10063c <mainTask+0x1f8>
 c1005a8:	e5d33000 	ldrb	r3, [r3]
 c1005ac:	e3530000 	cmp	r3, #0
 c1005b0:	0a000018 	beq	c100618 <mainTask+0x1d4>
            {
                coinAcceptorMsg.flag   = FALSE;           /* Marca el mensaje como leido */
 c1005b4:	e59f3080 	ldr	r3, [pc, #128]	; c10063c <mainTask+0x1f8>
 c1005b8:	e3a02000 	mov	r2, #0
 c1005bc:	e5c32000 	strb	r2, [r3]
                credit += coinAcceptorMsg.cents;          /* Incrementa el saldo */
 c1005c0:	e59f3074 	ldr	r3, [pc, #116]	; c10063c <mainTask+0x1f8>
 c1005c4:	e5d33001 	ldrb	r3, [r3, #1]
 c1005c8:	e1a02003 	mov	r2, r3
 c1005cc:	e59f3058 	ldr	r3, [pc, #88]	; c10062c <mainTask+0x1e8>
 c1005d0:	e1d330b0 	ldrh	r3, [r3]
 c1005d4:	e0823003 	add	r3, r2, r3
 c1005d8:	e1a03803 	lsl	r3, r3, #16
 c1005dc:	e1a02823 	lsr	r2, r3, #16
 c1005e0:	e59f3044 	ldr	r3, [pc, #68]	; c10062c <mainTask+0x1e8>
 c1005e4:	e1c320b0 	strh	r2, [r3]
                lcd_putint_x2( 24, 48, BLACK, credit );   /* Muestra el saldo en pantalla */
 c1005e8:	e59f303c 	ldr	r3, [pc, #60]	; c10062c <mainTask+0x1e8>
 c1005ec:	e1d330b0 	ldrh	r3, [r3]
 c1005f0:	e3a00018 	mov	r0, #24
 c1005f4:	e3a01030 	mov	r1, #48	; 0x30
 c1005f8:	e3a0200f 	mov	r2, #15
 c1005fc:	eb000685 	bl	c102018 <lcd_putint_x2>
                ticks = 500;                              /* Restaura el tiempo maximo sin actividad que permanece en este estado */
 c100600:	e59f3030 	ldr	r3, [pc, #48]	; c100638 <mainTask+0x1f4>
 c100604:	e3a02f7d 	mov	r2, #500	; 0x1f4
 c100608:	e1c320b0 	strh	r2, [r3]
            }
            break;
 c10060c:	ea000002 	b	c10061c <mainTask+0x1d8>
            {
                coinAcceptorMsg.flag = FALSE;              /* Marca el mensaje como leido */
                coinsMoverMsg.accept = FALSE;              /* Envia un mensaje para que la moneda se devuelva */
                coinsMoverMsg.flag   = TRUE;
            }    
            break;
 c100610:	e1a00000 	nop			; (mov r0, r0)
 c100614:	ea000000 	b	c10061c <mainTask+0x1d8>
                coinAcceptorMsg.flag   = FALSE;           /* Marca el mensaje como leido */
                credit += coinAcceptorMsg.cents;          /* Incrementa el saldo */
                lcd_putint_x2( 24, 48, BLACK, credit );   /* Muestra el saldo en pantalla */
                ticks = 500;                              /* Restaura el tiempo maximo sin actividad que permanece en este estado */
            }
            break;
 c100618:	e1a00000 	nop			; (mov r0, r0)
    }
}
 c10061c:	e24bd00c 	sub	sp, fp, #12
 c100620:	e89d6800 	ldm	sp, {fp, sp, lr}
 c100624:	e12fff1e 	bx	lr
 c100628:	0c108b8b 	.word	0x0c108b8b
 c10062c:	0c112246 	.word	0x0c112246
 c100630:	0c112248 	.word	0x0c112248
 c100634:	0c112298 	.word	0x0c112298
 c100638:	0c11224a 	.word	0x0c11224a
 c10063c:	0c1122a0 	.word	0x0c1122a0
 c100640:	0c1122a4 	.word	0x0c1122a4

0c100644 <ticketPrinterTask>:
/* 
** Emula el comportamiento de la impresora de tickets:
**   Cada segundo muestrea si ha recibido un mensaje de la tarea principal enviar a traves de la UART el texto del ticket del aparcamiento elegido
*/
void ticketPrinterTask( void )
{
 c100644:	e1a0c00d 	mov	ip, sp
 c100648:	e92dd800 	push	{fp, ip, lr, pc}
 c10064c:	e24cb004 	sub	fp, ip, #4
   
}
 c100650:	e24bd00c 	sub	sp, fp, #12
 c100654:	e89d6800 	ldm	sp, {fp, sp, lr}
 c100658:	e12fff1e 	bx	lr

0c10065c <clockTask>:

/* 
** Cada segundo visualiza la fecha/hora en la pantalla y libera aquellas plazas cuya hora de finalizacion haya pasado
*/
void clockTask( void )  
{
 c10065c:	e1a0c00d 	mov	ip, sp
 c100660:	e92dd800 	push	{fp, ip, lr, pc}
 c100664:	e24cb004 	sub	fp, ip, #4

}
 c100668:	e24bd00c 	sub	sp, fp, #12
 c10066c:	e89d6800 	ldm	sp, {fp, sp, lr}
 c100670:	e12fff1e 	bx	lr

0c100674 <tsScanTask>:

/* 
** Cada 50 ms muestrea la touchscreen y envia un mensaje a la tarea principal con la posicion del lugar pulsado
*/
void tsScanTask( void )  
{
 c100674:	e1a0c00d 	mov	ip, sp
 c100678:	e92dd800 	push	{fp, ip, lr, pc}
 c10067c:	e24cb004 	sub	fp, ip, #4
    static boolean init = TRUE;
    static enum { wait_keydown, scan, wait_keyup } state;
    
    if( init )
 c100680:	e59f30c4 	ldr	r3, [pc, #196]	; c10074c <tsScanTask+0xd8>
 c100684:	e5d33000 	ldrb	r3, [r3]
 c100688:	e3530000 	cmp	r3, #0
 c10068c:	0a000006 	beq	c1006ac <tsScanTask+0x38>
    {
        init  = FALSE;
 c100690:	e59f30b4 	ldr	r3, [pc, #180]	; c10074c <tsScanTask+0xd8>
 c100694:	e3a02000 	mov	r2, #0
 c100698:	e5c32000 	strb	r2, [r3]
        state = wait_keydown;
 c10069c:	e59f30ac 	ldr	r3, [pc, #172]	; c100750 <tsScanTask+0xdc>
 c1006a0:	e3a02000 	mov	r2, #0
 c1006a4:	e5c32000 	strb	r2, [r3]
 c1006a8:	ea000024 	b	c100740 <tsScanTask+0xcc>
    }
    else switch( state )
 c1006ac:	e59f309c 	ldr	r3, [pc, #156]	; c100750 <tsScanTask+0xdc>
 c1006b0:	e5d33000 	ldrb	r3, [r3]
 c1006b4:	e3530001 	cmp	r3, #1
 c1006b8:	0a00000b 	beq	c1006ec <tsScanTask+0x78>
 c1006bc:	e3530002 	cmp	r3, #2
 c1006c0:	0a000013 	beq	c100714 <tsScanTask+0xa0>
 c1006c4:	e3530000 	cmp	r3, #0
 c1006c8:	1a00001c 	bne	c100740 <tsScanTask+0xcc>
    {
        case wait_keydown:                        /* Estado esperando la presion de la pantalla */
            if( ts_pressed() )                        /* Chequea la pantalla esta presionada */
 c1006cc:	eb001381 	bl	c1054d8 <ts_pressed>
 c1006d0:	e1a03000 	mov	r3, r0
 c1006d4:	e3530000 	cmp	r3, #0
 c1006d8:	0a000015 	beq	c100734 <tsScanTask+0xc0>
                state = scan;                         /* Salta al estado scan */
 c1006dc:	e59f306c 	ldr	r3, [pc, #108]	; c100750 <tsScanTask+0xdc>
 c1006e0:	e3a02001 	mov	r2, #1
 c1006e4:	e5c32000 	strb	r2, [r3]
            break;
 c1006e8:	ea000014 	b	c100740 <tsScanTask+0xcc>
        case scan:                                /* Estado en que escanea la pantalla */
            ts_getpos( &tsPressedMsg.x, &tsPressedMsg.y );    /* Lee la pantalla */
 c1006ec:	e59f0060 	ldr	r0, [pc, #96]	; c100754 <tsScanTask+0xe0>
 c1006f0:	e59f1060 	ldr	r1, [pc, #96]	; c100758 <tsScanTask+0xe4>
 c1006f4:	eb0015df 	bl	c105e78 <ts_getpos>
            tsPressedMsg.flag = TRUE;                 /* Envia un mensaje con el valor de la posicion presionada */
 c1006f8:	e59f305c 	ldr	r3, [pc, #92]	; c10075c <tsScanTask+0xe8>
 c1006fc:	e3a02001 	mov	r2, #1
 c100700:	e5c32000 	strb	r2, [r3]
            state = wait_keyup;                       /* Salta al estado wait_keyup */
 c100704:	e59f3044 	ldr	r3, [pc, #68]	; c100750 <tsScanTask+0xdc>
 c100708:	e3a02002 	mov	r2, #2
 c10070c:	e5c32000 	strb	r2, [r3]
            break;
 c100710:	ea00000a 	b	c100740 <tsScanTask+0xcc>
        case wait_keyup:                          /* Estado esperando la depresion de la pantalla  */
            if( !ts_pressed() )                       /* Chequea si la pantalla ya no esta presionada */
 c100714:	eb00136f 	bl	c1054d8 <ts_pressed>
 c100718:	e1a03000 	mov	r3, r0
 c10071c:	e3530000 	cmp	r3, #0
 c100720:	1a000005 	bne	c10073c <tsScanTask+0xc8>
                state = wait_keydown;                 /* Salta al estado wait_keydown */
 c100724:	e59f3024 	ldr	r3, [pc, #36]	; c100750 <tsScanTask+0xdc>
 c100728:	e3a02000 	mov	r2, #0
 c10072c:	e5c32000 	strb	r2, [r3]
            break;
 c100730:	ea000002 	b	c100740 <tsScanTask+0xcc>
    else switch( state )
    {
        case wait_keydown:                        /* Estado esperando la presion de la pantalla */
            if( ts_pressed() )                        /* Chequea la pantalla esta presionada */
                state = scan;                         /* Salta al estado scan */
            break;
 c100734:	e1a00000 	nop			; (mov r0, r0)
 c100738:	ea000000 	b	c100740 <tsScanTask+0xcc>
            state = wait_keyup;                       /* Salta al estado wait_keyup */
            break;
        case wait_keyup:                          /* Estado esperando la depresion de la pantalla  */
            if( !ts_pressed() )                       /* Chequea si la pantalla ya no esta presionada */
                state = wait_keydown;                 /* Salta al estado wait_keydown */
            break;
 c10073c:	e1a00000 	nop			; (mov r0, r0)
    }
}
 c100740:	e24bd00c 	sub	sp, fp, #12
 c100744:	e89d6800 	ldm	sp, {fp, sp, lr}
 c100748:	e12fff1e 	bx	lr
 c10074c:	0c108b8a 	.word	0x0c108b8a
 c100750:	0c112245 	.word	0x0c112245
 c100754:	0c11229a 	.word	0x0c11229a
 c100758:	0c11229c 	.word	0x0c11229c
 c10075c:	0c112298 	.word	0x0c112298

0c100760 <coinsAcceptorTask>:
/* 
** Emula el comportamiento de un reconocedor de monedas:
**   Cada 50 ms muestrea el keypad y envia un mensaje a la tarea principal con el valor de la moneda asociada a la tecla
*/
void coinsAcceptorTask( void )  
{
 c100760:	e1a0c00d 	mov	ip, sp
 c100764:	e92dd800 	push	{fp, ip, lr, pc}
 c100768:	e24cb004 	sub	fp, ip, #4
    static boolean init = TRUE;
    static enum { wait_keydown, scan, wait_keyup } state;
    
    if( init )
 c10076c:	e59f30d8 	ldr	r3, [pc, #216]	; c10084c <coinsAcceptorTask+0xec>
 c100770:	e5d33000 	ldrb	r3, [r3]
 c100774:	e3530000 	cmp	r3, #0
 c100778:	0a000006 	beq	c100798 <coinsAcceptorTask+0x38>
    {
        init  = FALSE;
 c10077c:	e59f30c8 	ldr	r3, [pc, #200]	; c10084c <coinsAcceptorTask+0xec>
 c100780:	e3a02000 	mov	r2, #0
 c100784:	e5c32000 	strb	r2, [r3]
        state = wait_keydown;
 c100788:	e59f30c0 	ldr	r3, [pc, #192]	; c100850 <coinsAcceptorTask+0xf0>
 c10078c:	e3a02000 	mov	r2, #0
 c100790:	e5c32000 	strb	r2, [r3]
 c100794:	ea000029 	b	c100840 <coinsAcceptorTask+0xe0>
    }
    else switch( state )
 c100798:	e59f30b0 	ldr	r3, [pc, #176]	; c100850 <coinsAcceptorTask+0xf0>
 c10079c:	e5d33000 	ldrb	r3, [r3]
 c1007a0:	e3530001 	cmp	r3, #1
 c1007a4:	0a00000b 	beq	c1007d8 <coinsAcceptorTask+0x78>
 c1007a8:	e3530002 	cmp	r3, #2
 c1007ac:	0a000018 	beq	c100814 <coinsAcceptorTask+0xb4>
 c1007b0:	e3530000 	cmp	r3, #0
 c1007b4:	1a000021 	bne	c100840 <coinsAcceptorTask+0xe0>
    {
        case wait_keydown:                        /* Estado esperando la presion teclas */
            if( keypad_pressed() )                    /* Chequea si hay una tecla presionada */
 c1007b8:	eb000130 	bl	c100c80 <keypad_pressed>
 c1007bc:	e1a03000 	mov	r3, r0
 c1007c0:	e3530000 	cmp	r3, #0
 c1007c4:	0a00001a 	beq	c100834 <coinsAcceptorTask+0xd4>
                state = scan;                         /* Salta al estado scan */
 c1007c8:	e59f3080 	ldr	r3, [pc, #128]	; c100850 <coinsAcceptorTask+0xf0>
 c1007cc:	e3a02001 	mov	r2, #1
 c1007d0:	e5c32000 	strb	r2, [r3]
            break;
 c1007d4:	ea000019 	b	c100840 <coinsAcceptorTask+0xe0>
        case scan:                                /* Estado en que escanea el teclado */
            switch( keypad_scan() )                   /* Lee el teclado */
 c1007d8:	eb00009f 	bl	c100a5c <keypad_scan>
 c1007dc:	e1a03000 	mov	r3, r0
 c1007e0:	e353000f 	cmp	r3, #15
 c1007e4:	1a000006 	bne	c100804 <coinsAcceptorTask+0xa4>
            {
                case KEYPAD_KEYF:                         /* La tecla F esta asociada a la moneda de 0,10 euros */
                    coinAcceptorMsg.cents = 10;           /* Envia un mensaje con el valor de la moneda */
 c1007e8:	e59f3064 	ldr	r3, [pc, #100]	; c100854 <coinsAcceptorTask+0xf4>
 c1007ec:	e3a0200a 	mov	r2, #10
 c1007f0:	e5c32001 	strb	r2, [r3, #1]
                    coinAcceptorMsg.flag  = TRUE;
 c1007f4:	e59f3058 	ldr	r3, [pc, #88]	; c100854 <coinsAcceptorTask+0xf4>
 c1007f8:	e3a02001 	mov	r2, #1
 c1007fc:	e5c32000 	strb	r2, [r3]
                    break;                
 c100800:	e1a00000 	nop			; (mov r0, r0)
            }
            state = wait_keyup;                       /* Salta al estado wait_keyup */
 c100804:	e59f3044 	ldr	r3, [pc, #68]	; c100850 <coinsAcceptorTask+0xf0>
 c100808:	e3a02002 	mov	r2, #2
 c10080c:	e5c32000 	strb	r2, [r3]
            break;
 c100810:	ea00000a 	b	c100840 <coinsAcceptorTask+0xe0>
        case wait_keyup:                          /* Estado esperando la depresion de teclas  */
            if( !keypad_pressed() )                   /* Chequea si la tecla ya no esta presionada */
 c100814:	eb000119 	bl	c100c80 <keypad_pressed>
 c100818:	e1a03000 	mov	r3, r0
 c10081c:	e3530000 	cmp	r3, #0
 c100820:	1a000005 	bne	c10083c <coinsAcceptorTask+0xdc>
                state = wait_keydown;                     /* Salta al estado wait_keydown */
 c100824:	e59f3024 	ldr	r3, [pc, #36]	; c100850 <coinsAcceptorTask+0xf0>
 c100828:	e3a02000 	mov	r2, #0
 c10082c:	e5c32000 	strb	r2, [r3]
            break;
 c100830:	ea000002 	b	c100840 <coinsAcceptorTask+0xe0>
    else switch( state )
    {
        case wait_keydown:                        /* Estado esperando la presion teclas */
            if( keypad_pressed() )                    /* Chequea si hay una tecla presionada */
                state = scan;                         /* Salta al estado scan */
            break;
 c100834:	e1a00000 	nop			; (mov r0, r0)
 c100838:	ea000000 	b	c100840 <coinsAcceptorTask+0xe0>
            state = wait_keyup;                       /* Salta al estado wait_keyup */
            break;
        case wait_keyup:                          /* Estado esperando la depresion de teclas  */
            if( !keypad_pressed() )                   /* Chequea si la tecla ya no esta presionada */
                state = wait_keydown;                     /* Salta al estado wait_keydown */
            break;
 c10083c:	e1a00000 	nop			; (mov r0, r0)
    }    
}  
 c100840:	e24bd00c 	sub	sp, fp, #12
 c100844:	e89d6800 	ldm	sp, {fp, sp, lr}
 c100848:	e12fff1e 	bx	lr
 c10084c:	0c108b89 	.word	0x0c108b89
 c100850:	0c112244 	.word	0x0c112244
 c100854:	0c1122a0 	.word	0x0c1122a0

0c100858 <coinsMoverTask>:
**   Cada 100 ms muestrea si ha recibido un mensaje de la tarea principal para mover monedas
**   Si van a la alcancia activa durante 1 s los leds y muestra una A en los segs
**   Si van al cajetin de devolucion activa durante 1 segundo los leds y muestra una D en los segs
*/
void coinsMoverTask( void ) 
{
 c100858:	e1a0c00d 	mov	ip, sp
 c10085c:	e92dd800 	push	{fp, ip, lr, pc}
 c100860:	e24cb004 	sub	fp, ip, #4
    static boolean init = TRUE;
    static enum { off, on } state;    
    static uint32 ticks;
    
    if( init )
 c100864:	e59f310c 	ldr	r3, [pc, #268]	; c100978 <coinsMoverTask+0x120>
 c100868:	e5d33000 	ldrb	r3, [r3]
 c10086c:	e3530000 	cmp	r3, #0
 c100870:	0a000006 	beq	c100890 <coinsMoverTask+0x38>
    {
        init  = FALSE;
 c100874:	e59f30fc 	ldr	r3, [pc, #252]	; c100978 <coinsMoverTask+0x120>
 c100878:	e3a02000 	mov	r2, #0
 c10087c:	e5c32000 	strb	r2, [r3]
        state = off;
 c100880:	e59f30f4 	ldr	r3, [pc, #244]	; c10097c <coinsMoverTask+0x124>
 c100884:	e3a02000 	mov	r2, #0
 c100888:	e5c32000 	strb	r2, [r3]
 c10088c:	ea000036 	b	c10096c <coinsMoverTask+0x114>
    }
    else switch( state )
 c100890:	e59f30e4 	ldr	r3, [pc, #228]	; c10097c <coinsMoverTask+0x124>
 c100894:	e5d33000 	ldrb	r3, [r3]
 c100898:	e3530000 	cmp	r3, #0
 c10089c:	0a000002 	beq	c1008ac <coinsMoverTask+0x54>
 c1008a0:	e3530001 	cmp	r3, #1
 c1008a4:	0a00001b 	beq	c100918 <coinsMoverTask+0xc0>
 c1008a8:	ea00002f 	b	c10096c <coinsMoverTask+0x114>
    {
        case off:                                /* Estado con leds y 7-segs apagados */
            if( coinsMoverMsg.flag )                /* Chequea si ha recibido mensaje */
 c1008ac:	e59f30cc 	ldr	r3, [pc, #204]	; c100980 <coinsMoverTask+0x128>
 c1008b0:	e5d33000 	ldrb	r3, [r3]
 c1008b4:	e3530000 	cmp	r3, #0
 c1008b8:	0a000028 	beq	c100960 <coinsMoverTask+0x108>
            {
                coinsMoverMsg.flag = FALSE;            /* Marca el mensaje como leido */
 c1008bc:	e59f30bc 	ldr	r3, [pc, #188]	; c100980 <coinsMoverTask+0x128>
 c1008c0:	e3a02000 	mov	r2, #0
 c1008c4:	e5c32000 	strb	r2, [r3]
                if( coinsMoverMsg.accept )             /* Muestra el mensaje que corresponda en segs */
 c1008c8:	e59f30b0 	ldr	r3, [pc, #176]	; c100980 <coinsMoverTask+0x128>
 c1008cc:	e5d33001 	ldrb	r3, [r3, #1]
 c1008d0:	e3530000 	cmp	r3, #0
 c1008d4:	0a000002 	beq	c1008e4 <coinsMoverTask+0x8c>
                    segs_putchar( 0xA );
 c1008d8:	e3a0000a 	mov	r0, #10
 c1008dc:	eb000a02 	bl	c1030ec <segs_putchar>
 c1008e0:	ea000001 	b	c1008ec <coinsMoverTask+0x94>
                else
                    segs_putchar( 0xD );
 c1008e4:	e3a0000d 	mov	r0, #13
 c1008e8:	eb0009ff 	bl	c1030ec <segs_putchar>
                led_on( LEFT_LED );                    /* Enciende leds */
 c1008ec:	e3a00001 	mov	r0, #1
 c1008f0:	eb0006c8 	bl	c102418 <led_on>
                led_on( RIGHT_LED );
 c1008f4:	e3a00002 	mov	r0, #2
 c1008f8:	eb0006c6 	bl	c102418 <led_on>
                state = on;                            /* Salta al estado on ... */
 c1008fc:	e59f3078 	ldr	r3, [pc, #120]	; c10097c <coinsMoverTask+0x124>
 c100900:	e3a02001 	mov	r2, #1
 c100904:	e5c32000 	strb	r2, [r3]
                ticks = 10;                            /* ... en el que debera permanecer 10 ticks */
 c100908:	e59f3074 	ldr	r3, [pc, #116]	; c100984 <coinsMoverTask+0x12c>
 c10090c:	e3a0200a 	mov	r2, #10
 c100910:	e5832000 	str	r2, [r3]
            }
            break;
 c100914:	ea000014 	b	c10096c <coinsMoverTask+0x114>
        case on:                                /* Estado con leds y 7-segs encendidos */
            if( !(--ticks) )                        /* Decrementa ticks y chequea si ha permanecido en este estado el tiempo requerido */
 c100918:	e59f3064 	ldr	r3, [pc, #100]	; c100984 <coinsMoverTask+0x12c>
 c10091c:	e5933000 	ldr	r3, [r3]
 c100920:	e2432001 	sub	r2, r3, #1
 c100924:	e59f3058 	ldr	r3, [pc, #88]	; c100984 <coinsMoverTask+0x12c>
 c100928:	e5832000 	str	r2, [r3]
 c10092c:	e59f3050 	ldr	r3, [pc, #80]	; c100984 <coinsMoverTask+0x12c>
 c100930:	e5933000 	ldr	r3, [r3]
 c100934:	e3530000 	cmp	r3, #0
 c100938:	1a00000a 	bne	c100968 <coinsMoverTask+0x110>
            {  
                segs_off();                            /* Apaga segs */
 c10093c:	eb0009dc 	bl	c1030b4 <segs_off>
                led_off( LEFT_LED );                   /* Apaga leds */
 c100940:	e3a00001 	mov	r0, #1
 c100944:	eb0006c5 	bl	c102460 <led_off>
                led_off( RIGHT_LED );                                
 c100948:	e3a00002 	mov	r0, #2
 c10094c:	eb0006c3 	bl	c102460 <led_off>
                state = off;                           /* Salta al estado off */
 c100950:	e59f3024 	ldr	r3, [pc, #36]	; c10097c <coinsMoverTask+0x124>
 c100954:	e3a02000 	mov	r2, #0
 c100958:	e5c32000 	strb	r2, [r3]
            }
            break;
 c10095c:	ea000002 	b	c10096c <coinsMoverTask+0x114>
                led_on( LEFT_LED );                    /* Enciende leds */
                led_on( RIGHT_LED );
                state = on;                            /* Salta al estado on ... */
                ticks = 10;                            /* ... en el que debera permanecer 10 ticks */
            }
            break;
 c100960:	e1a00000 	nop			; (mov r0, r0)
 c100964:	ea000000 	b	c10096c <coinsMoverTask+0x114>
                segs_off();                            /* Apaga segs */
                led_off( LEFT_LED );                   /* Apaga leds */
                led_off( RIGHT_LED );                                
                state = off;                           /* Salta al estado off */
            }
            break;
 c100968:	e1a00000 	nop			; (mov r0, r0)
    }
}    
 c10096c:	e24bd00c 	sub	sp, fp, #12
 c100970:	e89d6800 	ldm	sp, {fp, sp, lr}
 c100974:	e12fff1e 	bx	lr
 c100978:	0c108b88 	.word	0x0c108b88
 c10097c:	0c11223c 	.word	0x0c11223c
 c100980:	0c1122a4 	.word	0x0c1122a4
 c100984:	0c112240 	.word	0x0c112240

0c100988 <setup>:

/* 
** Inicializa flags, mailboxes y variables globales
*/
void setup( void )
{
 c100988:	e1a0c00d 	mov	ip, sp
 c10098c:	e92dd800 	push	{fp, ip, lr, pc}
 c100990:	e24cb004 	sub	fp, ip, #4
    coinAcceptorMsg.flag  = FALSE;
 c100994:	e59f3064 	ldr	r3, [pc, #100]	; c100a00 <setup+0x78>
 c100998:	e3a02000 	mov	r2, #0
 c10099c:	e5c32000 	strb	r2, [r3]
    coinAcceptorMsg.cents = 0;
 c1009a0:	e59f3058 	ldr	r3, [pc, #88]	; c100a00 <setup+0x78>
 c1009a4:	e3a02000 	mov	r2, #0
 c1009a8:	e5c32001 	strb	r2, [r3, #1]
    
    tsPressedMsg.flag     = FALSE;
 c1009ac:	e59f3050 	ldr	r3, [pc, #80]	; c100a04 <setup+0x7c>
 c1009b0:	e3a02000 	mov	r2, #0
 c1009b4:	e5c32000 	strb	r2, [r3]
    tsPressedMsg.x        = 0;
 c1009b8:	e59f3044 	ldr	r3, [pc, #68]	; c100a04 <setup+0x7c>
 c1009bc:	e3a02000 	mov	r2, #0
 c1009c0:	e1c320b2 	strh	r2, [r3, #2]
    tsPressedMsg.y        = 0;
 c1009c4:	e59f3038 	ldr	r3, [pc, #56]	; c100a04 <setup+0x7c>
 c1009c8:	e3a02000 	mov	r2, #0
 c1009cc:	e1c320b4 	strh	r2, [r3, #4]

    coinsMoverMsg.flag    = FALSE;
 c1009d0:	e59f3030 	ldr	r3, [pc, #48]	; c100a08 <setup+0x80>
 c1009d4:	e3a02000 	mov	r2, #0
 c1009d8:	e5c32000 	strb	r2, [r3]
    coinsMoverMsg.accept  = FALSE;
 c1009dc:	e59f3024 	ldr	r3, [pc, #36]	; c100a08 <setup+0x80>
 c1009e0:	e3a02000 	mov	r2, #0
 c1009e4:	e5c32001 	strb	r2, [r3, #1]
    
    printTicketFlag       = FALSE;
 c1009e8:	e59f301c 	ldr	r3, [pc, #28]	; c100a0c <setup+0x84>
 c1009ec:	e3a02000 	mov	r2, #0
 c1009f0:	e5c32000 	strb	r2, [r3]
}
 c1009f4:	e24bd00c 	sub	sp, fp, #12
 c1009f8:	e89d6800 	ldm	sp, {fp, sp, lr}
 c1009fc:	e12fff1e 	bx	lr
 c100a00:	0c1122a0 	.word	0x0c1122a0
 c100a04:	0c112298 	.word	0x0c112298
 c100a08:	0c1122a4 	.word	0x0c1122a4
 c100a0c:	0c1122a8 	.word	0x0c1122a8

0c100a10 <plotWelcomeScreen>:


void plotWelcomeScreen( void )
{   
 c100a10:	e1a0c00d 	mov	ip, sp
 c100a14:	e92dd800 	push	{fp, ip, lr, pc}
 c100a18:	e24cb004 	sub	fp, ip, #4
    lcd_clear();
 c100a1c:	eb000206 	bl	c10123c <lcd_clear>
    lcd_puts_x2( 24, 48, BLACK, "Pulse la pantalla" );
 c100a20:	e3a00018 	mov	r0, #24
 c100a24:	e3a01030 	mov	r1, #48	; 0x30
 c100a28:	e3a0200f 	mov	r2, #15
 c100a2c:	e59f3020 	ldr	r3, [pc, #32]	; c100a54 <plotWelcomeScreen+0x44>
 c100a30:	eb00055b 	bl	c101fa4 <lcd_puts_x2>
    lcd_puts_x2( 24, 76, BLACK, "  para comenzar  " );
 c100a34:	e3a00018 	mov	r0, #24
 c100a38:	e3a0104c 	mov	r1, #76	; 0x4c
 c100a3c:	e3a0200f 	mov	r2, #15
 c100a40:	e59f3010 	ldr	r3, [pc, #16]	; c100a58 <plotWelcomeScreen+0x48>
 c100a44:	eb000556 	bl	c101fa4 <lcd_puts_x2>
}
 c100a48:	e24bd00c 	sub	sp, fp, #12
 c100a4c:	e89d6800 	ldm	sp, {fp, sp, lr}
 c100a50:	e12fff1e 	bx	lr
 c100a54:	0c1073c0 	.word	0x0c1073c0
 c100a58:	0c1073d4 	.word	0x0c1073d4

0c100a5c <keypad_scan>:
 c100a5c:	e1a0c00d 	mov	ip, sp
 c100a60:	e92dd800 	push	{fp, ip, lr, pc}
 c100a64:	e24cb004 	sub	fp, ip, #4
 c100a68:	e24dd008 	sub	sp, sp, #8
 c100a6c:	e59f31fc 	ldr	r3, [pc, #508]	; c100c70 <keypad_scan+0x214>
 c100a70:	e5d33000 	ldrb	r3, [r3]
 c100a74:	e54b300d 	strb	r3, [fp, #-13]
 c100a78:	e55b300d 	ldrb	r3, [fp, #-13]
 c100a7c:	e203300f 	and	r3, r3, #15
 c100a80:	e353000f 	cmp	r3, #15
 c100a84:	0a000017 	beq	c100ae8 <keypad_scan+0x8c>
 c100a88:	e55b300d 	ldrb	r3, [fp, #-13]
 c100a8c:	e2033008 	and	r3, r3, #8
 c100a90:	e3530000 	cmp	r3, #0
 c100a94:	1a000001 	bne	c100aa0 <keypad_scan+0x44>
 c100a98:	e3a03000 	mov	r3, #0
 c100a9c:	ea00006f 	b	c100c60 <keypad_scan+0x204>
 c100aa0:	e55b300d 	ldrb	r3, [fp, #-13]
 c100aa4:	e2033004 	and	r3, r3, #4
 c100aa8:	e3530000 	cmp	r3, #0
 c100aac:	1a000001 	bne	c100ab8 <keypad_scan+0x5c>
 c100ab0:	e3a03001 	mov	r3, #1
 c100ab4:	ea000069 	b	c100c60 <keypad_scan+0x204>
 c100ab8:	e55b300d 	ldrb	r3, [fp, #-13]
 c100abc:	e2033002 	and	r3, r3, #2
 c100ac0:	e3530000 	cmp	r3, #0
 c100ac4:	1a000001 	bne	c100ad0 <keypad_scan+0x74>
 c100ac8:	e3a03002 	mov	r3, #2
 c100acc:	ea000063 	b	c100c60 <keypad_scan+0x204>
 c100ad0:	e55b300d 	ldrb	r3, [fp, #-13]
 c100ad4:	e2033001 	and	r3, r3, #1
 c100ad8:	e3530000 	cmp	r3, #0
 c100adc:	1a000001 	bne	c100ae8 <keypad_scan+0x8c>
 c100ae0:	e3a03003 	mov	r3, #3
 c100ae4:	ea00005d 	b	c100c60 <keypad_scan+0x204>
 c100ae8:	e59f3184 	ldr	r3, [pc, #388]	; c100c74 <keypad_scan+0x218>
 c100aec:	e5d33000 	ldrb	r3, [r3]
 c100af0:	e54b300d 	strb	r3, [fp, #-13]
 c100af4:	e55b300d 	ldrb	r3, [fp, #-13]
 c100af8:	e203300f 	and	r3, r3, #15
 c100afc:	e353000f 	cmp	r3, #15
 c100b00:	0a000017 	beq	c100b64 <keypad_scan+0x108>
 c100b04:	e55b300d 	ldrb	r3, [fp, #-13]
 c100b08:	e2033008 	and	r3, r3, #8
 c100b0c:	e3530000 	cmp	r3, #0
 c100b10:	1a000001 	bne	c100b1c <keypad_scan+0xc0>
 c100b14:	e3a03004 	mov	r3, #4
 c100b18:	ea000050 	b	c100c60 <keypad_scan+0x204>
 c100b1c:	e55b300d 	ldrb	r3, [fp, #-13]
 c100b20:	e2033004 	and	r3, r3, #4
 c100b24:	e3530000 	cmp	r3, #0
 c100b28:	1a000001 	bne	c100b34 <keypad_scan+0xd8>
 c100b2c:	e3a03005 	mov	r3, #5
 c100b30:	ea00004a 	b	c100c60 <keypad_scan+0x204>
 c100b34:	e55b300d 	ldrb	r3, [fp, #-13]
 c100b38:	e2033002 	and	r3, r3, #2
 c100b3c:	e3530000 	cmp	r3, #0
 c100b40:	1a000001 	bne	c100b4c <keypad_scan+0xf0>
 c100b44:	e3a03006 	mov	r3, #6
 c100b48:	ea000044 	b	c100c60 <keypad_scan+0x204>
 c100b4c:	e55b300d 	ldrb	r3, [fp, #-13]
 c100b50:	e2033001 	and	r3, r3, #1
 c100b54:	e3530000 	cmp	r3, #0
 c100b58:	1a000001 	bne	c100b64 <keypad_scan+0x108>
 c100b5c:	e3a03007 	mov	r3, #7
 c100b60:	ea00003e 	b	c100c60 <keypad_scan+0x204>
 c100b64:	e59f310c 	ldr	r3, [pc, #268]	; c100c78 <keypad_scan+0x21c>
 c100b68:	e5d33000 	ldrb	r3, [r3]
 c100b6c:	e54b300d 	strb	r3, [fp, #-13]
 c100b70:	e55b300d 	ldrb	r3, [fp, #-13]
 c100b74:	e203300f 	and	r3, r3, #15
 c100b78:	e353000f 	cmp	r3, #15
 c100b7c:	0a000017 	beq	c100be0 <keypad_scan+0x184>
 c100b80:	e55b300d 	ldrb	r3, [fp, #-13]
 c100b84:	e2033008 	and	r3, r3, #8
 c100b88:	e3530000 	cmp	r3, #0
 c100b8c:	1a000001 	bne	c100b98 <keypad_scan+0x13c>
 c100b90:	e3a03008 	mov	r3, #8
 c100b94:	ea000031 	b	c100c60 <keypad_scan+0x204>
 c100b98:	e55b300d 	ldrb	r3, [fp, #-13]
 c100b9c:	e2033004 	and	r3, r3, #4
 c100ba0:	e3530000 	cmp	r3, #0
 c100ba4:	1a000001 	bne	c100bb0 <keypad_scan+0x154>
 c100ba8:	e3a03009 	mov	r3, #9
 c100bac:	ea00002b 	b	c100c60 <keypad_scan+0x204>
 c100bb0:	e55b300d 	ldrb	r3, [fp, #-13]
 c100bb4:	e2033002 	and	r3, r3, #2
 c100bb8:	e3530000 	cmp	r3, #0
 c100bbc:	1a000001 	bne	c100bc8 <keypad_scan+0x16c>
 c100bc0:	e3a0300a 	mov	r3, #10
 c100bc4:	ea000025 	b	c100c60 <keypad_scan+0x204>
 c100bc8:	e55b300d 	ldrb	r3, [fp, #-13]
 c100bcc:	e2033001 	and	r3, r3, #1
 c100bd0:	e3530000 	cmp	r3, #0
 c100bd4:	1a000001 	bne	c100be0 <keypad_scan+0x184>
 c100bd8:	e3a0300b 	mov	r3, #11
 c100bdc:	ea00001f 	b	c100c60 <keypad_scan+0x204>
 c100be0:	e59f3094 	ldr	r3, [pc, #148]	; c100c7c <keypad_scan+0x220>
 c100be4:	e5d33000 	ldrb	r3, [r3]
 c100be8:	e54b300d 	strb	r3, [fp, #-13]
 c100bec:	e55b300d 	ldrb	r3, [fp, #-13]
 c100bf0:	e203300f 	and	r3, r3, #15
 c100bf4:	e353000f 	cmp	r3, #15
 c100bf8:	0a000017 	beq	c100c5c <keypad_scan+0x200>
 c100bfc:	e55b300d 	ldrb	r3, [fp, #-13]
 c100c00:	e2033008 	and	r3, r3, #8
 c100c04:	e3530000 	cmp	r3, #0
 c100c08:	1a000001 	bne	c100c14 <keypad_scan+0x1b8>
 c100c0c:	e3a0300c 	mov	r3, #12
 c100c10:	ea000012 	b	c100c60 <keypad_scan+0x204>
 c100c14:	e55b300d 	ldrb	r3, [fp, #-13]
 c100c18:	e2033004 	and	r3, r3, #4
 c100c1c:	e3530000 	cmp	r3, #0
 c100c20:	1a000001 	bne	c100c2c <keypad_scan+0x1d0>
 c100c24:	e3a0300d 	mov	r3, #13
 c100c28:	ea00000c 	b	c100c60 <keypad_scan+0x204>
 c100c2c:	e55b300d 	ldrb	r3, [fp, #-13]
 c100c30:	e2033002 	and	r3, r3, #2
 c100c34:	e3530000 	cmp	r3, #0
 c100c38:	1a000001 	bne	c100c44 <keypad_scan+0x1e8>
 c100c3c:	e3a0300e 	mov	r3, #14
 c100c40:	ea000006 	b	c100c60 <keypad_scan+0x204>
 c100c44:	e55b300d 	ldrb	r3, [fp, #-13]
 c100c48:	e2033001 	and	r3, r3, #1
 c100c4c:	e3530000 	cmp	r3, #0
 c100c50:	1a000001 	bne	c100c5c <keypad_scan+0x200>
 c100c54:	e3a0300f 	mov	r3, #15
 c100c58:	ea000000 	b	c100c60 <keypad_scan+0x204>
 c100c5c:	e3a030ff 	mov	r3, #255	; 0xff
 c100c60:	e1a00003 	mov	r0, r3
 c100c64:	e24bd00c 	sub	sp, fp, #12
 c100c68:	e89d6800 	ldm	sp, {fp, sp, lr}
 c100c6c:	e12fff1e 	bx	lr
 c100c70:	0600001c 	.word	0x0600001c
 c100c74:	0600001a 	.word	0x0600001a
 c100c78:	06000016 	.word	0x06000016
 c100c7c:	0600000e 	.word	0x0600000e

0c100c80 <keypad_pressed>:
 c100c80:	e1a0c00d 	mov	ip, sp
 c100c84:	e92dd800 	push	{fp, ip, lr, pc}
 c100c88:	e24cb004 	sub	fp, ip, #4
 c100c8c:	e59f3024 	ldr	r3, [pc, #36]	; c100cb8 <keypad_pressed+0x38>
 c100c90:	e5933000 	ldr	r3, [r3]
 c100c94:	e2033002 	and	r3, r3, #2
 c100c98:	e3530000 	cmp	r3, #0
 c100c9c:	13a03000 	movne	r3, #0
 c100ca0:	03a03001 	moveq	r3, #1
 c100ca4:	e20330ff 	and	r3, r3, #255	; 0xff
 c100ca8:	e1a00003 	mov	r0, r3
 c100cac:	e24bd00c 	sub	sp, fp, #12
 c100cb0:	e89d6800 	ldm	sp, {fp, sp, lr}
 c100cb4:	e12fff1e 	bx	lr
 c100cb8:	01d20044 	.word	0x01d20044

0c100cbc <keypad_getchartime>:
 c100cbc:	e1a0c00d 	mov	ip, sp
 c100cc0:	e92dd800 	push	{fp, ip, lr, pc}
 c100cc4:	e24cb004 	sub	fp, ip, #4
 c100cc8:	e24dd010 	sub	sp, sp, #16
 c100ccc:	e50b0018 	str	r0, [fp, #-24]	; 0xffffffe8
 c100cd0:	e1a00000 	nop			; (mov r0, r0)
 c100cd4:	e59f3080 	ldr	r3, [pc, #128]	; c100d5c <keypad_getchartime+0xa0>
 c100cd8:	e5933000 	ldr	r3, [r3]
 c100cdc:	e2033002 	and	r3, r3, #2
 c100ce0:	e3530000 	cmp	r3, #0
 c100ce4:	1afffffa 	bne	c100cd4 <keypad_getchartime+0x18>
 c100ce8:	eb001042 	bl	c104df8 <timer3_start>
 c100cec:	e3a0001e 	mov	r0, #30
 c100cf0:	eb000fd5 	bl	c104c4c <sw_delay_ms>
 c100cf4:	ebffff58 	bl	c100a5c <keypad_scan>
 c100cf8:	e1a03000 	mov	r3, r0
 c100cfc:	e54b300d 	strb	r3, [fp, #-13]
 c100d00:	e1a00000 	nop			; (mov r0, r0)
 c100d04:	e59f3050 	ldr	r3, [pc, #80]	; c100d5c <keypad_getchartime+0xa0>
 c100d08:	e5933000 	ldr	r3, [r3]
 c100d0c:	e2033002 	and	r3, r3, #2
 c100d10:	e3530000 	cmp	r3, #0
 c100d14:	0afffffa 	beq	c100d04 <keypad_getchartime+0x48>
 c100d18:	eb00106d 	bl	c104ed4 <timer3_stop>
 c100d1c:	e1a03000 	mov	r3, r0
 c100d20:	e1a02003 	mov	r2, r3
 c100d24:	e59f3034 	ldr	r3, [pc, #52]	; c100d60 <keypad_getchartime+0xa4>
 c100d28:	e0831392 	umull	r1, r3, r2, r3
 c100d2c:	e1a031a3 	lsr	r3, r3, #3
 c100d30:	e1a03803 	lsl	r3, r3, #16
 c100d34:	e1a02823 	lsr	r2, r3, #16
 c100d38:	e51b3018 	ldr	r3, [fp, #-24]	; 0xffffffe8
 c100d3c:	e1c320b0 	strh	r2, [r3]
 c100d40:	e3a00064 	mov	r0, #100	; 0x64
 c100d44:	eb000fc0 	bl	c104c4c <sw_delay_ms>
 c100d48:	e55b300d 	ldrb	r3, [fp, #-13]
 c100d4c:	e1a00003 	mov	r0, r3
 c100d50:	e24bd00c 	sub	sp, fp, #12
 c100d54:	e89d6800 	ldm	sp, {fp, sp, lr}
 c100d58:	e12fff1e 	bx	lr
 c100d5c:	01d20044 	.word	0x01d20044
 c100d60:	cccccccd 	.word	0xcccccccd

0c100d64 <keypad_timeout_getchar>:
 c100d64:	e1a0c00d 	mov	ip, sp
 c100d68:	e92dd800 	push	{fp, ip, lr, pc}
 c100d6c:	e24cb004 	sub	fp, ip, #4
 c100d70:	e24dd010 	sub	sp, sp, #16
 c100d74:	e1a03000 	mov	r3, r0
 c100d78:	e14b31b6 	strh	r3, [fp, #-22]	; 0xffffffea
 c100d7c:	e15b31b6 	ldrh	r3, [fp, #-22]	; 0xffffffea
 c100d80:	e1a02003 	mov	r2, r3
 c100d84:	e1a02102 	lsl	r2, r2, #2
 c100d88:	e0823003 	add	r3, r2, r3
 c100d8c:	e1a03083 	lsl	r3, r3, #1
 c100d90:	e1a03803 	lsl	r3, r3, #16
 c100d94:	e1a03823 	lsr	r3, r3, #16
 c100d98:	e1a00003 	mov	r0, r3
 c100d9c:	eb001061 	bl	c104f28 <timer3_start_timeout>
 c100da0:	e1a00000 	nop			; (mov r0, r0)
 c100da4:	e59f30a4 	ldr	r3, [pc, #164]	; c100e50 <keypad_timeout_getchar+0xec>
 c100da8:	e5933000 	ldr	r3, [r3]
 c100dac:	e2033002 	and	r3, r3, #2
 c100db0:	e3530000 	cmp	r3, #0
 c100db4:	0a000003 	beq	c100dc8 <keypad_timeout_getchar+0x64>
 c100db8:	eb001093 	bl	c10500c <timer3_timeout>
 c100dbc:	e1a03000 	mov	r3, r0
 c100dc0:	e3530000 	cmp	r3, #0
 c100dc4:	0afffff6 	beq	c100da4 <keypad_timeout_getchar+0x40>
 c100dc8:	eb00108f 	bl	c10500c <timer3_timeout>
 c100dcc:	e1a03000 	mov	r3, r0
 c100dd0:	e3530000 	cmp	r3, #0
 c100dd4:	0a000001 	beq	c100de0 <keypad_timeout_getchar+0x7c>
 c100dd8:	e3a030fe 	mov	r3, #254	; 0xfe
 c100ddc:	ea000017 	b	c100e40 <keypad_timeout_getchar+0xdc>
 c100de0:	e3a0001e 	mov	r0, #30
 c100de4:	eb000f98 	bl	c104c4c <sw_delay_ms>
 c100de8:	ebffff1b 	bl	c100a5c <keypad_scan>
 c100dec:	e1a03000 	mov	r3, r0
 c100df0:	e54b300d 	strb	r3, [fp, #-13]
 c100df4:	e1a00000 	nop			; (mov r0, r0)
 c100df8:	e59f3050 	ldr	r3, [pc, #80]	; c100e50 <keypad_timeout_getchar+0xec>
 c100dfc:	e5933000 	ldr	r3, [r3]
 c100e00:	e2033002 	and	r3, r3, #2
 c100e04:	e3530000 	cmp	r3, #0
 c100e08:	1a000003 	bne	c100e1c <keypad_timeout_getchar+0xb8>
 c100e0c:	eb00107e 	bl	c10500c <timer3_timeout>
 c100e10:	e1a03000 	mov	r3, r0
 c100e14:	e3530000 	cmp	r3, #0
 c100e18:	0afffff6 	beq	c100df8 <keypad_timeout_getchar+0x94>
 c100e1c:	eb00107a 	bl	c10500c <timer3_timeout>
 c100e20:	e1a03000 	mov	r3, r0
 c100e24:	e3530000 	cmp	r3, #0
 c100e28:	0a000001 	beq	c100e34 <keypad_timeout_getchar+0xd0>
 c100e2c:	e3a030fe 	mov	r3, #254	; 0xfe
 c100e30:	ea000002 	b	c100e40 <keypad_timeout_getchar+0xdc>
 c100e34:	e3a00064 	mov	r0, #100	; 0x64
 c100e38:	eb000f83 	bl	c104c4c <sw_delay_ms>
 c100e3c:	e55b300d 	ldrb	r3, [fp, #-13]
 c100e40:	e1a00003 	mov	r0, r3
 c100e44:	e24bd00c 	sub	sp, fp, #12
 c100e48:	e89d6800 	ldm	sp, {fp, sp, lr}
 c100e4c:	e12fff1e 	bx	lr
 c100e50:	01d20044 	.word	0x01d20044

0c100e54 <keypad_open>:
 c100e54:	e1a0c00d 	mov	ip, sp
 c100e58:	e92dd800 	push	{fp, ip, lr, pc}
 c100e5c:	e24cb004 	sub	fp, ip, #4
 c100e60:	e24dd008 	sub	sp, sp, #8
 c100e64:	e50b0010 	str	r0, [fp, #-16]
 c100e68:	e59f3030 	ldr	r3, [pc, #48]	; c100ea0 <keypad_open+0x4c>
 c100e6c:	e51b2010 	ldr	r2, [fp, #-16]
 c100e70:	e5832000 	str	r2, [r3]
 c100e74:	e59f3028 	ldr	r3, [pc, #40]	; c100ea4 <keypad_open+0x50>
 c100e78:	e3a02401 	mov	r2, #16777216	; 0x1000000
 c100e7c:	e5832000 	str	r2, [r3]
 c100e80:	e59f3020 	ldr	r3, [pc, #32]	; c100ea8 <keypad_open+0x54>
 c100e84:	e59f201c 	ldr	r2, [pc, #28]	; c100ea8 <keypad_open+0x54>
 c100e88:	e5922000 	ldr	r2, [r2]
 c100e8c:	e3c22405 	bic	r2, r2, #83886080	; 0x5000000
 c100e90:	e5832000 	str	r2, [r3]
 c100e94:	e24bd00c 	sub	sp, fp, #12
 c100e98:	e89d6800 	ldm	sp, {fp, sp, lr}
 c100e9c:	e12fff1e 	bx	lr
 c100ea0:	0c7fff80 	.word	0x0c7fff80
 c100ea4:	01e00024 	.word	0x01e00024
 c100ea8:	01e0000c 	.word	0x01e0000c

0c100eac <keypad_close>:
 c100eac:	e1a0c00d 	mov	ip, sp
 c100eb0:	e92dd800 	push	{fp, ip, lr, pc}
 c100eb4:	e24cb004 	sub	fp, ip, #4
 c100eb8:	e59f3024 	ldr	r3, [pc, #36]	; c100ee4 <keypad_close+0x38>
 c100ebc:	e59f2020 	ldr	r2, [pc, #32]	; c100ee4 <keypad_close+0x38>
 c100ec0:	e5922000 	ldr	r2, [r2]
 c100ec4:	e3822401 	orr	r2, r2, #16777216	; 0x1000000
 c100ec8:	e5832000 	str	r2, [r3]
 c100ecc:	e59f3014 	ldr	r3, [pc, #20]	; c100ee8 <keypad_close+0x3c>
 c100ed0:	e59f2014 	ldr	r2, [pc, #20]	; c100eec <keypad_close+0x40>
 c100ed4:	e5832000 	str	r2, [r3]
 c100ed8:	e24bd00c 	sub	sp, fp, #12
 c100edc:	e89d6800 	ldm	sp, {fp, sp, lr}
 c100ee0:	e12fff1e 	bx	lr
 c100ee4:	01e0000c 	.word	0x01e0000c
 c100ee8:	0c7fff70 	.word	0x0c7fff70
 c100eec:	0c1042a8 	.word	0x0c1042a8

0c100ef0 <keypad_init>:
 c100ef0:	e1a0c00d 	mov	ip, sp
 c100ef4:	e92dd800 	push	{fp, ip, lr, pc}
 c100ef8:	e24cb004 	sub	fp, ip, #4
 c100efc:	e3a0000a 	mov	r0, #10
 c100f00:	eb00058c 	bl	c102538 <power_on>
 c100f04:	e59f305c 	ldr	r3, [pc, #92]	; c100f68 <keypad_init+0x78>
 c100f08:	e59f2058 	ldr	r2, [pc, #88]	; c100f68 <keypad_init+0x78>
 c100f0c:	e5922000 	ldr	r2, [r2]
 c100f10:	e3822c01 	orr	r2, r2, #256	; 0x100
 c100f14:	e5832000 	str	r2, [r3]
 c100f18:	e59f304c 	ldr	r3, [pc, #76]	; c100f6c <keypad_init+0x7c>
 c100f1c:	e59f2048 	ldr	r2, [pc, #72]	; c100f6c <keypad_init+0x7c>
 c100f20:	e5922000 	ldr	r2, [r2]
 c100f24:	e382200c 	orr	r2, r2, #12
 c100f28:	e5832000 	str	r2, [r3]
 c100f2c:	e59f303c 	ldr	r3, [pc, #60]	; c100f70 <keypad_init+0x80>
 c100f30:	e59f2038 	ldr	r2, [pc, #56]	; c100f70 <keypad_init+0x80>
 c100f34:	e5922000 	ldr	r2, [r2]
 c100f38:	e3c22002 	bic	r2, r2, #2
 c100f3c:	e5832000 	str	r2, [r3]
 c100f40:	e59f302c 	ldr	r3, [pc, #44]	; c100f74 <keypad_init+0x84>
 c100f44:	e59f2028 	ldr	r2, [pc, #40]	; c100f74 <keypad_init+0x84>
 c100f48:	e5922000 	ldr	r2, [r2]
 c100f4c:	e3c220f0 	bic	r2, r2, #240	; 0xf0
 c100f50:	e3822020 	orr	r2, r2, #32
 c100f54:	e5832000 	str	r2, [r3]
 c100f58:	eb000e89 	bl	c104984 <timers_init>
 c100f5c:	e24bd00c 	sub	sp, fp, #12
 c100f60:	e89d6800 	ldm	sp, {fp, sp, lr}
 c100f64:	e12fff1e 	bx	lr
 c100f68:	01d20008 	.word	0x01d20008
 c100f6c:	01d20040 	.word	0x01d20040
 c100f70:	01d20048 	.word	0x01d20048
 c100f74:	01d20050 	.word	0x01d20050

0c100f78 <keypad_getchar>:
 c100f78:	e1a0c00d 	mov	ip, sp
 c100f7c:	e92dd800 	push	{fp, ip, lr, pc}
 c100f80:	e24cb004 	sub	fp, ip, #4
 c100f84:	e24dd008 	sub	sp, sp, #8
 c100f88:	e1a00000 	nop			; (mov r0, r0)
 c100f8c:	e59f3054 	ldr	r3, [pc, #84]	; c100fe8 <keypad_getchar+0x70>
 c100f90:	e5933000 	ldr	r3, [r3]
 c100f94:	e2033002 	and	r3, r3, #2
 c100f98:	e3530000 	cmp	r3, #0
 c100f9c:	1afffffa 	bne	c100f8c <keypad_getchar+0x14>
 c100fa0:	e3a0001e 	mov	r0, #30
 c100fa4:	eb000f28 	bl	c104c4c <sw_delay_ms>
 c100fa8:	ebfffeab 	bl	c100a5c <keypad_scan>
 c100fac:	e1a03000 	mov	r3, r0
 c100fb0:	e54b300d 	strb	r3, [fp, #-13]
 c100fb4:	e1a00000 	nop			; (mov r0, r0)
 c100fb8:	e59f3028 	ldr	r3, [pc, #40]	; c100fe8 <keypad_getchar+0x70>
 c100fbc:	e5933000 	ldr	r3, [r3]
 c100fc0:	e2033002 	and	r3, r3, #2
 c100fc4:	e3530000 	cmp	r3, #0
 c100fc8:	0afffffa 	beq	c100fb8 <keypad_getchar+0x40>
 c100fcc:	e3a00064 	mov	r0, #100	; 0x64
 c100fd0:	eb000f1d 	bl	c104c4c <sw_delay_ms>
 c100fd4:	e55b300d 	ldrb	r3, [fp, #-13]
 c100fd8:	e1a00003 	mov	r0, r3
 c100fdc:	e24bd00c 	sub	sp, fp, #12
 c100fe0:	e89d6800 	ldm	sp, {fp, sp, lr}
 c100fe4:	e12fff1e 	bx	lr
 c100fe8:	01d20044 	.word	0x01d20044

0c100fec <lcd_init>:
 c100fec:	e1a0c00d 	mov	ip, sp
 c100ff0:	e92dd800 	push	{fp, ip, lr, pc}
 c100ff4:	e24cb004 	sub	fp, ip, #4
 c100ff8:	e3a00006 	mov	r0, #6
 c100ffc:	eb00054d 	bl	c102538 <power_on>
 c101000:	e59f3114 	ldr	r3, [pc, #276]	; c10111c <lcd_init+0x130>
 c101004:	e59f2114 	ldr	r2, [pc, #276]	; c101120 <lcd_init+0x134>
 c101008:	e5832000 	str	r2, [r3]
 c10100c:	e59f3110 	ldr	r3, [pc, #272]	; c101124 <lcd_init+0x138>
 c101010:	e3a020ff 	mov	r2, #255	; 0xff
 c101014:	e5832000 	str	r2, [r3]
 c101018:	e59f3108 	ldr	r3, [pc, #264]	; c101128 <lcd_init+0x13c>
 c10101c:	e59f2108 	ldr	r2, [pc, #264]	; c10112c <lcd_init+0x140>
 c101020:	e5832000 	str	r2, [r3]
 c101024:	e59f3104 	ldr	r3, [pc, #260]	; c101130 <lcd_init+0x144>
 c101028:	e59f2104 	ldr	r2, [pc, #260]	; c101134 <lcd_init+0x148>
 c10102c:	e5832000 	str	r2, [r3]
 c101030:	e59f3100 	ldr	r3, [pc, #256]	; c101138 <lcd_init+0x14c>
 c101034:	e59f2100 	ldr	r2, [pc, #256]	; c10113c <lcd_init+0x150>
 c101038:	e5832000 	str	r2, [r3]
 c10103c:	e59f30fc 	ldr	r3, [pc, #252]	; c101140 <lcd_init+0x154>
 c101040:	e59f20fc 	ldr	r2, [pc, #252]	; c101144 <lcd_init+0x158>
 c101044:	e5832000 	str	r2, [r3]
 c101048:	e59f30f8 	ldr	r3, [pc, #248]	; c101148 <lcd_init+0x15c>
 c10104c:	e59f20f8 	ldr	r2, [pc, #248]	; c10114c <lcd_init+0x160>
 c101050:	e5832000 	str	r2, [r3]
 c101054:	e59f30f4 	ldr	r3, [pc, #244]	; c101150 <lcd_init+0x164>
 c101058:	e59f20f4 	ldr	r2, [pc, #244]	; c101154 <lcd_init+0x168>
 c10105c:	e5832000 	str	r2, [r3]
 c101060:	e59f30f0 	ldr	r3, [pc, #240]	; c101158 <lcd_init+0x16c>
 c101064:	e59f20f0 	ldr	r2, [pc, #240]	; c10115c <lcd_init+0x170>
 c101068:	e5832000 	str	r2, [r3]
 c10106c:	e59f30ec 	ldr	r3, [pc, #236]	; c101160 <lcd_init+0x174>
 c101070:	e59f20ec 	ldr	r2, [pc, #236]	; c101164 <lcd_init+0x178>
 c101074:	e5832000 	str	r2, [r3]
 c101078:	e59f30e8 	ldr	r3, [pc, #232]	; c101168 <lcd_init+0x17c>
 c10107c:	e59f20e8 	ldr	r2, [pc, #232]	; c10116c <lcd_init+0x180>
 c101080:	e5832000 	str	r2, [r3]
 c101084:	e59f30e4 	ldr	r3, [pc, #228]	; c101170 <lcd_init+0x184>
 c101088:	e3a02000 	mov	r2, #0
 c10108c:	e5832000 	str	r2, [r3]
 c101090:	e59f30dc 	ldr	r3, [pc, #220]	; c101174 <lcd_init+0x188>
 c101094:	e3a02000 	mov	r2, #0
 c101098:	e5832000 	str	r2, [r3]
 c10109c:	e59f30d4 	ldr	r3, [pc, #212]	; c101178 <lcd_init+0x18c>
 c1010a0:	e3a02000 	mov	r2, #0
 c1010a4:	e5832000 	str	r2, [r3]
 c1010a8:	e59f30cc 	ldr	r3, [pc, #204]	; c10117c <lcd_init+0x190>
 c1010ac:	e59f20cc 	ldr	r2, [pc, #204]	; c101180 <lcd_init+0x194>
 c1010b0:	e5832000 	str	r2, [r3]
 c1010b4:	e59f30c8 	ldr	r3, [pc, #200]	; c101184 <lcd_init+0x198>
 c1010b8:	e3a02000 	mov	r2, #0
 c1010bc:	e5832000 	str	r2, [r3]
 c1010c0:	e59f30c0 	ldr	r3, [pc, #192]	; c101188 <lcd_init+0x19c>
 c1010c4:	e59f20c0 	ldr	r2, [pc, #192]	; c10118c <lcd_init+0x1a0>
 c1010c8:	e1a020a2 	lsr	r2, r2, #1
 c1010cc:	e3822201 	orr	r2, r2, #268435456	; 0x10000000
 c1010d0:	e5832000 	str	r2, [r3]
 c1010d4:	e59f20b4 	ldr	r2, [pc, #180]	; c101190 <lcd_init+0x1a4>
 c1010d8:	e59f30ac 	ldr	r3, [pc, #172]	; c10118c <lcd_init+0x1a0>
 c1010dc:	e2833c96 	add	r3, r3, #38400	; 0x9600
 c1010e0:	e3c334ff 	bic	r3, r3, #-16777216	; 0xff000000
 c1010e4:	e3c33503 	bic	r3, r3, #12582912	; 0xc00000
 c1010e8:	e1a030a3 	lsr	r3, r3, #1
 c1010ec:	e3833202 	orr	r3, r3, #536870912	; 0x20000000
 c1010f0:	e5823000 	str	r3, [r2]
 c1010f4:	e59f3098 	ldr	r3, [pc, #152]	; c101194 <lcd_init+0x1a8>
 c1010f8:	e3a02050 	mov	r2, #80	; 0x50
 c1010fc:	e5832000 	str	r2, [r3]
 c101100:	e3a0361f 	mov	r3, #32505856	; 0x1f00000
 c101104:	e59f208c 	ldr	r2, [pc, #140]	; c101198 <lcd_init+0x1ac>
 c101108:	e5832000 	str	r2, [r3]
 c10110c:	eb000031 	bl	c1011d8 <lcd_off>
 c101110:	e24bd00c 	sub	sp, fp, #12
 c101114:	e89d6800 	ldm	sp, {fp, sp, lr}
 c101118:	e12fff1e 	bx	lr
 c10111c:	01d2001c 	.word	0x01d2001c
 c101120:	0000aaaa 	.word	0x0000aaaa
 c101124:	01d20024 	.word	0x01d20024
 c101128:	01f00044 	.word	0x01f00044
 c10112c:	00012210 	.word	0x00012210
 c101130:	01f00020 	.word	0x01f00020
 c101134:	0000a5a5 	.word	0x0000a5a5
 c101138:	01f00024 	.word	0x01f00024
 c10113c:	0ba5da65 	.word	0x0ba5da65
 c101140:	01f00028 	.word	0x01f00028
 c101144:	000a5a5f 	.word	0x000a5a5f
 c101148:	01f0002c 	.word	0x01f0002c
 c10114c:	00000d6b 	.word	0x00000d6b
 c101150:	01f00030 	.word	0x01f00030
 c101154:	0eb7b5ed 	.word	0x0eb7b5ed
 c101158:	01f00034 	.word	0x01f00034
 c10115c:	00007dbe 	.word	0x00007dbe
 c101160:	01f00038 	.word	0x01f00038
 c101164:	0007ebdf 	.word	0x0007ebdf
 c101168:	01f0003c 	.word	0x01f0003c
 c10116c:	07fdfbfe 	.word	0x07fdfbfe
 c101170:	01f00014 	.word	0x01f00014
 c101174:	01f00018 	.word	0x01f00018
 c101178:	01f0001c 	.word	0x01f0001c
 c10117c:	01f00004 	.word	0x01f00004
 c101180:	00013cef 	.word	0x00013cef
 c101184:	01f00040 	.word	0x01f00040
 c101188:	01f00008 	.word	0x01f00008
 c10118c:	0c108b9c 	.word	0x0c108b9c
 c101190:	01f0000c 	.word	0x01f0000c
 c101194:	01f00010 	.word	0x01f00010
 c101198:	0001c020 	.word	0x0001c020

0c10119c <lcd_on>:
 c10119c:	e1a0c00d 	mov	ip, sp
 c1011a0:	e92dd800 	push	{fp, ip, lr, pc}
 c1011a4:	e24cb004 	sub	fp, ip, #4
 c1011a8:	e3a0361f 	mov	r3, #32505856	; 0x1f00000
 c1011ac:	e3a0261f 	mov	r2, #32505856	; 0x1f00000
 c1011b0:	e5922000 	ldr	r2, [r2]
 c1011b4:	e3822001 	orr	r2, r2, #1
 c1011b8:	e5832000 	str	r2, [r3]
 c1011bc:	e59f3010 	ldr	r3, [pc, #16]	; c1011d4 <lcd_on+0x38>
 c1011c0:	e3a02001 	mov	r2, #1
 c1011c4:	e5c32000 	strb	r2, [r3]
 c1011c8:	e24bd00c 	sub	sp, fp, #12
 c1011cc:	e89d6800 	ldm	sp, {fp, sp, lr}
 c1011d0:	e12fff1e 	bx	lr
 c1011d4:	0c11224c 	.word	0x0c11224c

0c1011d8 <lcd_off>:
 c1011d8:	e1a0c00d 	mov	ip, sp
 c1011dc:	e92dd800 	push	{fp, ip, lr, pc}
 c1011e0:	e24cb004 	sub	fp, ip, #4
 c1011e4:	e3a0361f 	mov	r3, #32505856	; 0x1f00000
 c1011e8:	e3a0261f 	mov	r2, #32505856	; 0x1f00000
 c1011ec:	e5922000 	ldr	r2, [r2]
 c1011f0:	e3c22001 	bic	r2, r2, #1
 c1011f4:	e5832000 	str	r2, [r3]
 c1011f8:	e59f3010 	ldr	r3, [pc, #16]	; c101210 <lcd_off+0x38>
 c1011fc:	e3a02000 	mov	r2, #0
 c101200:	e5c32000 	strb	r2, [r3]
 c101204:	e24bd00c 	sub	sp, fp, #12
 c101208:	e89d6800 	ldm	sp, {fp, sp, lr}
 c10120c:	e12fff1e 	bx	lr
 c101210:	0c11224c 	.word	0x0c11224c

0c101214 <lcd_status>:
 c101214:	e1a0c00d 	mov	ip, sp
 c101218:	e92dd800 	push	{fp, ip, lr, pc}
 c10121c:	e24cb004 	sub	fp, ip, #4
 c101220:	e59f3010 	ldr	r3, [pc, #16]	; c101238 <lcd_status+0x24>
 c101224:	e5d33000 	ldrb	r3, [r3]
 c101228:	e1a00003 	mov	r0, r3
 c10122c:	e24bd00c 	sub	sp, fp, #12
 c101230:	e89d6800 	ldm	sp, {fp, sp, lr}
 c101234:	e12fff1e 	bx	lr
 c101238:	0c11224c 	.word	0x0c11224c

0c10123c <lcd_clear>:
 c10123c:	e1a0c00d 	mov	ip, sp
 c101240:	e92dd800 	push	{fp, ip, lr, pc}
 c101244:	e24cb004 	sub	fp, ip, #4
 c101248:	e24dd008 	sub	sp, sp, #8
 c10124c:	e3a03000 	mov	r3, #0
 c101250:	e50b3010 	str	r3, [fp, #-16]
 c101254:	ea000007 	b	c101278 <lcd_clear+0x3c>
 c101258:	e59f2034 	ldr	r2, [pc, #52]	; c101294 <lcd_clear+0x58>
 c10125c:	e51b3010 	ldr	r3, [fp, #-16]
 c101260:	e0823003 	add	r3, r2, r3
 c101264:	e3a02000 	mov	r2, #0
 c101268:	e5c32000 	strb	r2, [r3]
 c10126c:	e51b3010 	ldr	r3, [fp, #-16]
 c101270:	e2833001 	add	r3, r3, #1
 c101274:	e50b3010 	str	r3, [fp, #-16]
 c101278:	e51b2010 	ldr	r2, [fp, #-16]
 c10127c:	e59f3014 	ldr	r3, [pc, #20]	; c101298 <lcd_clear+0x5c>
 c101280:	e1520003 	cmp	r2, r3
 c101284:	9afffff3 	bls	c101258 <lcd_clear+0x1c>
 c101288:	e24bd00c 	sub	sp, fp, #12
 c10128c:	e89d6800 	ldm	sp, {fp, sp, lr}
 c101290:	e12fff1e 	bx	lr
 c101294:	0c108b9c 	.word	0x0c108b9c
 c101298:	000095ff 	.word	0x000095ff

0c10129c <lcd_putpixel>:
 c10129c:	e1a0c00d 	mov	ip, sp
 c1012a0:	e92dd800 	push	{fp, ip, lr, pc}
 c1012a4:	e24cb004 	sub	fp, ip, #4
 c1012a8:	e24dd010 	sub	sp, sp, #16
 c1012ac:	e1a03002 	mov	r3, r2
 c1012b0:	e14b01b6 	strh	r0, [fp, #-22]	; 0xffffffea
 c1012b4:	e14b11b8 	strh	r1, [fp, #-24]	; 0xffffffe8
 c1012b8:	e54b3019 	strb	r3, [fp, #-25]	; 0xffffffe7
 c1012bc:	e15b31b6 	ldrh	r3, [fp, #-22]	; 0xffffffea
 c1012c0:	e1a030a3 	lsr	r3, r3, #1
 c1012c4:	e1a03803 	lsl	r3, r3, #16
 c1012c8:	e1a02823 	lsr	r2, r3, #16
 c1012cc:	e15b31b8 	ldrh	r3, [fp, #-24]	; 0xffffffe8
 c1012d0:	e1a01003 	mov	r1, r3
 c1012d4:	e1a01101 	lsl	r1, r1, #2
 c1012d8:	e0813003 	add	r3, r1, r3
 c1012dc:	e1a03283 	lsl	r3, r3, #5
 c1012e0:	e1a03803 	lsl	r3, r3, #16
 c1012e4:	e1a03823 	lsr	r3, r3, #16
 c1012e8:	e0823003 	add	r3, r2, r3
 c1012ec:	e14b30be 	strh	r3, [fp, #-14]
 c1012f0:	e15b31b6 	ldrh	r3, [fp, #-22]	; 0xffffffea
 c1012f4:	e2033001 	and	r3, r3, #1
 c1012f8:	e3530000 	cmp	r3, #0
 c1012fc:	1a000001 	bne	c101308 <lcd_putpixel+0x6c>
 c101300:	e3a03004 	mov	r3, #4
 c101304:	ea000000 	b	c10130c <lcd_putpixel+0x70>
 c101308:	e3a03000 	mov	r3, #0
 c10130c:	e54b300f 	strb	r3, [fp, #-15]
 c101310:	e15b30be 	ldrh	r3, [fp, #-14]
 c101314:	e59f2068 	ldr	r2, [pc, #104]	; c101384 <lcd_putpixel+0xe8>
 c101318:	e7d23003 	ldrb	r3, [r2, r3]
 c10131c:	e54b3010 	strb	r3, [fp, #-16]
 c101320:	e55b300f 	ldrb	r3, [fp, #-15]
 c101324:	e3a0200f 	mov	r2, #15
 c101328:	e1a03312 	lsl	r3, r2, r3
 c10132c:	e20330ff 	and	r3, r3, #255	; 0xff
 c101330:	e1e03003 	mvn	r3, r3
 c101334:	e20320ff 	and	r2, r3, #255	; 0xff
 c101338:	e55b3010 	ldrb	r3, [fp, #-16]
 c10133c:	e0023003 	and	r3, r2, r3
 c101340:	e20330ff 	and	r3, r3, #255	; 0xff
 c101344:	e54b3010 	strb	r3, [fp, #-16]
 c101348:	e55b2019 	ldrb	r2, [fp, #-25]	; 0xffffffe7
 c10134c:	e55b300f 	ldrb	r3, [fp, #-15]
 c101350:	e1a03312 	lsl	r3, r2, r3
 c101354:	e20320ff 	and	r2, r3, #255	; 0xff
 c101358:	e55b3010 	ldrb	r3, [fp, #-16]
 c10135c:	e1823003 	orr	r3, r2, r3
 c101360:	e20330ff 	and	r3, r3, #255	; 0xff
 c101364:	e54b3010 	strb	r3, [fp, #-16]
 c101368:	e15b30be 	ldrh	r3, [fp, #-14]
 c10136c:	e59f2010 	ldr	r2, [pc, #16]	; c101384 <lcd_putpixel+0xe8>
 c101370:	e55b1010 	ldrb	r1, [fp, #-16]
 c101374:	e7c21003 	strb	r1, [r2, r3]
 c101378:	e24bd00c 	sub	sp, fp, #12
 c10137c:	e89d6800 	ldm	sp, {fp, sp, lr}
 c101380:	e12fff1e 	bx	lr
 c101384:	0c108b9c 	.word	0x0c108b9c

0c101388 <lcd_getpixel>:
 c101388:	e1a0c00d 	mov	ip, sp
 c10138c:	e92dd800 	push	{fp, ip, lr, pc}
 c101390:	e24cb004 	sub	fp, ip, #4
 c101394:	e24dd010 	sub	sp, sp, #16
 c101398:	e1a02000 	mov	r2, r0
 c10139c:	e1a03001 	mov	r3, r1
 c1013a0:	e14b21b6 	strh	r2, [fp, #-22]	; 0xffffffea
 c1013a4:	e14b31b8 	strh	r3, [fp, #-24]	; 0xffffffe8
 c1013a8:	e15b31b6 	ldrh	r3, [fp, #-22]	; 0xffffffea
 c1013ac:	e1a030a3 	lsr	r3, r3, #1
 c1013b0:	e1a03803 	lsl	r3, r3, #16
 c1013b4:	e1a03823 	lsr	r3, r3, #16
 c1013b8:	e1a01003 	mov	r1, r3
 c1013bc:	e15b21b8 	ldrh	r2, [fp, #-24]	; 0xffffffe8
 c1013c0:	e1a03002 	mov	r3, r2
 c1013c4:	e1a03103 	lsl	r3, r3, #2
 c1013c8:	e0833002 	add	r3, r3, r2
 c1013cc:	e1a03283 	lsl	r3, r3, #5
 c1013d0:	e0813003 	add	r3, r1, r3
 c1013d4:	e59f2044 	ldr	r2, [pc, #68]	; c101420 <lcd_getpixel+0x98>
 c1013d8:	e7d23003 	ldrb	r3, [r2, r3]
 c1013dc:	e54b300d 	strb	r3, [fp, #-13]
 c1013e0:	e55b200d 	ldrb	r2, [fp, #-13]
 c1013e4:	e15b31b6 	ldrh	r3, [fp, #-22]	; 0xffffffea
 c1013e8:	e2033001 	and	r3, r3, #1
 c1013ec:	e3530000 	cmp	r3, #0
 c1013f0:	1a000001 	bne	c1013fc <lcd_getpixel+0x74>
 c1013f4:	e3a03004 	mov	r3, #4
 c1013f8:	ea000000 	b	c101400 <lcd_getpixel+0x78>
 c1013fc:	e3a03000 	mov	r3, #0
 c101400:	e1a03352 	asr	r3, r2, r3
 c101404:	e20330ff 	and	r3, r3, #255	; 0xff
 c101408:	e203300f 	and	r3, r3, #15
 c10140c:	e20330ff 	and	r3, r3, #255	; 0xff
 c101410:	e1a00003 	mov	r0, r3
 c101414:	e24bd00c 	sub	sp, fp, #12
 c101418:	e89d6800 	ldm	sp, {fp, sp, lr}
 c10141c:	e12fff1e 	bx	lr
 c101420:	0c108b9c 	.word	0x0c108b9c

0c101424 <lcd_draw_hline>:
 c101424:	e1a0c00d 	mov	ip, sp
 c101428:	e92dd800 	push	{fp, ip, lr, pc}
 c10142c:	e24cb004 	sub	fp, ip, #4
 c101430:	e24dd010 	sub	sp, sp, #16
 c101434:	e14b01b6 	strh	r0, [fp, #-22]	; 0xffffffea
 c101438:	e14b11b8 	strh	r1, [fp, #-24]	; 0xffffffe8
 c10143c:	e14b21ba 	strh	r2, [fp, #-26]	; 0xffffffe6
 c101440:	e54b301b 	strb	r3, [fp, #-27]	; 0xffffffe5
 c101444:	ea00003e 	b	c101544 <lcd_draw_hline+0x120>
 c101448:	e15b31b6 	ldrh	r3, [fp, #-22]	; 0xffffffea
 c10144c:	e14b30be 	strh	r3, [fp, #-14]
 c101450:	ea000034 	b	c101528 <lcd_draw_hline+0x104>
 c101454:	e15b30be 	ldrh	r3, [fp, #-14]
 c101458:	e1a030a3 	lsr	r3, r3, #1
 c10145c:	e1a03803 	lsl	r3, r3, #16
 c101460:	e1a03823 	lsr	r3, r3, #16
 c101464:	e1a01003 	mov	r1, r3
 c101468:	e15b21ba 	ldrh	r2, [fp, #-26]	; 0xffffffe6
 c10146c:	e1a03002 	mov	r3, r2
 c101470:	e1a03103 	lsl	r3, r3, #2
 c101474:	e0833002 	add	r3, r3, r2
 c101478:	e1a03283 	lsl	r3, r3, #5
 c10147c:	e0811003 	add	r1, r1, r3
 c101480:	e15b30be 	ldrh	r3, [fp, #-14]
 c101484:	e1a030a3 	lsr	r3, r3, #1
 c101488:	e1a03803 	lsl	r3, r3, #16
 c10148c:	e1a03823 	lsr	r3, r3, #16
 c101490:	e1a00003 	mov	r0, r3
 c101494:	e15b21ba 	ldrh	r2, [fp, #-26]	; 0xffffffe6
 c101498:	e1a03002 	mov	r3, r2
 c10149c:	e1a03103 	lsl	r3, r3, #2
 c1014a0:	e0833002 	add	r3, r3, r2
 c1014a4:	e1a03283 	lsl	r3, r3, #5
 c1014a8:	e0803003 	add	r3, r0, r3
 c1014ac:	e59f20c4 	ldr	r2, [pc, #196]	; c101578 <lcd_draw_hline+0x154>
 c1014b0:	e7d23003 	ldrb	r3, [r2, r3]
 c1014b4:	e20320ff 	and	r2, r3, #255	; 0xff
 c1014b8:	e15b30be 	ldrh	r3, [fp, #-14]
 c1014bc:	e2033001 	and	r3, r3, #1
 c1014c0:	e1a03103 	lsl	r3, r3, #2
 c1014c4:	e3a000f0 	mov	r0, #240	; 0xf0
 c1014c8:	e1a03350 	asr	r3, r0, r3
 c1014cc:	e20330ff 	and	r3, r3, #255	; 0xff
 c1014d0:	e1e03003 	mvn	r3, r3
 c1014d4:	e20330ff 	and	r3, r3, #255	; 0xff
 c1014d8:	e0023003 	and	r3, r2, r3
 c1014dc:	e20320ff 	and	r2, r3, #255	; 0xff
 c1014e0:	e55b001b 	ldrb	r0, [fp, #-27]	; 0xffffffe5
 c1014e4:	e15b30be 	ldrh	r3, [fp, #-14]
 c1014e8:	e2033001 	and	r3, r3, #1
 c1014ec:	e3530000 	cmp	r3, #0
 c1014f0:	1a000001 	bne	c1014fc <lcd_draw_hline+0xd8>
 c1014f4:	e3a03004 	mov	r3, #4
 c1014f8:	ea000000 	b	c101500 <lcd_draw_hline+0xdc>
 c1014fc:	e3a03000 	mov	r3, #0
 c101500:	e1a03310 	lsl	r3, r0, r3
 c101504:	e20330ff 	and	r3, r3, #255	; 0xff
 c101508:	e1823003 	orr	r3, r2, r3
 c10150c:	e20330ff 	and	r3, r3, #255	; 0xff
 c101510:	e20320ff 	and	r2, r3, #255	; 0xff
 c101514:	e59f305c 	ldr	r3, [pc, #92]	; c101578 <lcd_draw_hline+0x154>
 c101518:	e7c32001 	strb	r2, [r3, r1]
 c10151c:	e15b30be 	ldrh	r3, [fp, #-14]
 c101520:	e2833001 	add	r3, r3, #1
 c101524:	e14b30be 	strh	r3, [fp, #-14]
 c101528:	e15b20be 	ldrh	r2, [fp, #-14]
 c10152c:	e15b31b8 	ldrh	r3, [fp, #-24]	; 0xffffffe8
 c101530:	e1520003 	cmp	r2, r3
 c101534:	9affffc6 	bls	c101454 <lcd_draw_hline+0x30>
 c101538:	e15b31ba 	ldrh	r3, [fp, #-26]	; 0xffffffe6
 c10153c:	e2833001 	add	r3, r3, #1
 c101540:	e14b31ba 	strh	r3, [fp, #-26]	; 0xffffffe6
 c101544:	e1db30b4 	ldrh	r3, [fp, #4]
 c101548:	e3530000 	cmp	r3, #0
 c10154c:	03a03000 	moveq	r3, #0
 c101550:	13a03001 	movne	r3, #1
 c101554:	e20330ff 	and	r3, r3, #255	; 0xff
 c101558:	e1db20b4 	ldrh	r2, [fp, #4]
 c10155c:	e2422001 	sub	r2, r2, #1
 c101560:	e1cb20b4 	strh	r2, [fp, #4]
 c101564:	e3530000 	cmp	r3, #0
 c101568:	1affffb6 	bne	c101448 <lcd_draw_hline+0x24>
 c10156c:	e24bd00c 	sub	sp, fp, #12
 c101570:	e89d6800 	ldm	sp, {fp, sp, lr}
 c101574:	e12fff1e 	bx	lr
 c101578:	0c108b9c 	.word	0x0c108b9c

0c10157c <lcd_draw_vline>:
 c10157c:	e1a0c00d 	mov	ip, sp
 c101580:	e92dd800 	push	{fp, ip, lr, pc}
 c101584:	e24cb004 	sub	fp, ip, #4
 c101588:	e24dd010 	sub	sp, sp, #16
 c10158c:	e14b01b6 	strh	r0, [fp, #-22]	; 0xffffffea
 c101590:	e14b11b8 	strh	r1, [fp, #-24]	; 0xffffffe8
 c101594:	e14b21ba 	strh	r2, [fp, #-26]	; 0xffffffe6
 c101598:	e54b301b 	strb	r3, [fp, #-27]	; 0xffffffe5
 c10159c:	ea00003e 	b	c10169c <lcd_draw_vline+0x120>
 c1015a0:	e15b31b6 	ldrh	r3, [fp, #-22]	; 0xffffffea
 c1015a4:	e14b30be 	strh	r3, [fp, #-14]
 c1015a8:	ea000034 	b	c101680 <lcd_draw_vline+0x104>
 c1015ac:	e15b31ba 	ldrh	r3, [fp, #-26]	; 0xffffffe6
 c1015b0:	e1a030a3 	lsr	r3, r3, #1
 c1015b4:	e1a03803 	lsl	r3, r3, #16
 c1015b8:	e1a03823 	lsr	r3, r3, #16
 c1015bc:	e1a01003 	mov	r1, r3
 c1015c0:	e15b20be 	ldrh	r2, [fp, #-14]
 c1015c4:	e1a03002 	mov	r3, r2
 c1015c8:	e1a03103 	lsl	r3, r3, #2
 c1015cc:	e0833002 	add	r3, r3, r2
 c1015d0:	e1a03283 	lsl	r3, r3, #5
 c1015d4:	e0811003 	add	r1, r1, r3
 c1015d8:	e15b31ba 	ldrh	r3, [fp, #-26]	; 0xffffffe6
 c1015dc:	e1a030a3 	lsr	r3, r3, #1
 c1015e0:	e1a03803 	lsl	r3, r3, #16
 c1015e4:	e1a03823 	lsr	r3, r3, #16
 c1015e8:	e1a00003 	mov	r0, r3
 c1015ec:	e15b20be 	ldrh	r2, [fp, #-14]
 c1015f0:	e1a03002 	mov	r3, r2
 c1015f4:	e1a03103 	lsl	r3, r3, #2
 c1015f8:	e0833002 	add	r3, r3, r2
 c1015fc:	e1a03283 	lsl	r3, r3, #5
 c101600:	e0803003 	add	r3, r0, r3
 c101604:	e59f20c4 	ldr	r2, [pc, #196]	; c1016d0 <lcd_draw_vline+0x154>
 c101608:	e7d23003 	ldrb	r3, [r2, r3]
 c10160c:	e20320ff 	and	r2, r3, #255	; 0xff
 c101610:	e15b31ba 	ldrh	r3, [fp, #-26]	; 0xffffffe6
 c101614:	e2033001 	and	r3, r3, #1
 c101618:	e1a03103 	lsl	r3, r3, #2
 c10161c:	e3a000f0 	mov	r0, #240	; 0xf0
 c101620:	e1a03350 	asr	r3, r0, r3
 c101624:	e20330ff 	and	r3, r3, #255	; 0xff
 c101628:	e1e03003 	mvn	r3, r3
 c10162c:	e20330ff 	and	r3, r3, #255	; 0xff
 c101630:	e0023003 	and	r3, r2, r3
 c101634:	e20320ff 	and	r2, r3, #255	; 0xff
 c101638:	e55b001b 	ldrb	r0, [fp, #-27]	; 0xffffffe5
 c10163c:	e15b31ba 	ldrh	r3, [fp, #-26]	; 0xffffffe6
 c101640:	e2033001 	and	r3, r3, #1
 c101644:	e3530000 	cmp	r3, #0
 c101648:	1a000001 	bne	c101654 <lcd_draw_vline+0xd8>
 c10164c:	e3a03004 	mov	r3, #4
 c101650:	ea000000 	b	c101658 <lcd_draw_vline+0xdc>
 c101654:	e3a03000 	mov	r3, #0
 c101658:	e1a03310 	lsl	r3, r0, r3
 c10165c:	e20330ff 	and	r3, r3, #255	; 0xff
 c101660:	e1823003 	orr	r3, r2, r3
 c101664:	e20330ff 	and	r3, r3, #255	; 0xff
 c101668:	e20320ff 	and	r2, r3, #255	; 0xff
 c10166c:	e59f305c 	ldr	r3, [pc, #92]	; c1016d0 <lcd_draw_vline+0x154>
 c101670:	e7c32001 	strb	r2, [r3, r1]
 c101674:	e15b30be 	ldrh	r3, [fp, #-14]
 c101678:	e2833001 	add	r3, r3, #1
 c10167c:	e14b30be 	strh	r3, [fp, #-14]
 c101680:	e15b20be 	ldrh	r2, [fp, #-14]
 c101684:	e15b31b8 	ldrh	r3, [fp, #-24]	; 0xffffffe8
 c101688:	e1520003 	cmp	r2, r3
 c10168c:	9affffc6 	bls	c1015ac <lcd_draw_vline+0x30>
 c101690:	e15b31ba 	ldrh	r3, [fp, #-26]	; 0xffffffe6
 c101694:	e2833001 	add	r3, r3, #1
 c101698:	e14b31ba 	strh	r3, [fp, #-26]	; 0xffffffe6
 c10169c:	e1db30b4 	ldrh	r3, [fp, #4]
 c1016a0:	e3530000 	cmp	r3, #0
 c1016a4:	03a03000 	moveq	r3, #0
 c1016a8:	13a03001 	movne	r3, #1
 c1016ac:	e20330ff 	and	r3, r3, #255	; 0xff
 c1016b0:	e1db20b4 	ldrh	r2, [fp, #4]
 c1016b4:	e2422001 	sub	r2, r2, #1
 c1016b8:	e1cb20b4 	strh	r2, [fp, #4]
 c1016bc:	e3530000 	cmp	r3, #0
 c1016c0:	1affffb6 	bne	c1015a0 <lcd_draw_vline+0x24>
 c1016c4:	e24bd00c 	sub	sp, fp, #12
 c1016c8:	e89d6800 	ldm	sp, {fp, sp, lr}
 c1016cc:	e12fff1e 	bx	lr
 c1016d0:	0c108b9c 	.word	0x0c108b9c

0c1016d4 <lcd_draw_box>:
 c1016d4:	e1a0c00d 	mov	ip, sp
 c1016d8:	e92dd800 	push	{fp, ip, lr, pc}
 c1016dc:	e24cb004 	sub	fp, ip, #4
 c1016e0:	e24dd010 	sub	sp, sp, #16
 c1016e4:	e14b00be 	strh	r0, [fp, #-14]
 c1016e8:	e14b11b0 	strh	r1, [fp, #-16]
 c1016ec:	e14b21b2 	strh	r2, [fp, #-18]	; 0xffffffee
 c1016f0:	e14b31b4 	strh	r3, [fp, #-20]	; 0xffffffec
 c1016f4:	ea000027 	b	c101798 <lcd_draw_box+0xc4>
 c1016f8:	e15b00be 	ldrh	r0, [fp, #-14]
 c1016fc:	e15b11b2 	ldrh	r1, [fp, #-18]	; 0xffffffee
 c101700:	e15b21b0 	ldrh	r2, [fp, #-16]
 c101704:	e5db3004 	ldrb	r3, [fp, #4]
 c101708:	e3a0c001 	mov	ip, #1
 c10170c:	e58dc000 	str	ip, [sp]
 c101710:	ebffff43 	bl	c101424 <lcd_draw_hline>
 c101714:	e15b00be 	ldrh	r0, [fp, #-14]
 c101718:	e15b11b2 	ldrh	r1, [fp, #-18]	; 0xffffffee
 c10171c:	e15b21b4 	ldrh	r2, [fp, #-20]	; 0xffffffec
 c101720:	e5db3004 	ldrb	r3, [fp, #4]
 c101724:	e3a0c001 	mov	ip, #1
 c101728:	e58dc000 	str	ip, [sp]
 c10172c:	ebffff3c 	bl	c101424 <lcd_draw_hline>
 c101730:	e15b01b0 	ldrh	r0, [fp, #-16]
 c101734:	e15b11b4 	ldrh	r1, [fp, #-20]	; 0xffffffec
 c101738:	e15b20be 	ldrh	r2, [fp, #-14]
 c10173c:	e5db3004 	ldrb	r3, [fp, #4]
 c101740:	e3a0c001 	mov	ip, #1
 c101744:	e58dc000 	str	ip, [sp]
 c101748:	ebffff8b 	bl	c10157c <lcd_draw_vline>
 c10174c:	e15b01b0 	ldrh	r0, [fp, #-16]
 c101750:	e15b11b4 	ldrh	r1, [fp, #-20]	; 0xffffffec
 c101754:	e15b21b2 	ldrh	r2, [fp, #-18]	; 0xffffffee
 c101758:	e5db3004 	ldrb	r3, [fp, #4]
 c10175c:	e3a0c001 	mov	ip, #1
 c101760:	e58dc000 	str	ip, [sp]
 c101764:	ebffff84 	bl	c10157c <lcd_draw_vline>
 c101768:	e15b30be 	ldrh	r3, [fp, #-14]
 c10176c:	e2833001 	add	r3, r3, #1
 c101770:	e14b30be 	strh	r3, [fp, #-14]
 c101774:	e15b31b2 	ldrh	r3, [fp, #-18]	; 0xffffffee
 c101778:	e2433001 	sub	r3, r3, #1
 c10177c:	e14b31b2 	strh	r3, [fp, #-18]	; 0xffffffee
 c101780:	e15b31b0 	ldrh	r3, [fp, #-16]
 c101784:	e2833001 	add	r3, r3, #1
 c101788:	e14b31b0 	strh	r3, [fp, #-16]
 c10178c:	e15b31b4 	ldrh	r3, [fp, #-20]	; 0xffffffec
 c101790:	e2433001 	sub	r3, r3, #1
 c101794:	e14b31b4 	strh	r3, [fp, #-20]	; 0xffffffec
 c101798:	e1db30b8 	ldrh	r3, [fp, #8]
 c10179c:	e3530000 	cmp	r3, #0
 c1017a0:	03a03000 	moveq	r3, #0
 c1017a4:	13a03001 	movne	r3, #1
 c1017a8:	e20330ff 	and	r3, r3, #255	; 0xff
 c1017ac:	e1db20b8 	ldrh	r2, [fp, #8]
 c1017b0:	e2422001 	sub	r2, r2, #1
 c1017b4:	e1cb20b8 	strh	r2, [fp, #8]
 c1017b8:	e3530000 	cmp	r3, #0
 c1017bc:	1affffcd 	bne	c1016f8 <lcd_draw_box+0x24>
 c1017c0:	e24bd00c 	sub	sp, fp, #12
 c1017c4:	e89d6800 	ldm	sp, {fp, sp, lr}
 c1017c8:	e12fff1e 	bx	lr

0c1017cc <lcd_putchar>:
 c1017cc:	e1a0c00d 	mov	ip, sp
 c1017d0:	e92dd800 	push	{fp, ip, lr, pc}
 c1017d4:	e24cb004 	sub	fp, ip, #4
 c1017d8:	e24dd010 	sub	sp, sp, #16
 c1017dc:	e14b01b6 	strh	r0, [fp, #-22]	; 0xffffffea
 c1017e0:	e14b11b8 	strh	r1, [fp, #-24]	; 0xffffffe8
 c1017e4:	e54b2019 	strb	r2, [fp, #-25]	; 0xffffffe7
 c1017e8:	e54b301a 	strb	r3, [fp, #-26]	; 0xffffffe6
 c1017ec:	e55b301a 	ldrb	r3, [fp, #-26]	; 0xffffffe6
 c1017f0:	e1a03203 	lsl	r3, r3, #4
 c1017f4:	e1a02003 	mov	r2, r3
 c1017f8:	e59f3240 	ldr	r3, [pc, #576]	; c101a40 <lcd_putchar+0x274>
 c1017fc:	e0823003 	add	r3, r2, r3
 c101800:	e50b3014 	str	r3, [fp, #-20]	; 0xffffffec
 c101804:	e3a03000 	mov	r3, #0
 c101808:	e54b300d 	strb	r3, [fp, #-13]
 c10180c:	ea000085 	b	c101a28 <lcd_putchar+0x25c>
 c101810:	e3a03000 	mov	r3, #0
 c101814:	e54b300e 	strb	r3, [fp, #-14]
 c101818:	ea00007c 	b	c101a10 <lcd_putchar+0x244>
 c10181c:	e55b300d 	ldrb	r3, [fp, #-13]
 c101820:	e51b2014 	ldr	r2, [fp, #-20]	; 0xffffffec
 c101824:	e0823003 	add	r3, r2, r3
 c101828:	e5d33000 	ldrb	r3, [r3]
 c10182c:	e1a02003 	mov	r2, r3
 c101830:	e55b300e 	ldrb	r3, [fp, #-14]
 c101834:	e3a01080 	mov	r1, #128	; 0x80
 c101838:	e1a03351 	asr	r3, r1, r3
 c10183c:	e0023003 	and	r3, r2, r3
 c101840:	e3530000 	cmp	r3, #0
 c101844:	0a00003e 	beq	c101944 <lcd_putchar+0x178>
 c101848:	e15b21b6 	ldrh	r2, [fp, #-22]	; 0xffffffea
 c10184c:	e55b300e 	ldrb	r3, [fp, #-14]
 c101850:	e0823003 	add	r3, r2, r3
 c101854:	e1a02fa3 	lsr	r2, r3, #31
 c101858:	e0823003 	add	r3, r2, r3
 c10185c:	e1a030c3 	asr	r3, r3, #1
 c101860:	e1a01003 	mov	r1, r3
 c101864:	e15b21b8 	ldrh	r2, [fp, #-24]	; 0xffffffe8
 c101868:	e55b300d 	ldrb	r3, [fp, #-13]
 c10186c:	e0822003 	add	r2, r2, r3
 c101870:	e1a03002 	mov	r3, r2
 c101874:	e1a03103 	lsl	r3, r3, #2
 c101878:	e0833002 	add	r3, r3, r2
 c10187c:	e1a03283 	lsl	r3, r3, #5
 c101880:	e0811003 	add	r1, r1, r3
 c101884:	e15b21b6 	ldrh	r2, [fp, #-22]	; 0xffffffea
 c101888:	e55b300e 	ldrb	r3, [fp, #-14]
 c10188c:	e0823003 	add	r3, r2, r3
 c101890:	e1a02fa3 	lsr	r2, r3, #31
 c101894:	e0823003 	add	r3, r2, r3
 c101898:	e1a030c3 	asr	r3, r3, #1
 c10189c:	e1a00003 	mov	r0, r3
 c1018a0:	e15b21b8 	ldrh	r2, [fp, #-24]	; 0xffffffe8
 c1018a4:	e55b300d 	ldrb	r3, [fp, #-13]
 c1018a8:	e0822003 	add	r2, r2, r3
 c1018ac:	e1a03002 	mov	r3, r2
 c1018b0:	e1a03103 	lsl	r3, r3, #2
 c1018b4:	e0833002 	add	r3, r3, r2
 c1018b8:	e1a03283 	lsl	r3, r3, #5
 c1018bc:	e0803003 	add	r3, r0, r3
 c1018c0:	e59f217c 	ldr	r2, [pc, #380]	; c101a44 <lcd_putchar+0x278>
 c1018c4:	e7d23003 	ldrb	r3, [r2, r3]
 c1018c8:	e20320ff 	and	r2, r3, #255	; 0xff
 c1018cc:	e15b01b6 	ldrh	r0, [fp, #-22]	; 0xffffffea
 c1018d0:	e55b300e 	ldrb	r3, [fp, #-14]
 c1018d4:	e0803003 	add	r3, r0, r3
 c1018d8:	e2033001 	and	r3, r3, #1
 c1018dc:	e1a03103 	lsl	r3, r3, #2
 c1018e0:	e3a000f0 	mov	r0, #240	; 0xf0
 c1018e4:	e1a03350 	asr	r3, r0, r3
 c1018e8:	e20330ff 	and	r3, r3, #255	; 0xff
 c1018ec:	e1e03003 	mvn	r3, r3
 c1018f0:	e20330ff 	and	r3, r3, #255	; 0xff
 c1018f4:	e0023003 	and	r3, r2, r3
 c1018f8:	e20320ff 	and	r2, r3, #255	; 0xff
 c1018fc:	e55b0019 	ldrb	r0, [fp, #-25]	; 0xffffffe7
 c101900:	e15bc1b6 	ldrh	ip, [fp, #-22]	; 0xffffffea
 c101904:	e55b300e 	ldrb	r3, [fp, #-14]
 c101908:	e08c3003 	add	r3, ip, r3
 c10190c:	e2033001 	and	r3, r3, #1
 c101910:	e3530000 	cmp	r3, #0
 c101914:	1a000001 	bne	c101920 <lcd_putchar+0x154>
 c101918:	e3a03004 	mov	r3, #4
 c10191c:	ea000000 	b	c101924 <lcd_putchar+0x158>
 c101920:	e3a03000 	mov	r3, #0
 c101924:	e1a03310 	lsl	r3, r0, r3
 c101928:	e20330ff 	and	r3, r3, #255	; 0xff
 c10192c:	e1823003 	orr	r3, r2, r3
 c101930:	e20330ff 	and	r3, r3, #255	; 0xff
 c101934:	e20320ff 	and	r2, r3, #255	; 0xff
 c101938:	e59f3104 	ldr	r3, [pc, #260]	; c101a44 <lcd_putchar+0x278>
 c10193c:	e7c32001 	strb	r2, [r3, r1]
 c101940:	ea00002f 	b	c101a04 <lcd_putchar+0x238>
 c101944:	e15b21b6 	ldrh	r2, [fp, #-22]	; 0xffffffea
 c101948:	e55b300e 	ldrb	r3, [fp, #-14]
 c10194c:	e0823003 	add	r3, r2, r3
 c101950:	e1a02fa3 	lsr	r2, r3, #31
 c101954:	e0823003 	add	r3, r2, r3
 c101958:	e1a030c3 	asr	r3, r3, #1
 c10195c:	e1a01003 	mov	r1, r3
 c101960:	e15b21b8 	ldrh	r2, [fp, #-24]	; 0xffffffe8
 c101964:	e55b300d 	ldrb	r3, [fp, #-13]
 c101968:	e0822003 	add	r2, r2, r3
 c10196c:	e1a03002 	mov	r3, r2
 c101970:	e1a03103 	lsl	r3, r3, #2
 c101974:	e0833002 	add	r3, r3, r2
 c101978:	e1a03283 	lsl	r3, r3, #5
 c10197c:	e0811003 	add	r1, r1, r3
 c101980:	e15b21b6 	ldrh	r2, [fp, #-22]	; 0xffffffea
 c101984:	e55b300e 	ldrb	r3, [fp, #-14]
 c101988:	e0823003 	add	r3, r2, r3
 c10198c:	e1a02fa3 	lsr	r2, r3, #31
 c101990:	e0823003 	add	r3, r2, r3
 c101994:	e1a030c3 	asr	r3, r3, #1
 c101998:	e1a00003 	mov	r0, r3
 c10199c:	e15b21b8 	ldrh	r2, [fp, #-24]	; 0xffffffe8
 c1019a0:	e55b300d 	ldrb	r3, [fp, #-13]
 c1019a4:	e0822003 	add	r2, r2, r3
 c1019a8:	e1a03002 	mov	r3, r2
 c1019ac:	e1a03103 	lsl	r3, r3, #2
 c1019b0:	e0833002 	add	r3, r3, r2
 c1019b4:	e1a03283 	lsl	r3, r3, #5
 c1019b8:	e0803003 	add	r3, r0, r3
 c1019bc:	e59f2080 	ldr	r2, [pc, #128]	; c101a44 <lcd_putchar+0x278>
 c1019c0:	e7d23003 	ldrb	r3, [r2, r3]
 c1019c4:	e20320ff 	and	r2, r3, #255	; 0xff
 c1019c8:	e15b01b6 	ldrh	r0, [fp, #-22]	; 0xffffffea
 c1019cc:	e55b300e 	ldrb	r3, [fp, #-14]
 c1019d0:	e0803003 	add	r3, r0, r3
 c1019d4:	e2033001 	and	r3, r3, #1
 c1019d8:	e1a03103 	lsl	r3, r3, #2
 c1019dc:	e3a000f0 	mov	r0, #240	; 0xf0
 c1019e0:	e1a03350 	asr	r3, r0, r3
 c1019e4:	e20330ff 	and	r3, r3, #255	; 0xff
 c1019e8:	e1e03003 	mvn	r3, r3
 c1019ec:	e20330ff 	and	r3, r3, #255	; 0xff
 c1019f0:	e0023003 	and	r3, r2, r3
 c1019f4:	e20330ff 	and	r3, r3, #255	; 0xff
 c1019f8:	e20320ff 	and	r2, r3, #255	; 0xff
 c1019fc:	e59f3040 	ldr	r3, [pc, #64]	; c101a44 <lcd_putchar+0x278>
 c101a00:	e7c32001 	strb	r2, [r3, r1]
 c101a04:	e55b300e 	ldrb	r3, [fp, #-14]
 c101a08:	e2833001 	add	r3, r3, #1
 c101a0c:	e54b300e 	strb	r3, [fp, #-14]
 c101a10:	e55b300e 	ldrb	r3, [fp, #-14]
 c101a14:	e3530007 	cmp	r3, #7
 c101a18:	9affff7f 	bls	c10181c <lcd_putchar+0x50>
 c101a1c:	e55b300d 	ldrb	r3, [fp, #-13]
 c101a20:	e2833001 	add	r3, r3, #1
 c101a24:	e54b300d 	strb	r3, [fp, #-13]
 c101a28:	e55b300d 	ldrb	r3, [fp, #-13]
 c101a2c:	e353000f 	cmp	r3, #15
 c101a30:	9affff76 	bls	c101810 <lcd_putchar+0x44>
 c101a34:	e24bd00c 	sub	sp, fp, #12
 c101a38:	e89d6800 	ldm	sp, {fp, sp, lr}
 c101a3c:	e12fff1e 	bx	lr
 c101a40:	0c107b80 	.word	0x0c107b80
 c101a44:	0c108b9c 	.word	0x0c108b9c

0c101a48 <lcd_puts>:
 c101a48:	e1a0c00d 	mov	ip, sp
 c101a4c:	e92dd800 	push	{fp, ip, lr, pc}
 c101a50:	e24cb004 	sub	fp, ip, #4
 c101a54:	e24dd010 	sub	sp, sp, #16
 c101a58:	e50b3018 	str	r3, [fp, #-24]	; 0xffffffe8
 c101a5c:	e14b00be 	strh	r0, [fp, #-14]
 c101a60:	e14b11b0 	strh	r1, [fp, #-16]
 c101a64:	e1a03002 	mov	r3, r2
 c101a68:	e54b3011 	strb	r3, [fp, #-17]	; 0xffffffef
 c101a6c:	ea00000b 	b	c101aa0 <lcd_puts+0x58>
 c101a70:	e51b3018 	ldr	r3, [fp, #-24]	; 0xffffffe8
 c101a74:	e5d33000 	ldrb	r3, [r3]
 c101a78:	e15b00be 	ldrh	r0, [fp, #-14]
 c101a7c:	e15b11b0 	ldrh	r1, [fp, #-16]
 c101a80:	e55b2011 	ldrb	r2, [fp, #-17]	; 0xffffffef
 c101a84:	ebffff50 	bl	c1017cc <lcd_putchar>
 c101a88:	e51b3018 	ldr	r3, [fp, #-24]	; 0xffffffe8
 c101a8c:	e2833001 	add	r3, r3, #1
 c101a90:	e50b3018 	str	r3, [fp, #-24]	; 0xffffffe8
 c101a94:	e15b30be 	ldrh	r3, [fp, #-14]
 c101a98:	e2833008 	add	r3, r3, #8
 c101a9c:	e14b30be 	strh	r3, [fp, #-14]
 c101aa0:	e51b3018 	ldr	r3, [fp, #-24]	; 0xffffffe8
 c101aa4:	e5d33000 	ldrb	r3, [r3]
 c101aa8:	e3530000 	cmp	r3, #0
 c101aac:	1affffef 	bne	c101a70 <lcd_puts+0x28>
 c101ab0:	e24bd00c 	sub	sp, fp, #12
 c101ab4:	e89d6800 	ldm	sp, {fp, sp, lr}
 c101ab8:	e12fff1e 	bx	lr

0c101abc <lcd_putint>:
 c101abc:	e1a0c00d 	mov	ip, sp
 c101ac0:	e92dd800 	push	{fp, ip, lr, pc}
 c101ac4:	e24cb004 	sub	fp, ip, #4
 c101ac8:	e24dd018 	sub	sp, sp, #24
 c101acc:	e50b3020 	str	r3, [fp, #-32]	; 0xffffffe0
 c101ad0:	e14b01b6 	strh	r0, [fp, #-22]	; 0xffffffea
 c101ad4:	e14b11b8 	strh	r1, [fp, #-24]	; 0xffffffe8
 c101ad8:	e1a03002 	mov	r3, r2
 c101adc:	e54b3019 	strb	r3, [fp, #-25]	; 0xffffffe7
 c101ae0:	e59f3148 	ldr	r3, [pc, #328]	; c101c30 <lcd_putint+0x174>
 c101ae4:	e50b3010 	str	r3, [fp, #-16]
 c101ae8:	e51b3010 	ldr	r3, [fp, #-16]
 c101aec:	e3a02000 	mov	r2, #0
 c101af0:	e5c32000 	strb	r2, [r3]
 c101af4:	e51b3020 	ldr	r3, [fp, #-32]	; 0xffffffe0
 c101af8:	e3530000 	cmp	r3, #0
 c101afc:	ba00001d 	blt	c101b78 <lcd_putint+0xbc>
 c101b00:	e51b3010 	ldr	r3, [fp, #-16]
 c101b04:	e2433001 	sub	r3, r3, #1
 c101b08:	e50b3010 	str	r3, [fp, #-16]
 c101b0c:	e51b1020 	ldr	r1, [fp, #-32]	; 0xffffffe0
 c101b10:	e59f311c 	ldr	r3, [pc, #284]	; c101c34 <lcd_putint+0x178>
 c101b14:	e0c32391 	smull	r2, r3, r1, r3
 c101b18:	e1a02143 	asr	r2, r3, #2
 c101b1c:	e1a03fc1 	asr	r3, r1, #31
 c101b20:	e0632002 	rsb	r2, r3, r2
 c101b24:	e1a03002 	mov	r3, r2
 c101b28:	e1a03103 	lsl	r3, r3, #2
 c101b2c:	e0833002 	add	r3, r3, r2
 c101b30:	e1a03083 	lsl	r3, r3, #1
 c101b34:	e0632001 	rsb	r2, r3, r1
 c101b38:	e20230ff 	and	r3, r2, #255	; 0xff
 c101b3c:	e2833030 	add	r3, r3, #48	; 0x30
 c101b40:	e20320ff 	and	r2, r3, #255	; 0xff
 c101b44:	e51b3010 	ldr	r3, [fp, #-16]
 c101b48:	e5c32000 	strb	r2, [r3]
 c101b4c:	e51b3020 	ldr	r3, [fp, #-32]	; 0xffffffe0
 c101b50:	e59f20dc 	ldr	r2, [pc, #220]	; c101c34 <lcd_putint+0x178>
 c101b54:	e0c21293 	smull	r1, r2, r3, r2
 c101b58:	e1a02142 	asr	r2, r2, #2
 c101b5c:	e1a03fc3 	asr	r3, r3, #31
 c101b60:	e0633002 	rsb	r3, r3, r2
 c101b64:	e50b3020 	str	r3, [fp, #-32]	; 0xffffffe0
 c101b68:	e51b3020 	ldr	r3, [fp, #-32]	; 0xffffffe0
 c101b6c:	e3530000 	cmp	r3, #0
 c101b70:	1affffe2 	bne	c101b00 <lcd_putint+0x44>
 c101b74:	ea000022 	b	c101c04 <lcd_putint+0x148>
 c101b78:	e51b3010 	ldr	r3, [fp, #-16]
 c101b7c:	e2433001 	sub	r3, r3, #1
 c101b80:	e50b3010 	str	r3, [fp, #-16]
 c101b84:	e51b1020 	ldr	r1, [fp, #-32]	; 0xffffffe0
 c101b88:	e59f30a4 	ldr	r3, [pc, #164]	; c101c34 <lcd_putint+0x178>
 c101b8c:	e0c32391 	smull	r2, r3, r1, r3
 c101b90:	e1a02143 	asr	r2, r3, #2
 c101b94:	e1a03fc1 	asr	r3, r1, #31
 c101b98:	e0632002 	rsb	r2, r3, r2
 c101b9c:	e1a03002 	mov	r3, r2
 c101ba0:	e1a03103 	lsl	r3, r3, #2
 c101ba4:	e0833002 	add	r3, r3, r2
 c101ba8:	e1a03083 	lsl	r3, r3, #1
 c101bac:	e0632001 	rsb	r2, r3, r1
 c101bb0:	e20230ff 	and	r3, r2, #255	; 0xff
 c101bb4:	e2633030 	rsb	r3, r3, #48	; 0x30
 c101bb8:	e20320ff 	and	r2, r3, #255	; 0xff
 c101bbc:	e51b3010 	ldr	r3, [fp, #-16]
 c101bc0:	e5c32000 	strb	r2, [r3]
 c101bc4:	e51b3020 	ldr	r3, [fp, #-32]	; 0xffffffe0
 c101bc8:	e59f2064 	ldr	r2, [pc, #100]	; c101c34 <lcd_putint+0x178>
 c101bcc:	e0c21293 	smull	r1, r2, r3, r2
 c101bd0:	e1a02142 	asr	r2, r2, #2
 c101bd4:	e1a03fc3 	asr	r3, r3, #31
 c101bd8:	e0633002 	rsb	r3, r3, r2
 c101bdc:	e50b3020 	str	r3, [fp, #-32]	; 0xffffffe0
 c101be0:	e51b3020 	ldr	r3, [fp, #-32]	; 0xffffffe0
 c101be4:	e3530000 	cmp	r3, #0
 c101be8:	1affffe2 	bne	c101b78 <lcd_putint+0xbc>
 c101bec:	e51b3010 	ldr	r3, [fp, #-16]
 c101bf0:	e2433001 	sub	r3, r3, #1
 c101bf4:	e50b3010 	str	r3, [fp, #-16]
 c101bf8:	e51b3010 	ldr	r3, [fp, #-16]
 c101bfc:	e3a0202d 	mov	r2, #45	; 0x2d
 c101c00:	e5c32000 	strb	r2, [r3]
 c101c04:	e15b11b6 	ldrh	r1, [fp, #-22]	; 0xffffffea
 c101c08:	e15b21b8 	ldrh	r2, [fp, #-24]	; 0xffffffe8
 c101c0c:	e55b3019 	ldrb	r3, [fp, #-25]	; 0xffffffe7
 c101c10:	e1a00001 	mov	r0, r1
 c101c14:	e1a01002 	mov	r1, r2
 c101c18:	e1a02003 	mov	r2, r3
 c101c1c:	e51b3010 	ldr	r3, [fp, #-16]
 c101c20:	ebffff88 	bl	c101a48 <lcd_puts>
 c101c24:	e24bd00c 	sub	sp, fp, #12
 c101c28:	e89d6800 	ldm	sp, {fp, sp, lr}
 c101c2c:	e12fff1e 	bx	lr
 c101c30:	0c11227f 	.word	0x0c11227f
 c101c34:	66666667 	.word	0x66666667

0c101c38 <lcd_puthex>:
 c101c38:	e1a0c00d 	mov	ip, sp
 c101c3c:	e92dd800 	push	{fp, ip, lr, pc}
 c101c40:	e24cb004 	sub	fp, ip, #4
 c101c44:	e24dd018 	sub	sp, sp, #24
 c101c48:	e50b3020 	str	r3, [fp, #-32]	; 0xffffffe0
 c101c4c:	e14b01b6 	strh	r0, [fp, #-22]	; 0xffffffea
 c101c50:	e14b11b8 	strh	r1, [fp, #-24]	; 0xffffffe8
 c101c54:	e1a03002 	mov	r3, r2
 c101c58:	e54b3019 	strb	r3, [fp, #-25]	; 0xffffffe7
 c101c5c:	e59f30b0 	ldr	r3, [pc, #176]	; c101d14 <lcd_puthex+0xdc>
 c101c60:	e50b3010 	str	r3, [fp, #-16]
 c101c64:	e51b3010 	ldr	r3, [fp, #-16]
 c101c68:	e3a02000 	mov	r2, #0
 c101c6c:	e5c32000 	strb	r2, [r3]
 c101c70:	e51b3020 	ldr	r3, [fp, #-32]	; 0xffffffe0
 c101c74:	e20330ff 	and	r3, r3, #255	; 0xff
 c101c78:	e203300f 	and	r3, r3, #15
 c101c7c:	e54b3011 	strb	r3, [fp, #-17]	; 0xffffffef
 c101c80:	e55b3011 	ldrb	r3, [fp, #-17]	; 0xffffffef
 c101c84:	e3530009 	cmp	r3, #9
 c101c88:	8a000008 	bhi	c101cb0 <lcd_puthex+0x78>
 c101c8c:	e51b3010 	ldr	r3, [fp, #-16]
 c101c90:	e2433001 	sub	r3, r3, #1
 c101c94:	e50b3010 	str	r3, [fp, #-16]
 c101c98:	e55b3011 	ldrb	r3, [fp, #-17]	; 0xffffffef
 c101c9c:	e2833030 	add	r3, r3, #48	; 0x30
 c101ca0:	e20320ff 	and	r2, r3, #255	; 0xff
 c101ca4:	e51b3010 	ldr	r3, [fp, #-16]
 c101ca8:	e5c32000 	strb	r2, [r3]
 c101cac:	ea000007 	b	c101cd0 <lcd_puthex+0x98>
 c101cb0:	e51b3010 	ldr	r3, [fp, #-16]
 c101cb4:	e2433001 	sub	r3, r3, #1
 c101cb8:	e50b3010 	str	r3, [fp, #-16]
 c101cbc:	e55b3011 	ldrb	r3, [fp, #-17]	; 0xffffffef
 c101cc0:	e2833057 	add	r3, r3, #87	; 0x57
 c101cc4:	e20320ff 	and	r2, r3, #255	; 0xff
 c101cc8:	e51b3010 	ldr	r3, [fp, #-16]
 c101ccc:	e5c32000 	strb	r2, [r3]
 c101cd0:	e51b3020 	ldr	r3, [fp, #-32]	; 0xffffffe0
 c101cd4:	e1a03223 	lsr	r3, r3, #4
 c101cd8:	e50b3020 	str	r3, [fp, #-32]	; 0xffffffe0
 c101cdc:	e51b3020 	ldr	r3, [fp, #-32]	; 0xffffffe0
 c101ce0:	e3530000 	cmp	r3, #0
 c101ce4:	1affffe1 	bne	c101c70 <lcd_puthex+0x38>
 c101ce8:	e15b11b6 	ldrh	r1, [fp, #-22]	; 0xffffffea
 c101cec:	e15b21b8 	ldrh	r2, [fp, #-24]	; 0xffffffe8
 c101cf0:	e55b3019 	ldrb	r3, [fp, #-25]	; 0xffffffe7
 c101cf4:	e1a00001 	mov	r0, r1
 c101cf8:	e1a01002 	mov	r1, r2
 c101cfc:	e1a02003 	mov	r2, r3
 c101d00:	e51b3010 	ldr	r3, [fp, #-16]
 c101d04:	ebffff4f 	bl	c101a48 <lcd_puts>
 c101d08:	e24bd00c 	sub	sp, fp, #12
 c101d0c:	e89d6800 	ldm	sp, {fp, sp, lr}
 c101d10:	e12fff1e 	bx	lr
 c101d14:	0c112270 	.word	0x0c112270

0c101d18 <lcd_putchar_x2>:
 c101d18:	e1a0c00d 	mov	ip, sp
 c101d1c:	e92dd800 	push	{fp, ip, lr, pc}
 c101d20:	e24cb004 	sub	fp, ip, #4
 c101d24:	e24dd010 	sub	sp, sp, #16
 c101d28:	e14b01b6 	strh	r0, [fp, #-22]	; 0xffffffea
 c101d2c:	e14b11b8 	strh	r1, [fp, #-24]	; 0xffffffe8
 c101d30:	e54b2019 	strb	r2, [fp, #-25]	; 0xffffffe7
 c101d34:	e54b301a 	strb	r3, [fp, #-26]	; 0xffffffe6
 c101d38:	e55b301a 	ldrb	r3, [fp, #-26]	; 0xffffffe6
 c101d3c:	e1a03203 	lsl	r3, r3, #4
 c101d40:	e1a02003 	mov	r2, r3
 c101d44:	e59f3250 	ldr	r3, [pc, #592]	; c101f9c <lcd_putchar_x2+0x284>
 c101d48:	e0823003 	add	r3, r2, r3
 c101d4c:	e50b3014 	str	r3, [fp, #-20]	; 0xffffffec
 c101d50:	e3a03000 	mov	r3, #0
 c101d54:	e54b300d 	strb	r3, [fp, #-13]
 c101d58:	ea000089 	b	c101f84 <lcd_putchar_x2+0x26c>
 c101d5c:	e3a03000 	mov	r3, #0
 c101d60:	e54b300e 	strb	r3, [fp, #-14]
 c101d64:	ea000080 	b	c101f6c <lcd_putchar_x2+0x254>
 c101d68:	e55b300d 	ldrb	r3, [fp, #-13]
 c101d6c:	e1a030a3 	lsr	r3, r3, #1
 c101d70:	e20330ff 	and	r3, r3, #255	; 0xff
 c101d74:	e51b2014 	ldr	r2, [fp, #-20]	; 0xffffffec
 c101d78:	e0823003 	add	r3, r2, r3
 c101d7c:	e5d33000 	ldrb	r3, [r3]
 c101d80:	e1a02003 	mov	r2, r3
 c101d84:	e55b300e 	ldrb	r3, [fp, #-14]
 c101d88:	e1a030a3 	lsr	r3, r3, #1
 c101d8c:	e20330ff 	and	r3, r3, #255	; 0xff
 c101d90:	e3a01080 	mov	r1, #128	; 0x80
 c101d94:	e1a03351 	asr	r3, r1, r3
 c101d98:	e0023003 	and	r3, r2, r3
 c101d9c:	e3530000 	cmp	r3, #0
 c101da0:	0a00003e 	beq	c101ea0 <lcd_putchar_x2+0x188>
 c101da4:	e15b21b6 	ldrh	r2, [fp, #-22]	; 0xffffffea
 c101da8:	e55b300e 	ldrb	r3, [fp, #-14]
 c101dac:	e0823003 	add	r3, r2, r3
 c101db0:	e1a02fa3 	lsr	r2, r3, #31
 c101db4:	e0823003 	add	r3, r2, r3
 c101db8:	e1a030c3 	asr	r3, r3, #1
 c101dbc:	e1a01003 	mov	r1, r3
 c101dc0:	e15b21b8 	ldrh	r2, [fp, #-24]	; 0xffffffe8
 c101dc4:	e55b300d 	ldrb	r3, [fp, #-13]
 c101dc8:	e0822003 	add	r2, r2, r3
 c101dcc:	e1a03002 	mov	r3, r2
 c101dd0:	e1a03103 	lsl	r3, r3, #2
 c101dd4:	e0833002 	add	r3, r3, r2
 c101dd8:	e1a03283 	lsl	r3, r3, #5
 c101ddc:	e0811003 	add	r1, r1, r3
 c101de0:	e15b21b6 	ldrh	r2, [fp, #-22]	; 0xffffffea
 c101de4:	e55b300e 	ldrb	r3, [fp, #-14]
 c101de8:	e0823003 	add	r3, r2, r3
 c101dec:	e1a02fa3 	lsr	r2, r3, #31
 c101df0:	e0823003 	add	r3, r2, r3
 c101df4:	e1a030c3 	asr	r3, r3, #1
 c101df8:	e1a00003 	mov	r0, r3
 c101dfc:	e15b21b8 	ldrh	r2, [fp, #-24]	; 0xffffffe8
 c101e00:	e55b300d 	ldrb	r3, [fp, #-13]
 c101e04:	e0822003 	add	r2, r2, r3
 c101e08:	e1a03002 	mov	r3, r2
 c101e0c:	e1a03103 	lsl	r3, r3, #2
 c101e10:	e0833002 	add	r3, r3, r2
 c101e14:	e1a03283 	lsl	r3, r3, #5
 c101e18:	e0803003 	add	r3, r0, r3
 c101e1c:	e59f217c 	ldr	r2, [pc, #380]	; c101fa0 <lcd_putchar_x2+0x288>
 c101e20:	e7d23003 	ldrb	r3, [r2, r3]
 c101e24:	e20320ff 	and	r2, r3, #255	; 0xff
 c101e28:	e15b01b6 	ldrh	r0, [fp, #-22]	; 0xffffffea
 c101e2c:	e55b300e 	ldrb	r3, [fp, #-14]
 c101e30:	e0803003 	add	r3, r0, r3
 c101e34:	e2033001 	and	r3, r3, #1
 c101e38:	e1a03103 	lsl	r3, r3, #2
 c101e3c:	e3a000f0 	mov	r0, #240	; 0xf0
 c101e40:	e1a03350 	asr	r3, r0, r3
 c101e44:	e20330ff 	and	r3, r3, #255	; 0xff
 c101e48:	e1e03003 	mvn	r3, r3
 c101e4c:	e20330ff 	and	r3, r3, #255	; 0xff
 c101e50:	e0023003 	and	r3, r2, r3
 c101e54:	e20320ff 	and	r2, r3, #255	; 0xff
 c101e58:	e55b0019 	ldrb	r0, [fp, #-25]	; 0xffffffe7
 c101e5c:	e15bc1b6 	ldrh	ip, [fp, #-22]	; 0xffffffea
 c101e60:	e55b300e 	ldrb	r3, [fp, #-14]
 c101e64:	e08c3003 	add	r3, ip, r3
 c101e68:	e2033001 	and	r3, r3, #1
 c101e6c:	e3530000 	cmp	r3, #0
 c101e70:	1a000001 	bne	c101e7c <lcd_putchar_x2+0x164>
 c101e74:	e3a03004 	mov	r3, #4
 c101e78:	ea000000 	b	c101e80 <lcd_putchar_x2+0x168>
 c101e7c:	e3a03000 	mov	r3, #0
 c101e80:	e1a03310 	lsl	r3, r0, r3
 c101e84:	e20330ff 	and	r3, r3, #255	; 0xff
 c101e88:	e1823003 	orr	r3, r2, r3
 c101e8c:	e20330ff 	and	r3, r3, #255	; 0xff
 c101e90:	e20320ff 	and	r2, r3, #255	; 0xff
 c101e94:	e59f3104 	ldr	r3, [pc, #260]	; c101fa0 <lcd_putchar_x2+0x288>
 c101e98:	e7c32001 	strb	r2, [r3, r1]
 c101e9c:	ea00002f 	b	c101f60 <lcd_putchar_x2+0x248>
 c101ea0:	e15b21b6 	ldrh	r2, [fp, #-22]	; 0xffffffea
 c101ea4:	e55b300e 	ldrb	r3, [fp, #-14]
 c101ea8:	e0823003 	add	r3, r2, r3
 c101eac:	e1a02fa3 	lsr	r2, r3, #31
 c101eb0:	e0823003 	add	r3, r2, r3
 c101eb4:	e1a030c3 	asr	r3, r3, #1
 c101eb8:	e1a01003 	mov	r1, r3
 c101ebc:	e15b21b8 	ldrh	r2, [fp, #-24]	; 0xffffffe8
 c101ec0:	e55b300d 	ldrb	r3, [fp, #-13]
 c101ec4:	e0822003 	add	r2, r2, r3
 c101ec8:	e1a03002 	mov	r3, r2
 c101ecc:	e1a03103 	lsl	r3, r3, #2
 c101ed0:	e0833002 	add	r3, r3, r2
 c101ed4:	e1a03283 	lsl	r3, r3, #5
 c101ed8:	e0811003 	add	r1, r1, r3
 c101edc:	e15b21b6 	ldrh	r2, [fp, #-22]	; 0xffffffea
 c101ee0:	e55b300e 	ldrb	r3, [fp, #-14]
 c101ee4:	e0823003 	add	r3, r2, r3
 c101ee8:	e1a02fa3 	lsr	r2, r3, #31
 c101eec:	e0823003 	add	r3, r2, r3
 c101ef0:	e1a030c3 	asr	r3, r3, #1
 c101ef4:	e1a00003 	mov	r0, r3
 c101ef8:	e15b21b8 	ldrh	r2, [fp, #-24]	; 0xffffffe8
 c101efc:	e55b300d 	ldrb	r3, [fp, #-13]
 c101f00:	e0822003 	add	r2, r2, r3
 c101f04:	e1a03002 	mov	r3, r2
 c101f08:	e1a03103 	lsl	r3, r3, #2
 c101f0c:	e0833002 	add	r3, r3, r2
 c101f10:	e1a03283 	lsl	r3, r3, #5
 c101f14:	e0803003 	add	r3, r0, r3
 c101f18:	e59f2080 	ldr	r2, [pc, #128]	; c101fa0 <lcd_putchar_x2+0x288>
 c101f1c:	e7d23003 	ldrb	r3, [r2, r3]
 c101f20:	e20320ff 	and	r2, r3, #255	; 0xff
 c101f24:	e15b01b6 	ldrh	r0, [fp, #-22]	; 0xffffffea
 c101f28:	e55b300e 	ldrb	r3, [fp, #-14]
 c101f2c:	e0803003 	add	r3, r0, r3
 c101f30:	e2033001 	and	r3, r3, #1
 c101f34:	e1a03103 	lsl	r3, r3, #2
 c101f38:	e3a000f0 	mov	r0, #240	; 0xf0
 c101f3c:	e1a03350 	asr	r3, r0, r3
 c101f40:	e20330ff 	and	r3, r3, #255	; 0xff
 c101f44:	e1e03003 	mvn	r3, r3
 c101f48:	e20330ff 	and	r3, r3, #255	; 0xff
 c101f4c:	e0023003 	and	r3, r2, r3
 c101f50:	e20330ff 	and	r3, r3, #255	; 0xff
 c101f54:	e20320ff 	and	r2, r3, #255	; 0xff
 c101f58:	e59f3040 	ldr	r3, [pc, #64]	; c101fa0 <lcd_putchar_x2+0x288>
 c101f5c:	e7c32001 	strb	r2, [r3, r1]
 c101f60:	e55b300e 	ldrb	r3, [fp, #-14]
 c101f64:	e2833001 	add	r3, r3, #1
 c101f68:	e54b300e 	strb	r3, [fp, #-14]
 c101f6c:	e55b300e 	ldrb	r3, [fp, #-14]
 c101f70:	e353000f 	cmp	r3, #15
 c101f74:	9affff7b 	bls	c101d68 <lcd_putchar_x2+0x50>
 c101f78:	e55b300d 	ldrb	r3, [fp, #-13]
 c101f7c:	e2833001 	add	r3, r3, #1
 c101f80:	e54b300d 	strb	r3, [fp, #-13]
 c101f84:	e55b300d 	ldrb	r3, [fp, #-13]
 c101f88:	e353001f 	cmp	r3, #31
 c101f8c:	9affff72 	bls	c101d5c <lcd_putchar_x2+0x44>
 c101f90:	e24bd00c 	sub	sp, fp, #12
 c101f94:	e89d6800 	ldm	sp, {fp, sp, lr}
 c101f98:	e12fff1e 	bx	lr
 c101f9c:	0c107b80 	.word	0x0c107b80
 c101fa0:	0c108b9c 	.word	0x0c108b9c

0c101fa4 <lcd_puts_x2>:
 c101fa4:	e1a0c00d 	mov	ip, sp
 c101fa8:	e92dd800 	push	{fp, ip, lr, pc}
 c101fac:	e24cb004 	sub	fp, ip, #4
 c101fb0:	e24dd010 	sub	sp, sp, #16
 c101fb4:	e50b3018 	str	r3, [fp, #-24]	; 0xffffffe8
 c101fb8:	e14b00be 	strh	r0, [fp, #-14]
 c101fbc:	e14b11b0 	strh	r1, [fp, #-16]
 c101fc0:	e1a03002 	mov	r3, r2
 c101fc4:	e54b3011 	strb	r3, [fp, #-17]	; 0xffffffef
 c101fc8:	ea00000b 	b	c101ffc <lcd_puts_x2+0x58>
 c101fcc:	e51b3018 	ldr	r3, [fp, #-24]	; 0xffffffe8
 c101fd0:	e5d33000 	ldrb	r3, [r3]
 c101fd4:	e15b00be 	ldrh	r0, [fp, #-14]
 c101fd8:	e15b11b0 	ldrh	r1, [fp, #-16]
 c101fdc:	e55b2011 	ldrb	r2, [fp, #-17]	; 0xffffffef
 c101fe0:	ebffff4c 	bl	c101d18 <lcd_putchar_x2>
 c101fe4:	e51b3018 	ldr	r3, [fp, #-24]	; 0xffffffe8
 c101fe8:	e2833001 	add	r3, r3, #1
 c101fec:	e50b3018 	str	r3, [fp, #-24]	; 0xffffffe8
 c101ff0:	e15b30be 	ldrh	r3, [fp, #-14]
 c101ff4:	e2833010 	add	r3, r3, #16
 c101ff8:	e14b30be 	strh	r3, [fp, #-14]
 c101ffc:	e51b3018 	ldr	r3, [fp, #-24]	; 0xffffffe8
 c102000:	e5d33000 	ldrb	r3, [r3]
 c102004:	e3530000 	cmp	r3, #0
 c102008:	1affffef 	bne	c101fcc <lcd_puts_x2+0x28>
 c10200c:	e24bd00c 	sub	sp, fp, #12
 c102010:	e89d6800 	ldm	sp, {fp, sp, lr}
 c102014:	e12fff1e 	bx	lr

0c102018 <lcd_putint_x2>:
 c102018:	e1a0c00d 	mov	ip, sp
 c10201c:	e92dd800 	push	{fp, ip, lr, pc}
 c102020:	e24cb004 	sub	fp, ip, #4
 c102024:	e24dd018 	sub	sp, sp, #24
 c102028:	e50b3020 	str	r3, [fp, #-32]	; 0xffffffe0
 c10202c:	e14b01b6 	strh	r0, [fp, #-22]	; 0xffffffea
 c102030:	e14b11b8 	strh	r1, [fp, #-24]	; 0xffffffe8
 c102034:	e1a03002 	mov	r3, r2
 c102038:	e54b3019 	strb	r3, [fp, #-25]	; 0xffffffe7
 c10203c:	e59f3148 	ldr	r3, [pc, #328]	; c10218c <lcd_putint_x2+0x174>
 c102040:	e50b3010 	str	r3, [fp, #-16]
 c102044:	e51b3010 	ldr	r3, [fp, #-16]
 c102048:	e3a02000 	mov	r2, #0
 c10204c:	e5c32000 	strb	r2, [r3]
 c102050:	e51b3020 	ldr	r3, [fp, #-32]	; 0xffffffe0
 c102054:	e3530000 	cmp	r3, #0
 c102058:	ba00001d 	blt	c1020d4 <lcd_putint_x2+0xbc>
 c10205c:	e51b3010 	ldr	r3, [fp, #-16]
 c102060:	e2433001 	sub	r3, r3, #1
 c102064:	e50b3010 	str	r3, [fp, #-16]
 c102068:	e51b1020 	ldr	r1, [fp, #-32]	; 0xffffffe0
 c10206c:	e59f311c 	ldr	r3, [pc, #284]	; c102190 <lcd_putint_x2+0x178>
 c102070:	e0c32391 	smull	r2, r3, r1, r3
 c102074:	e1a02143 	asr	r2, r3, #2
 c102078:	e1a03fc1 	asr	r3, r1, #31
 c10207c:	e0632002 	rsb	r2, r3, r2
 c102080:	e1a03002 	mov	r3, r2
 c102084:	e1a03103 	lsl	r3, r3, #2
 c102088:	e0833002 	add	r3, r3, r2
 c10208c:	e1a03083 	lsl	r3, r3, #1
 c102090:	e0632001 	rsb	r2, r3, r1
 c102094:	e20230ff 	and	r3, r2, #255	; 0xff
 c102098:	e2833030 	add	r3, r3, #48	; 0x30
 c10209c:	e20320ff 	and	r2, r3, #255	; 0xff
 c1020a0:	e51b3010 	ldr	r3, [fp, #-16]
 c1020a4:	e5c32000 	strb	r2, [r3]
 c1020a8:	e51b3020 	ldr	r3, [fp, #-32]	; 0xffffffe0
 c1020ac:	e59f20dc 	ldr	r2, [pc, #220]	; c102190 <lcd_putint_x2+0x178>
 c1020b0:	e0c21293 	smull	r1, r2, r3, r2
 c1020b4:	e1a02142 	asr	r2, r2, #2
 c1020b8:	e1a03fc3 	asr	r3, r3, #31
 c1020bc:	e0633002 	rsb	r3, r3, r2
 c1020c0:	e50b3020 	str	r3, [fp, #-32]	; 0xffffffe0
 c1020c4:	e51b3020 	ldr	r3, [fp, #-32]	; 0xffffffe0
 c1020c8:	e3530000 	cmp	r3, #0
 c1020cc:	1affffe2 	bne	c10205c <lcd_putint_x2+0x44>
 c1020d0:	ea000022 	b	c102160 <lcd_putint_x2+0x148>
 c1020d4:	e51b3010 	ldr	r3, [fp, #-16]
 c1020d8:	e2433001 	sub	r3, r3, #1
 c1020dc:	e50b3010 	str	r3, [fp, #-16]
 c1020e0:	e51b1020 	ldr	r1, [fp, #-32]	; 0xffffffe0
 c1020e4:	e59f30a4 	ldr	r3, [pc, #164]	; c102190 <lcd_putint_x2+0x178>
 c1020e8:	e0c32391 	smull	r2, r3, r1, r3
 c1020ec:	e1a02143 	asr	r2, r3, #2
 c1020f0:	e1a03fc1 	asr	r3, r1, #31
 c1020f4:	e0632002 	rsb	r2, r3, r2
 c1020f8:	e1a03002 	mov	r3, r2
 c1020fc:	e1a03103 	lsl	r3, r3, #2
 c102100:	e0833002 	add	r3, r3, r2
 c102104:	e1a03083 	lsl	r3, r3, #1
 c102108:	e0632001 	rsb	r2, r3, r1
 c10210c:	e20230ff 	and	r3, r2, #255	; 0xff
 c102110:	e2633030 	rsb	r3, r3, #48	; 0x30
 c102114:	e20320ff 	and	r2, r3, #255	; 0xff
 c102118:	e51b3010 	ldr	r3, [fp, #-16]
 c10211c:	e5c32000 	strb	r2, [r3]
 c102120:	e51b3020 	ldr	r3, [fp, #-32]	; 0xffffffe0
 c102124:	e59f2064 	ldr	r2, [pc, #100]	; c102190 <lcd_putint_x2+0x178>
 c102128:	e0c21293 	smull	r1, r2, r3, r2
 c10212c:	e1a02142 	asr	r2, r2, #2
 c102130:	e1a03fc3 	asr	r3, r3, #31
 c102134:	e0633002 	rsb	r3, r3, r2
 c102138:	e50b3020 	str	r3, [fp, #-32]	; 0xffffffe0
 c10213c:	e51b3020 	ldr	r3, [fp, #-32]	; 0xffffffe0
 c102140:	e3530000 	cmp	r3, #0
 c102144:	1affffe2 	bne	c1020d4 <lcd_putint_x2+0xbc>
 c102148:	e51b3010 	ldr	r3, [fp, #-16]
 c10214c:	e2433001 	sub	r3, r3, #1
 c102150:	e50b3010 	str	r3, [fp, #-16]
 c102154:	e51b3010 	ldr	r3, [fp, #-16]
 c102158:	e3a0202d 	mov	r2, #45	; 0x2d
 c10215c:	e5c32000 	strb	r2, [r3]
 c102160:	e15b11b6 	ldrh	r1, [fp, #-22]	; 0xffffffea
 c102164:	e15b21b8 	ldrh	r2, [fp, #-24]	; 0xffffffe8
 c102168:	e55b3019 	ldrb	r3, [fp, #-25]	; 0xffffffe7
 c10216c:	e1a00001 	mov	r0, r1
 c102170:	e1a01002 	mov	r1, r2
 c102174:	e1a02003 	mov	r2, r3
 c102178:	e51b3010 	ldr	r3, [fp, #-16]
 c10217c:	ebffff88 	bl	c101fa4 <lcd_puts_x2>
 c102180:	e24bd00c 	sub	sp, fp, #12
 c102184:	e89d6800 	ldm	sp, {fp, sp, lr}
 c102188:	e12fff1e 	bx	lr
 c10218c:	0c112267 	.word	0x0c112267
 c102190:	66666667 	.word	0x66666667

0c102194 <lcd_puthex_x2>:
 c102194:	e1a0c00d 	mov	ip, sp
 c102198:	e92dd800 	push	{fp, ip, lr, pc}
 c10219c:	e24cb004 	sub	fp, ip, #4
 c1021a0:	e24dd018 	sub	sp, sp, #24
 c1021a4:	e50b3020 	str	r3, [fp, #-32]	; 0xffffffe0
 c1021a8:	e14b01b6 	strh	r0, [fp, #-22]	; 0xffffffea
 c1021ac:	e14b11b8 	strh	r1, [fp, #-24]	; 0xffffffe8
 c1021b0:	e1a03002 	mov	r3, r2
 c1021b4:	e54b3019 	strb	r3, [fp, #-25]	; 0xffffffe7
 c1021b8:	e59f30b0 	ldr	r3, [pc, #176]	; c102270 <lcd_puthex_x2+0xdc>
 c1021bc:	e50b3010 	str	r3, [fp, #-16]
 c1021c0:	e51b3010 	ldr	r3, [fp, #-16]
 c1021c4:	e3a02000 	mov	r2, #0
 c1021c8:	e5c32000 	strb	r2, [r3]
 c1021cc:	e51b3020 	ldr	r3, [fp, #-32]	; 0xffffffe0
 c1021d0:	e20330ff 	and	r3, r3, #255	; 0xff
 c1021d4:	e203300f 	and	r3, r3, #15
 c1021d8:	e54b3011 	strb	r3, [fp, #-17]	; 0xffffffef
 c1021dc:	e55b3011 	ldrb	r3, [fp, #-17]	; 0xffffffef
 c1021e0:	e3530009 	cmp	r3, #9
 c1021e4:	8a000008 	bhi	c10220c <lcd_puthex_x2+0x78>
 c1021e8:	e51b3010 	ldr	r3, [fp, #-16]
 c1021ec:	e2433001 	sub	r3, r3, #1
 c1021f0:	e50b3010 	str	r3, [fp, #-16]
 c1021f4:	e55b3011 	ldrb	r3, [fp, #-17]	; 0xffffffef
 c1021f8:	e2833030 	add	r3, r3, #48	; 0x30
 c1021fc:	e20320ff 	and	r2, r3, #255	; 0xff
 c102200:	e51b3010 	ldr	r3, [fp, #-16]
 c102204:	e5c32000 	strb	r2, [r3]
 c102208:	ea000007 	b	c10222c <lcd_puthex_x2+0x98>
 c10220c:	e51b3010 	ldr	r3, [fp, #-16]
 c102210:	e2433001 	sub	r3, r3, #1
 c102214:	e50b3010 	str	r3, [fp, #-16]
 c102218:	e55b3011 	ldrb	r3, [fp, #-17]	; 0xffffffef
 c10221c:	e2833057 	add	r3, r3, #87	; 0x57
 c102220:	e20320ff 	and	r2, r3, #255	; 0xff
 c102224:	e51b3010 	ldr	r3, [fp, #-16]
 c102228:	e5c32000 	strb	r2, [r3]
 c10222c:	e51b3020 	ldr	r3, [fp, #-32]	; 0xffffffe0
 c102230:	e1a03223 	lsr	r3, r3, #4
 c102234:	e50b3020 	str	r3, [fp, #-32]	; 0xffffffe0
 c102238:	e51b3020 	ldr	r3, [fp, #-32]	; 0xffffffe0
 c10223c:	e3530000 	cmp	r3, #0
 c102240:	1affffe1 	bne	c1021cc <lcd_puthex_x2+0x38>
 c102244:	e15b11b6 	ldrh	r1, [fp, #-22]	; 0xffffffea
 c102248:	e15b21b8 	ldrh	r2, [fp, #-24]	; 0xffffffe8
 c10224c:	e55b3019 	ldrb	r3, [fp, #-25]	; 0xffffffe7
 c102250:	e1a00001 	mov	r0, r1
 c102254:	e1a01002 	mov	r1, r2
 c102258:	e1a02003 	mov	r2, r3
 c10225c:	e51b3010 	ldr	r3, [fp, #-16]
 c102260:	ebffff4f 	bl	c101fa4 <lcd_puts_x2>
 c102264:	e24bd00c 	sub	sp, fp, #12
 c102268:	e89d6800 	ldm	sp, {fp, sp, lr}
 c10226c:	e12fff1e 	bx	lr
 c102270:	0c112258 	.word	0x0c112258

0c102274 <lcd_putWallpaper>:
 c102274:	e1a0c00d 	mov	ip, sp
 c102278:	e92dd800 	push	{fp, ip, lr, pc}
 c10227c:	e24cb004 	sub	fp, ip, #4
 c102280:	e24dd018 	sub	sp, sp, #24
 c102284:	e50b0020 	str	r0, [fp, #-32]	; 0xffffffe0
 c102288:	e51b3020 	ldr	r3, [fp, #-32]	; 0xffffffe0
 c10228c:	e283300a 	add	r3, r3, #10
 c102290:	e5d33000 	ldrb	r3, [r3]
 c102294:	e1a02003 	mov	r2, r3
 c102298:	e51b3020 	ldr	r3, [fp, #-32]	; 0xffffffe0
 c10229c:	e283300b 	add	r3, r3, #11
 c1022a0:	e5d33000 	ldrb	r3, [r3]
 c1022a4:	e1a03403 	lsl	r3, r3, #8
 c1022a8:	e0822003 	add	r2, r2, r3
 c1022ac:	e51b3020 	ldr	r3, [fp, #-32]	; 0xffffffe0
 c1022b0:	e283300c 	add	r3, r3, #12
 c1022b4:	e5d33000 	ldrb	r3, [r3]
 c1022b8:	e1a03803 	lsl	r3, r3, #16
 c1022bc:	e0822003 	add	r2, r2, r3
 c1022c0:	e51b3020 	ldr	r3, [fp, #-32]	; 0xffffffe0
 c1022c4:	e283300d 	add	r3, r3, #13
 c1022c8:	e5d33000 	ldrb	r3, [r3]
 c1022cc:	e1a03c03 	lsl	r3, r3, #24
 c1022d0:	e0823003 	add	r3, r2, r3
 c1022d4:	e50b3018 	str	r3, [fp, #-24]	; 0xffffffe8
 c1022d8:	e51b2020 	ldr	r2, [fp, #-32]	; 0xffffffe0
 c1022dc:	e51b3018 	ldr	r3, [fp, #-24]	; 0xffffffe8
 c1022e0:	e0823003 	add	r3, r2, r3
 c1022e4:	e50b3020 	str	r3, [fp, #-32]	; 0xffffffe0
 c1022e8:	e3a03000 	mov	r3, #0
 c1022ec:	e14b31b0 	strh	r3, [fp, #-16]
 c1022f0:	e3a030ef 	mov	r3, #239	; 0xef
 c1022f4:	e14b31b2 	strh	r3, [fp, #-18]	; 0xffffffee
 c1022f8:	ea00002d 	b	c1023b4 <lcd_putWallpaper+0x140>
 c1022fc:	e15b21b2 	ldrh	r2, [fp, #-18]	; 0xffffffee
 c102300:	e1a03002 	mov	r3, r2
 c102304:	e1a03103 	lsl	r3, r3, #2
 c102308:	e0833002 	add	r3, r3, r2
 c10230c:	e1a03303 	lsl	r3, r3, #6
 c102310:	e1a02fa3 	lsr	r2, r3, #31
 c102314:	e0823003 	add	r3, r2, r3
 c102318:	e1a030c3 	asr	r3, r3, #1
 c10231c:	e14b31ba 	strh	r3, [fp, #-26]	; 0xffffffe6
 c102320:	e15b21b0 	ldrh	r2, [fp, #-16]
 c102324:	e1a03002 	mov	r3, r2
 c102328:	e1a03103 	lsl	r3, r3, #2
 c10232c:	e0833002 	add	r3, r3, r2
 c102330:	e1a03303 	lsl	r3, r3, #6
 c102334:	e1a02fa3 	lsr	r2, r3, #31
 c102338:	e0823003 	add	r3, r2, r3
 c10233c:	e1a030c3 	asr	r3, r3, #1
 c102340:	e14b31bc 	strh	r3, [fp, #-28]	; 0xffffffe4
 c102344:	e3a03000 	mov	r3, #0
 c102348:	e14b30be 	strh	r3, [fp, #-14]
 c10234c:	ea00000f 	b	c102390 <lcd_putWallpaper+0x11c>
 c102350:	e15b21ba 	ldrh	r2, [fp, #-26]	; 0xffffffe6
 c102354:	e15b30be 	ldrh	r3, [fp, #-14]
 c102358:	e0823003 	add	r3, r2, r3
 c10235c:	e15b11bc 	ldrh	r1, [fp, #-28]	; 0xffffffe4
 c102360:	e15b20be 	ldrh	r2, [fp, #-14]
 c102364:	e0812002 	add	r2, r1, r2
 c102368:	e51b1020 	ldr	r1, [fp, #-32]	; 0xffffffe0
 c10236c:	e0812002 	add	r2, r1, r2
 c102370:	e5d22000 	ldrb	r2, [r2]
 c102374:	e1e02002 	mvn	r2, r2
 c102378:	e20210ff 	and	r1, r2, #255	; 0xff
 c10237c:	e59f2048 	ldr	r2, [pc, #72]	; c1023cc <lcd_putWallpaper+0x158>
 c102380:	e7c21003 	strb	r1, [r2, r3]
 c102384:	e15b30be 	ldrh	r3, [fp, #-14]
 c102388:	e2833001 	add	r3, r3, #1
 c10238c:	e14b30be 	strh	r3, [fp, #-14]
 c102390:	e15b30be 	ldrh	r3, [fp, #-14]
 c102394:	e353009f 	cmp	r3, #159	; 0x9f
 c102398:	9affffec 	bls	c102350 <lcd_putWallpaper+0xdc>
 c10239c:	e15b31b0 	ldrh	r3, [fp, #-16]
 c1023a0:	e2833001 	add	r3, r3, #1
 c1023a4:	e14b31b0 	strh	r3, [fp, #-16]
 c1023a8:	e15b31b2 	ldrh	r3, [fp, #-18]	; 0xffffffee
 c1023ac:	e2433001 	sub	r3, r3, #1
 c1023b0:	e14b31b2 	strh	r3, [fp, #-18]	; 0xffffffee
 c1023b4:	e15b31b0 	ldrh	r3, [fp, #-16]
 c1023b8:	e35300ef 	cmp	r3, #239	; 0xef
 c1023bc:	9affffce 	bls	c1022fc <lcd_putWallpaper+0x88>
 c1023c0:	e24bd00c 	sub	sp, fp, #12
 c1023c4:	e89d6800 	ldm	sp, {fp, sp, lr}
 c1023c8:	e12fff1e 	bx	lr
 c1023cc:	0c108b9c 	.word	0x0c108b9c

0c1023d0 <leds_init>:
 c1023d0:	e1a0c00d 	mov	ip, sp
 c1023d4:	e92dd800 	push	{fp, ip, lr, pc}
 c1023d8:	e24cb004 	sub	fp, ip, #4
 c1023dc:	e3a0000a 	mov	r0, #10
 c1023e0:	eb000054 	bl	c102538 <power_on>
 c1023e4:	e59f3028 	ldr	r3, [pc, #40]	; c102414 <leds_init+0x44>
 c1023e8:	e59f2024 	ldr	r2, [pc, #36]	; c102414 <leds_init+0x44>
 c1023ec:	e5922000 	ldr	r2, [r2]
 c1023f0:	e3c22c06 	bic	r2, r2, #1536	; 0x600
 c1023f4:	e5832000 	str	r2, [r3]
 c1023f8:	e3a00002 	mov	r0, #2
 c1023fc:	eb000017 	bl	c102460 <led_off>
 c102400:	e3a00001 	mov	r0, #1
 c102404:	eb000015 	bl	c102460 <led_off>
 c102408:	e24bd00c 	sub	sp, fp, #12
 c10240c:	e89d6800 	ldm	sp, {fp, sp, lr}
 c102410:	e12fff1e 	bx	lr
 c102414:	01d20008 	.word	0x01d20008

0c102418 <led_on>:
 c102418:	e1a0c00d 	mov	ip, sp
 c10241c:	e92dd800 	push	{fp, ip, lr, pc}
 c102420:	e24cb004 	sub	fp, ip, #4
 c102424:	e24dd008 	sub	sp, sp, #8
 c102428:	e1a03000 	mov	r3, r0
 c10242c:	e54b300d 	strb	r3, [fp, #-13]
 c102430:	e59f3024 	ldr	r3, [pc, #36]	; c10245c <led_on+0x44>
 c102434:	e59f2020 	ldr	r2, [pc, #32]	; c10245c <led_on+0x44>
 c102438:	e5921000 	ldr	r1, [r2]
 c10243c:	e55b200d 	ldrb	r2, [fp, #-13]
 c102440:	e1a02482 	lsl	r2, r2, #9
 c102444:	e1e02002 	mvn	r2, r2
 c102448:	e0012002 	and	r2, r1, r2
 c10244c:	e5832000 	str	r2, [r3]
 c102450:	e24bd00c 	sub	sp, fp, #12
 c102454:	e89d6800 	ldm	sp, {fp, sp, lr}
 c102458:	e12fff1e 	bx	lr
 c10245c:	01d2000c 	.word	0x01d2000c

0c102460 <led_off>:
 c102460:	e1a0c00d 	mov	ip, sp
 c102464:	e92dd800 	push	{fp, ip, lr, pc}
 c102468:	e24cb004 	sub	fp, ip, #4
 c10246c:	e24dd008 	sub	sp, sp, #8
 c102470:	e1a03000 	mov	r3, r0
 c102474:	e54b300d 	strb	r3, [fp, #-13]
 c102478:	e59f3020 	ldr	r3, [pc, #32]	; c1024a0 <led_off+0x40>
 c10247c:	e59f201c 	ldr	r2, [pc, #28]	; c1024a0 <led_off+0x40>
 c102480:	e5921000 	ldr	r1, [r2]
 c102484:	e55b200d 	ldrb	r2, [fp, #-13]
 c102488:	e1a02482 	lsl	r2, r2, #9
 c10248c:	e1812002 	orr	r2, r1, r2
 c102490:	e5832000 	str	r2, [r3]
 c102494:	e24bd00c 	sub	sp, fp, #12
 c102498:	e89d6800 	ldm	sp, {fp, sp, lr}
 c10249c:	e12fff1e 	bx	lr
 c1024a0:	01d2000c 	.word	0x01d2000c

0c1024a4 <led_toggle>:
 c1024a4:	e1a0c00d 	mov	ip, sp
 c1024a8:	e92dd800 	push	{fp, ip, lr, pc}
 c1024ac:	e24cb004 	sub	fp, ip, #4
 c1024b0:	e24dd008 	sub	sp, sp, #8
 c1024b4:	e1a03000 	mov	r3, r0
 c1024b8:	e54b300d 	strb	r3, [fp, #-13]
 c1024bc:	e59f3020 	ldr	r3, [pc, #32]	; c1024e4 <led_toggle+0x40>
 c1024c0:	e59f201c 	ldr	r2, [pc, #28]	; c1024e4 <led_toggle+0x40>
 c1024c4:	e5921000 	ldr	r1, [r2]
 c1024c8:	e55b200d 	ldrb	r2, [fp, #-13]
 c1024cc:	e1a02482 	lsl	r2, r2, #9
 c1024d0:	e0212002 	eor	r2, r1, r2
 c1024d4:	e5832000 	str	r2, [r3]
 c1024d8:	e24bd00c 	sub	sp, fp, #12
 c1024dc:	e89d6800 	ldm	sp, {fp, sp, lr}
 c1024e0:	e12fff1e 	bx	lr
 c1024e4:	01d2000c 	.word	0x01d2000c

0c1024e8 <led_status>:
 c1024e8:	e1a0c00d 	mov	ip, sp
 c1024ec:	e92dd800 	push	{fp, ip, lr, pc}
 c1024f0:	e24cb004 	sub	fp, ip, #4
 c1024f4:	e24dd008 	sub	sp, sp, #8
 c1024f8:	e1a03000 	mov	r3, r0
 c1024fc:	e54b300d 	strb	r3, [fp, #-13]
 c102500:	e59f302c 	ldr	r3, [pc, #44]	; c102534 <led_status+0x4c>
 c102504:	e5932000 	ldr	r2, [r3]
 c102508:	e55b300d 	ldrb	r3, [fp, #-13]
 c10250c:	e1a03483 	lsl	r3, r3, #9
 c102510:	e0023003 	and	r3, r2, r3
 c102514:	e3530000 	cmp	r3, #0
 c102518:	13a03000 	movne	r3, #0
 c10251c:	03a03001 	moveq	r3, #1
 c102520:	e20330ff 	and	r3, r3, #255	; 0xff
 c102524:	e1a00003 	mov	r0, r3
 c102528:	e24bd00c 	sub	sp, fp, #12
 c10252c:	e89d6800 	ldm	sp, {fp, sp, lr}
 c102530:	e12fff1e 	bx	lr
 c102534:	01d2000c 	.word	0x01d2000c

0c102538 <power_on>:
 c102538:	e1a0c00d 	mov	ip, sp
 c10253c:	e92dd800 	push	{fp, ip, lr, pc}
 c102540:	e24cb004 	sub	fp, ip, #4
 c102544:	e24dd008 	sub	sp, sp, #8
 c102548:	e1a03000 	mov	r3, r0
 c10254c:	e54b300d 	strb	r3, [fp, #-13]
 c102550:	e55b300d 	ldrb	r3, [fp, #-13]
 c102554:	e353000e 	cmp	r3, #14
 c102558:	8a000029 	bhi	c102604 <power_on+0xcc>
 c10255c:	e59f20ac 	ldr	r2, [pc, #172]	; c102610 <power_on+0xd8>
 c102560:	e1a02312 	lsl	r2, r2, r3
 c102564:	e3520000 	cmp	r2, #0
 c102568:	ba000008 	blt	c102590 <power_on+0x58>
 c10256c:	e3a02409 	mov	r2, #150994944	; 0x9000000
 c102570:	e1a02312 	lsl	r2, r2, r3
 c102574:	e3520000 	cmp	r2, #0
 c102578:	ba000018 	blt	c1025e0 <power_on+0xa8>
 c10257c:	e3a02603 	mov	r2, #3145728	; 0x300000
 c102580:	e1a03312 	lsl	r3, r2, r3
 c102584:	e3530000 	cmp	r3, #0
 c102588:	aa00001d 	bge	c102604 <power_on+0xcc>
 c10258c:	ea000009 	b	c1025b8 <power_on+0x80>
 c102590:	e59f307c 	ldr	r3, [pc, #124]	; c102614 <power_on+0xdc>
 c102594:	e59f2078 	ldr	r2, [pc, #120]	; c102614 <power_on+0xdc>
 c102598:	e5921000 	ldr	r1, [r2]
 c10259c:	e55b200d 	ldrb	r2, [fp, #-13]
 c1025a0:	e3a00001 	mov	r0, #1
 c1025a4:	e1a02210 	lsl	r2, r0, r2
 c1025a8:	e1812002 	orr	r2, r1, r2
 c1025ac:	e3822d12 	orr	r2, r2, #1152	; 0x480
 c1025b0:	e5832000 	str	r2, [r3]
 c1025b4:	ea000012 	b	c102604 <power_on+0xcc>
 c1025b8:	e59f3054 	ldr	r3, [pc, #84]	; c102614 <power_on+0xdc>
 c1025bc:	e59f2050 	ldr	r2, [pc, #80]	; c102614 <power_on+0xdc>
 c1025c0:	e5921000 	ldr	r1, [r2]
 c1025c4:	e55b200d 	ldrb	r2, [fp, #-13]
 c1025c8:	e3a00001 	mov	r0, #1
 c1025cc:	e1a02210 	lsl	r2, r0, r2
 c1025d0:	e1812002 	orr	r2, r1, r2
 c1025d4:	e3822080 	orr	r2, r2, #128	; 0x80
 c1025d8:	e5832000 	str	r2, [r3]
 c1025dc:	ea000008 	b	c102604 <power_on+0xcc>
 c1025e0:	e59f302c 	ldr	r3, [pc, #44]	; c102614 <power_on+0xdc>
 c1025e4:	e59f2028 	ldr	r2, [pc, #40]	; c102614 <power_on+0xdc>
 c1025e8:	e5921000 	ldr	r1, [r2]
 c1025ec:	e55b200d 	ldrb	r2, [fp, #-13]
 c1025f0:	e3a00001 	mov	r0, #1
 c1025f4:	e1a02210 	lsl	r2, r0, r2
 c1025f8:	e1812002 	orr	r2, r1, r2
 c1025fc:	e5832000 	str	r2, [r3]
 c102600:	e1a00000 	nop			; (mov r0, r0)
 c102604:	e24bd00c 	sub	sp, fp, #12
 c102608:	e89d6800 	ldm	sp, {fp, sp, lr}
 c10260c:	e12fff1e 	bx	lr
 c102610:	16ce0000 	.word	0x16ce0000
 c102614:	01d80004 	.word	0x01d80004

0c102618 <power_off>:
 c102618:	e1a0c00d 	mov	ip, sp
 c10261c:	e92dd800 	push	{fp, ip, lr, pc}
 c102620:	e24cb004 	sub	fp, ip, #4
 c102624:	e24dd008 	sub	sp, sp, #8
 c102628:	e1a03000 	mov	r3, r0
 c10262c:	e54b300d 	strb	r3, [fp, #-13]
 c102630:	e55b300d 	ldrb	r3, [fp, #-13]
 c102634:	e353000e 	cmp	r3, #14
 c102638:	8a000029 	bhi	c1026e4 <power_off+0xcc>
 c10263c:	e59f20ac 	ldr	r2, [pc, #172]	; c1026f0 <power_off+0xd8>
 c102640:	e1a02312 	lsl	r2, r2, r3
 c102644:	e3520000 	cmp	r2, #0
 c102648:	ba000004 	blt	c102660 <power_off+0x48>
 c10264c:	e3a02409 	mov	r2, #150994944	; 0x9000000
 c102650:	e1a03312 	lsl	r3, r2, r3
 c102654:	e3530000 	cmp	r3, #0
 c102658:	aa000021 	bge	c1026e4 <power_off+0xcc>
 c10265c:	ea000014 	b	c1026b4 <power_off+0x9c>
 c102660:	e59f308c 	ldr	r3, [pc, #140]	; c1026f4 <power_off+0xdc>
 c102664:	e59f2088 	ldr	r2, [pc, #136]	; c1026f4 <power_off+0xdc>
 c102668:	e5921000 	ldr	r1, [r2]
 c10266c:	e55b200d 	ldrb	r2, [fp, #-13]
 c102670:	e3a00001 	mov	r0, #1
 c102674:	e1a02210 	lsl	r2, r0, r2
 c102678:	e1e02002 	mvn	r2, r2
 c10267c:	e0012002 	and	r2, r1, r2
 c102680:	e5832000 	str	r2, [r3]
 c102684:	e59f3068 	ldr	r3, [pc, #104]	; c1026f4 <power_off+0xdc>
 c102688:	e5932000 	ldr	r2, [r3]
 c10268c:	e59f3064 	ldr	r3, [pc, #100]	; c1026f8 <power_off+0xe0>
 c102690:	e0023003 	and	r3, r2, r3
 c102694:	e3530000 	cmp	r3, #0
 c102698:	1a000010 	bne	c1026e0 <power_off+0xc8>
 c10269c:	e59f3050 	ldr	r3, [pc, #80]	; c1026f4 <power_off+0xdc>
 c1026a0:	e59f204c 	ldr	r2, [pc, #76]	; c1026f4 <power_off+0xdc>
 c1026a4:	e5922000 	ldr	r2, [r2]
 c1026a8:	e3c22080 	bic	r2, r2, #128	; 0x80
 c1026ac:	e5832000 	str	r2, [r3]
 c1026b0:	ea00000b 	b	c1026e4 <power_off+0xcc>
 c1026b4:	e59f3038 	ldr	r3, [pc, #56]	; c1026f4 <power_off+0xdc>
 c1026b8:	e59f2034 	ldr	r2, [pc, #52]	; c1026f4 <power_off+0xdc>
 c1026bc:	e5921000 	ldr	r1, [r2]
 c1026c0:	e55b200d 	ldrb	r2, [fp, #-13]
 c1026c4:	e3a00001 	mov	r0, #1
 c1026c8:	e1a02210 	lsl	r2, r0, r2
 c1026cc:	e1e02002 	mvn	r2, r2
 c1026d0:	e0012002 	and	r2, r1, r2
 c1026d4:	e5832000 	str	r2, [r3]
 c1026d8:	e1a00000 	nop			; (mov r0, r0)
 c1026dc:	ea000000 	b	c1026e4 <power_off+0xcc>
 c1026e0:	e1a00000 	nop			; (mov r0, r0)
 c1026e4:	e24bd00c 	sub	sp, fp, #12
 c1026e8:	e89d6800 	ldm	sp, {fp, sp, lr}
 c1026ec:	e12fff1e 	bx	lr
 c1026f0:	16fe0000 	.word	0x16fe0000
 c1026f4:	01d80004 	.word	0x01d80004
 c1026f8:	00007f68 	.word	0x00007f68

0c1026fc <power_status>:
 c1026fc:	e1a0c00d 	mov	ip, sp
 c102700:	e92dd800 	push	{fp, ip, lr, pc}
 c102704:	e24cb004 	sub	fp, ip, #4
 c102708:	e24dd008 	sub	sp, sp, #8
 c10270c:	e1a03000 	mov	r3, r0
 c102710:	e54b300d 	strb	r3, [fp, #-13]
 c102714:	e59f302c 	ldr	r3, [pc, #44]	; c102748 <power_status+0x4c>
 c102718:	e5932000 	ldr	r2, [r3]
 c10271c:	e55b300d 	ldrb	r3, [fp, #-13]
 c102720:	e3a01001 	mov	r1, #1
 c102724:	e1a03311 	lsl	r3, r1, r3
 c102728:	e0022003 	and	r2, r2, r3
 c10272c:	e55b300d 	ldrb	r3, [fp, #-13]
 c102730:	e1a03332 	lsr	r3, r2, r3
 c102734:	e20330ff 	and	r3, r3, #255	; 0xff
 c102738:	e1a00003 	mov	r0, r3
 c10273c:	e24bd00c 	sub	sp, fp, #12
 c102740:	e89d6800 	ldm	sp, {fp, sp, lr}
 c102744:	e12fff1e 	bx	lr
 c102748:	01d80004 	.word	0x01d80004

0c10274c <rtc_init>:
 c10274c:	e1a0c00d 	mov	ip, sp
 c102750:	e92dd800 	push	{fp, ip, lr, pc}
 c102754:	e24cb004 	sub	fp, ip, #4
 c102758:	e3a0000b 	mov	r0, #11
 c10275c:	ebffff75 	bl	c102538 <power_on>
 c102760:	e59f30e4 	ldr	r3, [pc, #228]	; c10284c <rtc_init+0x100>
 c102764:	e3a02000 	mov	r2, #0
 c102768:	e5832000 	str	r2, [r3]
 c10276c:	e59f30dc 	ldr	r3, [pc, #220]	; c102850 <rtc_init+0x104>
 c102770:	e3a02000 	mov	r2, #0
 c102774:	e5832000 	str	r2, [r3]
 c102778:	e59f30d4 	ldr	r3, [pc, #212]	; c102854 <rtc_init+0x108>
 c10277c:	e3a02000 	mov	r2, #0
 c102780:	e5832000 	str	r2, [r3]
 c102784:	e59f30cc 	ldr	r3, [pc, #204]	; c102858 <rtc_init+0x10c>
 c102788:	e3a02001 	mov	r2, #1
 c10278c:	e5832000 	str	r2, [r3]
 c102790:	e59f30c4 	ldr	r3, [pc, #196]	; c10285c <rtc_init+0x110>
 c102794:	e3a02013 	mov	r2, #19
 c102798:	e5832000 	str	r2, [r3]
 c10279c:	e59f30bc 	ldr	r3, [pc, #188]	; c102860 <rtc_init+0x114>
 c1027a0:	e3a02001 	mov	r2, #1
 c1027a4:	e5832000 	str	r2, [r3]
 c1027a8:	e59f30b4 	ldr	r3, [pc, #180]	; c102864 <rtc_init+0x118>
 c1027ac:	e3a02001 	mov	r2, #1
 c1027b0:	e5832000 	str	r2, [r3]
 c1027b4:	e59f30ac 	ldr	r3, [pc, #172]	; c102868 <rtc_init+0x11c>
 c1027b8:	e3a02003 	mov	r2, #3
 c1027bc:	e5832000 	str	r2, [r3]
 c1027c0:	e59f30a4 	ldr	r3, [pc, #164]	; c10286c <rtc_init+0x120>
 c1027c4:	e3a02000 	mov	r2, #0
 c1027c8:	e5832000 	str	r2, [r3]
 c1027cc:	e59f309c 	ldr	r3, [pc, #156]	; c102870 <rtc_init+0x124>
 c1027d0:	e3a02000 	mov	r2, #0
 c1027d4:	e5832000 	str	r2, [r3]
 c1027d8:	e59f3094 	ldr	r3, [pc, #148]	; c102874 <rtc_init+0x128>
 c1027dc:	e3a02000 	mov	r2, #0
 c1027e0:	e5832000 	str	r2, [r3]
 c1027e4:	e59f308c 	ldr	r3, [pc, #140]	; c102878 <rtc_init+0x12c>
 c1027e8:	e3a02000 	mov	r2, #0
 c1027ec:	e5832000 	str	r2, [r3]
 c1027f0:	e59f3084 	ldr	r3, [pc, #132]	; c10287c <rtc_init+0x130>
 c1027f4:	e3a02000 	mov	r2, #0
 c1027f8:	e5832000 	str	r2, [r3]
 c1027fc:	e59f307c 	ldr	r3, [pc, #124]	; c102880 <rtc_init+0x134>
 c102800:	e3a02000 	mov	r2, #0
 c102804:	e5832000 	str	r2, [r3]
 c102808:	e59f3074 	ldr	r3, [pc, #116]	; c102884 <rtc_init+0x138>
 c10280c:	e3a02000 	mov	r2, #0
 c102810:	e5832000 	str	r2, [r3]
 c102814:	e59f306c 	ldr	r3, [pc, #108]	; c102888 <rtc_init+0x13c>
 c102818:	e3a02000 	mov	r2, #0
 c10281c:	e5832000 	str	r2, [r3]
 c102820:	e59f3064 	ldr	r3, [pc, #100]	; c10288c <rtc_init+0x140>
 c102824:	e3a02000 	mov	r2, #0
 c102828:	e5832000 	str	r2, [r3]
 c10282c:	e59f3024 	ldr	r3, [pc, #36]	; c102858 <rtc_init+0x10c>
 c102830:	e59f2020 	ldr	r2, [pc, #32]	; c102858 <rtc_init+0x10c>
 c102834:	e5922000 	ldr	r2, [r2]
 c102838:	e3c22001 	bic	r2, r2, #1
 c10283c:	e5832000 	str	r2, [r3]
 c102840:	e24bd00c 	sub	sp, fp, #12
 c102844:	e89d6800 	ldm	sp, {fp, sp, lr}
 c102848:	e12fff1e 	bx	lr
 c10284c:	01d7008c 	.word	0x01d7008c
 c102850:	01d70050 	.word	0x01d70050
 c102854:	01d7006c 	.word	0x01d7006c
 c102858:	01d70040 	.word	0x01d70040
 c10285c:	01d70088 	.word	0x01d70088
 c102860:	01d70084 	.word	0x01d70084
 c102864:	01d7007c 	.word	0x01d7007c
 c102868:	01d70080 	.word	0x01d70080
 c10286c:	01d70078 	.word	0x01d70078
 c102870:	01d70074 	.word	0x01d70074
 c102874:	01d70070 	.word	0x01d70070
 c102878:	01d70068 	.word	0x01d70068
 c10287c:	01d70064 	.word	0x01d70064
 c102880:	01d70060 	.word	0x01d70060
 c102884:	01d7005c 	.word	0x01d7005c
 c102888:	01d70058 	.word	0x01d70058
 c10288c:	01d70054 	.word	0x01d70054

0c102890 <rtc_puttime>:
 c102890:	e1a0c00d 	mov	ip, sp
 c102894:	e92dd800 	push	{fp, ip, lr, pc}
 c102898:	e24cb004 	sub	fp, ip, #4
 c10289c:	e24dd008 	sub	sp, sp, #8
 c1028a0:	e50b0010 	str	r0, [fp, #-16]
 c1028a4:	e59f3278 	ldr	r3, [pc, #632]	; c102b24 <rtc_puttime+0x294>
 c1028a8:	e59f2274 	ldr	r2, [pc, #628]	; c102b24 <rtc_puttime+0x294>
 c1028ac:	e5922000 	ldr	r2, [r2]
 c1028b0:	e3822001 	orr	r2, r2, #1
 c1028b4:	e5832000 	str	r2, [r3]
 c1028b8:	e59f0268 	ldr	r0, [pc, #616]	; c102b28 <rtc_puttime+0x298>
 c1028bc:	e51b3010 	ldr	r3, [fp, #-16]
 c1028c0:	e5d32006 	ldrb	r2, [r3, #6]
 c1028c4:	e59f3260 	ldr	r3, [pc, #608]	; c102b2c <rtc_puttime+0x29c>
 c1028c8:	e0831392 	umull	r1, r3, r2, r3
 c1028cc:	e1a031a3 	lsr	r3, r3, #3
 c1028d0:	e20330ff 	and	r3, r3, #255	; 0xff
 c1028d4:	e1a0c203 	lsl	ip, r3, #4
 c1028d8:	e51b3010 	ldr	r3, [fp, #-16]
 c1028dc:	e5d32006 	ldrb	r2, [r3, #6]
 c1028e0:	e59f3244 	ldr	r3, [pc, #580]	; c102b2c <rtc_puttime+0x29c>
 c1028e4:	e0831392 	umull	r1, r3, r2, r3
 c1028e8:	e1a011a3 	lsr	r1, r3, #3
 c1028ec:	e1a03001 	mov	r3, r1
 c1028f0:	e1a03103 	lsl	r3, r3, #2
 c1028f4:	e0833001 	add	r3, r3, r1
 c1028f8:	e1a03083 	lsl	r3, r3, #1
 c1028fc:	e0633002 	rsb	r3, r3, r2
 c102900:	e20330ff 	and	r3, r3, #255	; 0xff
 c102904:	e08c3003 	add	r3, ip, r3
 c102908:	e5803000 	str	r3, [r0]
 c10290c:	e59f021c 	ldr	r0, [pc, #540]	; c102b30 <rtc_puttime+0x2a0>
 c102910:	e51b3010 	ldr	r3, [fp, #-16]
 c102914:	e5d32005 	ldrb	r2, [r3, #5]
 c102918:	e59f320c 	ldr	r3, [pc, #524]	; c102b2c <rtc_puttime+0x29c>
 c10291c:	e0831392 	umull	r1, r3, r2, r3
 c102920:	e1a031a3 	lsr	r3, r3, #3
 c102924:	e20330ff 	and	r3, r3, #255	; 0xff
 c102928:	e1a0c203 	lsl	ip, r3, #4
 c10292c:	e51b3010 	ldr	r3, [fp, #-16]
 c102930:	e5d32005 	ldrb	r2, [r3, #5]
 c102934:	e59f31f0 	ldr	r3, [pc, #496]	; c102b2c <rtc_puttime+0x29c>
 c102938:	e0831392 	umull	r1, r3, r2, r3
 c10293c:	e1a011a3 	lsr	r1, r3, #3
 c102940:	e1a03001 	mov	r3, r1
 c102944:	e1a03103 	lsl	r3, r3, #2
 c102948:	e0833001 	add	r3, r3, r1
 c10294c:	e1a03083 	lsl	r3, r3, #1
 c102950:	e0633002 	rsb	r3, r3, r2
 c102954:	e20330ff 	and	r3, r3, #255	; 0xff
 c102958:	e08c3003 	add	r3, ip, r3
 c10295c:	e5803000 	str	r3, [r0]
 c102960:	e59f01cc 	ldr	r0, [pc, #460]	; c102b34 <rtc_puttime+0x2a4>
 c102964:	e51b3010 	ldr	r3, [fp, #-16]
 c102968:	e5d32003 	ldrb	r2, [r3, #3]
 c10296c:	e59f31b8 	ldr	r3, [pc, #440]	; c102b2c <rtc_puttime+0x29c>
 c102970:	e0831392 	umull	r1, r3, r2, r3
 c102974:	e1a031a3 	lsr	r3, r3, #3
 c102978:	e20330ff 	and	r3, r3, #255	; 0xff
 c10297c:	e1a0c203 	lsl	ip, r3, #4
 c102980:	e51b3010 	ldr	r3, [fp, #-16]
 c102984:	e5d32003 	ldrb	r2, [r3, #3]
 c102988:	e59f319c 	ldr	r3, [pc, #412]	; c102b2c <rtc_puttime+0x29c>
 c10298c:	e0831392 	umull	r1, r3, r2, r3
 c102990:	e1a011a3 	lsr	r1, r3, #3
 c102994:	e1a03001 	mov	r3, r1
 c102998:	e1a03103 	lsl	r3, r3, #2
 c10299c:	e0833001 	add	r3, r3, r1
 c1029a0:	e1a03083 	lsl	r3, r3, #1
 c1029a4:	e0633002 	rsb	r3, r3, r2
 c1029a8:	e20330ff 	and	r3, r3, #255	; 0xff
 c1029ac:	e08c3003 	add	r3, ip, r3
 c1029b0:	e5803000 	str	r3, [r0]
 c1029b4:	e59f017c 	ldr	r0, [pc, #380]	; c102b38 <rtc_puttime+0x2a8>
 c1029b8:	e51b3010 	ldr	r3, [fp, #-16]
 c1029bc:	e5d32004 	ldrb	r2, [r3, #4]
 c1029c0:	e59f3164 	ldr	r3, [pc, #356]	; c102b2c <rtc_puttime+0x29c>
 c1029c4:	e0831392 	umull	r1, r3, r2, r3
 c1029c8:	e1a031a3 	lsr	r3, r3, #3
 c1029cc:	e20330ff 	and	r3, r3, #255	; 0xff
 c1029d0:	e1a0c203 	lsl	ip, r3, #4
 c1029d4:	e51b3010 	ldr	r3, [fp, #-16]
 c1029d8:	e5d32004 	ldrb	r2, [r3, #4]
 c1029dc:	e59f3148 	ldr	r3, [pc, #328]	; c102b2c <rtc_puttime+0x29c>
 c1029e0:	e0831392 	umull	r1, r3, r2, r3
 c1029e4:	e1a011a3 	lsr	r1, r3, #3
 c1029e8:	e1a03001 	mov	r3, r1
 c1029ec:	e1a03103 	lsl	r3, r3, #2
 c1029f0:	e0833001 	add	r3, r3, r1
 c1029f4:	e1a03083 	lsl	r3, r3, #1
 c1029f8:	e0633002 	rsb	r3, r3, r2
 c1029fc:	e20330ff 	and	r3, r3, #255	; 0xff
 c102a00:	e08c3003 	add	r3, ip, r3
 c102a04:	e5803000 	str	r3, [r0]
 c102a08:	e59f012c 	ldr	r0, [pc, #300]	; c102b3c <rtc_puttime+0x2ac>
 c102a0c:	e51b3010 	ldr	r3, [fp, #-16]
 c102a10:	e5d32002 	ldrb	r2, [r3, #2]
 c102a14:	e59f3110 	ldr	r3, [pc, #272]	; c102b2c <rtc_puttime+0x29c>
 c102a18:	e0831392 	umull	r1, r3, r2, r3
 c102a1c:	e1a031a3 	lsr	r3, r3, #3
 c102a20:	e20330ff 	and	r3, r3, #255	; 0xff
 c102a24:	e1a0c203 	lsl	ip, r3, #4
 c102a28:	e51b3010 	ldr	r3, [fp, #-16]
 c102a2c:	e5d32002 	ldrb	r2, [r3, #2]
 c102a30:	e59f30f4 	ldr	r3, [pc, #244]	; c102b2c <rtc_puttime+0x29c>
 c102a34:	e0831392 	umull	r1, r3, r2, r3
 c102a38:	e1a011a3 	lsr	r1, r3, #3
 c102a3c:	e1a03001 	mov	r3, r1
 c102a40:	e1a03103 	lsl	r3, r3, #2
 c102a44:	e0833001 	add	r3, r3, r1
 c102a48:	e1a03083 	lsl	r3, r3, #1
 c102a4c:	e0633002 	rsb	r3, r3, r2
 c102a50:	e20330ff 	and	r3, r3, #255	; 0xff
 c102a54:	e08c3003 	add	r3, ip, r3
 c102a58:	e5803000 	str	r3, [r0]
 c102a5c:	e59f00dc 	ldr	r0, [pc, #220]	; c102b40 <rtc_puttime+0x2b0>
 c102a60:	e51b3010 	ldr	r3, [fp, #-16]
 c102a64:	e5d32001 	ldrb	r2, [r3, #1]
 c102a68:	e59f30bc 	ldr	r3, [pc, #188]	; c102b2c <rtc_puttime+0x29c>
 c102a6c:	e0831392 	umull	r1, r3, r2, r3
 c102a70:	e1a031a3 	lsr	r3, r3, #3
 c102a74:	e20330ff 	and	r3, r3, #255	; 0xff
 c102a78:	e1a0c203 	lsl	ip, r3, #4
 c102a7c:	e51b3010 	ldr	r3, [fp, #-16]
 c102a80:	e5d32001 	ldrb	r2, [r3, #1]
 c102a84:	e59f30a0 	ldr	r3, [pc, #160]	; c102b2c <rtc_puttime+0x29c>
 c102a88:	e0831392 	umull	r1, r3, r2, r3
 c102a8c:	e1a011a3 	lsr	r1, r3, #3
 c102a90:	e1a03001 	mov	r3, r1
 c102a94:	e1a03103 	lsl	r3, r3, #2
 c102a98:	e0833001 	add	r3, r3, r1
 c102a9c:	e1a03083 	lsl	r3, r3, #1
 c102aa0:	e0633002 	rsb	r3, r3, r2
 c102aa4:	e20330ff 	and	r3, r3, #255	; 0xff
 c102aa8:	e08c3003 	add	r3, ip, r3
 c102aac:	e5803000 	str	r3, [r0]
 c102ab0:	e59f008c 	ldr	r0, [pc, #140]	; c102b44 <rtc_puttime+0x2b4>
 c102ab4:	e51b3010 	ldr	r3, [fp, #-16]
 c102ab8:	e5d32000 	ldrb	r2, [r3]
 c102abc:	e59f3068 	ldr	r3, [pc, #104]	; c102b2c <rtc_puttime+0x29c>
 c102ac0:	e0831392 	umull	r1, r3, r2, r3
 c102ac4:	e1a031a3 	lsr	r3, r3, #3
 c102ac8:	e20330ff 	and	r3, r3, #255	; 0xff
 c102acc:	e1a0c203 	lsl	ip, r3, #4
 c102ad0:	e51b3010 	ldr	r3, [fp, #-16]
 c102ad4:	e5d32000 	ldrb	r2, [r3]
 c102ad8:	e59f304c 	ldr	r3, [pc, #76]	; c102b2c <rtc_puttime+0x29c>
 c102adc:	e0831392 	umull	r1, r3, r2, r3
 c102ae0:	e1a011a3 	lsr	r1, r3, #3
 c102ae4:	e1a03001 	mov	r3, r1
 c102ae8:	e1a03103 	lsl	r3, r3, #2
 c102aec:	e0833001 	add	r3, r3, r1
 c102af0:	e1a03083 	lsl	r3, r3, #1
 c102af4:	e0633002 	rsb	r3, r3, r2
 c102af8:	e20330ff 	and	r3, r3, #255	; 0xff
 c102afc:	e08c3003 	add	r3, ip, r3
 c102b00:	e5803000 	str	r3, [r0]
 c102b04:	e59f3018 	ldr	r3, [pc, #24]	; c102b24 <rtc_puttime+0x294>
 c102b08:	e59f2014 	ldr	r2, [pc, #20]	; c102b24 <rtc_puttime+0x294>
 c102b0c:	e5922000 	ldr	r2, [r2]
 c102b10:	e3c22001 	bic	r2, r2, #1
 c102b14:	e5832000 	str	r2, [r3]
 c102b18:	e24bd00c 	sub	sp, fp, #12
 c102b1c:	e89d6800 	ldm	sp, {fp, sp, lr}
 c102b20:	e12fff1e 	bx	lr
 c102b24:	01d70040 	.word	0x01d70040
 c102b28:	01d70088 	.word	0x01d70088
 c102b2c:	cccccccd 	.word	0xcccccccd
 c102b30:	01d70084 	.word	0x01d70084
 c102b34:	01d7007c 	.word	0x01d7007c
 c102b38:	01d70080 	.word	0x01d70080
 c102b3c:	01d70078 	.word	0x01d70078
 c102b40:	01d70074 	.word	0x01d70074
 c102b44:	01d70070 	.word	0x01d70070

0c102b48 <rtc_gettime>:
 c102b48:	e1a0c00d 	mov	ip, sp
 c102b4c:	e92dd800 	push	{fp, ip, lr, pc}
 c102b50:	e24cb004 	sub	fp, ip, #4
 c102b54:	e24dd008 	sub	sp, sp, #8
 c102b58:	e50b0010 	str	r0, [fp, #-16]
 c102b5c:	e59f342c 	ldr	r3, [pc, #1068]	; c102f90 <rtc_gettime+0x448>
 c102b60:	e59f2428 	ldr	r2, [pc, #1064]	; c102f90 <rtc_gettime+0x448>
 c102b64:	e5922000 	ldr	r2, [r2]
 c102b68:	e3822001 	orr	r2, r2, #1
 c102b6c:	e5832000 	str	r2, [r3]
 c102b70:	e59f341c 	ldr	r3, [pc, #1052]	; c102f94 <rtc_gettime+0x44c>
 c102b74:	e5933000 	ldr	r3, [r3]
 c102b78:	e1a03223 	lsr	r3, r3, #4
 c102b7c:	e20330ff 	and	r3, r3, #255	; 0xff
 c102b80:	e1a02003 	mov	r2, r3
 c102b84:	e1a02102 	lsl	r2, r2, #2
 c102b88:	e0823003 	add	r3, r2, r3
 c102b8c:	e1a03083 	lsl	r3, r3, #1
 c102b90:	e20320ff 	and	r2, r3, #255	; 0xff
 c102b94:	e59f33f8 	ldr	r3, [pc, #1016]	; c102f94 <rtc_gettime+0x44c>
 c102b98:	e5933000 	ldr	r3, [r3]
 c102b9c:	e20330ff 	and	r3, r3, #255	; 0xff
 c102ba0:	e203300f 	and	r3, r3, #15
 c102ba4:	e20330ff 	and	r3, r3, #255	; 0xff
 c102ba8:	e0823003 	add	r3, r2, r3
 c102bac:	e20320ff 	and	r2, r3, #255	; 0xff
 c102bb0:	e51b3010 	ldr	r3, [fp, #-16]
 c102bb4:	e5c32006 	strb	r2, [r3, #6]
 c102bb8:	e59f33d8 	ldr	r3, [pc, #984]	; c102f98 <rtc_gettime+0x450>
 c102bbc:	e5933000 	ldr	r3, [r3]
 c102bc0:	e1a03223 	lsr	r3, r3, #4
 c102bc4:	e20330ff 	and	r3, r3, #255	; 0xff
 c102bc8:	e1a02003 	mov	r2, r3
 c102bcc:	e1a02102 	lsl	r2, r2, #2
 c102bd0:	e0823003 	add	r3, r2, r3
 c102bd4:	e1a03083 	lsl	r3, r3, #1
 c102bd8:	e20320ff 	and	r2, r3, #255	; 0xff
 c102bdc:	e59f33b4 	ldr	r3, [pc, #948]	; c102f98 <rtc_gettime+0x450>
 c102be0:	e5933000 	ldr	r3, [r3]
 c102be4:	e20330ff 	and	r3, r3, #255	; 0xff
 c102be8:	e203300f 	and	r3, r3, #15
 c102bec:	e20330ff 	and	r3, r3, #255	; 0xff
 c102bf0:	e0823003 	add	r3, r2, r3
 c102bf4:	e20320ff 	and	r2, r3, #255	; 0xff
 c102bf8:	e51b3010 	ldr	r3, [fp, #-16]
 c102bfc:	e5c32005 	strb	r2, [r3, #5]
 c102c00:	e59f3394 	ldr	r3, [pc, #916]	; c102f9c <rtc_gettime+0x454>
 c102c04:	e5933000 	ldr	r3, [r3]
 c102c08:	e1a03223 	lsr	r3, r3, #4
 c102c0c:	e20330ff 	and	r3, r3, #255	; 0xff
 c102c10:	e1a02003 	mov	r2, r3
 c102c14:	e1a02102 	lsl	r2, r2, #2
 c102c18:	e0823003 	add	r3, r2, r3
 c102c1c:	e1a03083 	lsl	r3, r3, #1
 c102c20:	e20320ff 	and	r2, r3, #255	; 0xff
 c102c24:	e59f3370 	ldr	r3, [pc, #880]	; c102f9c <rtc_gettime+0x454>
 c102c28:	e5933000 	ldr	r3, [r3]
 c102c2c:	e20330ff 	and	r3, r3, #255	; 0xff
 c102c30:	e203300f 	and	r3, r3, #15
 c102c34:	e20330ff 	and	r3, r3, #255	; 0xff
 c102c38:	e0823003 	add	r3, r2, r3
 c102c3c:	e20320ff 	and	r2, r3, #255	; 0xff
 c102c40:	e51b3010 	ldr	r3, [fp, #-16]
 c102c44:	e5c32003 	strb	r2, [r3, #3]
 c102c48:	e59f3350 	ldr	r3, [pc, #848]	; c102fa0 <rtc_gettime+0x458>
 c102c4c:	e5933000 	ldr	r3, [r3]
 c102c50:	e1a03223 	lsr	r3, r3, #4
 c102c54:	e20330ff 	and	r3, r3, #255	; 0xff
 c102c58:	e1a02003 	mov	r2, r3
 c102c5c:	e1a02102 	lsl	r2, r2, #2
 c102c60:	e0823003 	add	r3, r2, r3
 c102c64:	e1a03083 	lsl	r3, r3, #1
 c102c68:	e20320ff 	and	r2, r3, #255	; 0xff
 c102c6c:	e59f332c 	ldr	r3, [pc, #812]	; c102fa0 <rtc_gettime+0x458>
 c102c70:	e5933000 	ldr	r3, [r3]
 c102c74:	e20330ff 	and	r3, r3, #255	; 0xff
 c102c78:	e203300f 	and	r3, r3, #15
 c102c7c:	e20330ff 	and	r3, r3, #255	; 0xff
 c102c80:	e0823003 	add	r3, r2, r3
 c102c84:	e20320ff 	and	r2, r3, #255	; 0xff
 c102c88:	e51b3010 	ldr	r3, [fp, #-16]
 c102c8c:	e5c32004 	strb	r2, [r3, #4]
 c102c90:	e59f330c 	ldr	r3, [pc, #780]	; c102fa4 <rtc_gettime+0x45c>
 c102c94:	e5933000 	ldr	r3, [r3]
 c102c98:	e1a03223 	lsr	r3, r3, #4
 c102c9c:	e20330ff 	and	r3, r3, #255	; 0xff
 c102ca0:	e1a02003 	mov	r2, r3
 c102ca4:	e1a02102 	lsl	r2, r2, #2
 c102ca8:	e0823003 	add	r3, r2, r3
 c102cac:	e1a03083 	lsl	r3, r3, #1
 c102cb0:	e20320ff 	and	r2, r3, #255	; 0xff
 c102cb4:	e59f32e8 	ldr	r3, [pc, #744]	; c102fa4 <rtc_gettime+0x45c>
 c102cb8:	e5933000 	ldr	r3, [r3]
 c102cbc:	e20330ff 	and	r3, r3, #255	; 0xff
 c102cc0:	e203300f 	and	r3, r3, #15
 c102cc4:	e20330ff 	and	r3, r3, #255	; 0xff
 c102cc8:	e0823003 	add	r3, r2, r3
 c102ccc:	e20320ff 	and	r2, r3, #255	; 0xff
 c102cd0:	e51b3010 	ldr	r3, [fp, #-16]
 c102cd4:	e5c32002 	strb	r2, [r3, #2]
 c102cd8:	e59f32c8 	ldr	r3, [pc, #712]	; c102fa8 <rtc_gettime+0x460>
 c102cdc:	e5933000 	ldr	r3, [r3]
 c102ce0:	e1a03223 	lsr	r3, r3, #4
 c102ce4:	e20330ff 	and	r3, r3, #255	; 0xff
 c102ce8:	e1a02003 	mov	r2, r3
 c102cec:	e1a02102 	lsl	r2, r2, #2
 c102cf0:	e0823003 	add	r3, r2, r3
 c102cf4:	e1a03083 	lsl	r3, r3, #1
 c102cf8:	e20320ff 	and	r2, r3, #255	; 0xff
 c102cfc:	e59f32a4 	ldr	r3, [pc, #676]	; c102fa8 <rtc_gettime+0x460>
 c102d00:	e5933000 	ldr	r3, [r3]
 c102d04:	e20330ff 	and	r3, r3, #255	; 0xff
 c102d08:	e203300f 	and	r3, r3, #15
 c102d0c:	e20330ff 	and	r3, r3, #255	; 0xff
 c102d10:	e0823003 	add	r3, r2, r3
 c102d14:	e20320ff 	and	r2, r3, #255	; 0xff
 c102d18:	e51b3010 	ldr	r3, [fp, #-16]
 c102d1c:	e5c32001 	strb	r2, [r3, #1]
 c102d20:	e59f3284 	ldr	r3, [pc, #644]	; c102fac <rtc_gettime+0x464>
 c102d24:	e5933000 	ldr	r3, [r3]
 c102d28:	e1a03223 	lsr	r3, r3, #4
 c102d2c:	e20330ff 	and	r3, r3, #255	; 0xff
 c102d30:	e1a02003 	mov	r2, r3
 c102d34:	e1a02102 	lsl	r2, r2, #2
 c102d38:	e0823003 	add	r3, r2, r3
 c102d3c:	e1a03083 	lsl	r3, r3, #1
 c102d40:	e20320ff 	and	r2, r3, #255	; 0xff
 c102d44:	e59f3260 	ldr	r3, [pc, #608]	; c102fac <rtc_gettime+0x464>
 c102d48:	e5933000 	ldr	r3, [r3]
 c102d4c:	e20330ff 	and	r3, r3, #255	; 0xff
 c102d50:	e203300f 	and	r3, r3, #15
 c102d54:	e20330ff 	and	r3, r3, #255	; 0xff
 c102d58:	e0823003 	add	r3, r2, r3
 c102d5c:	e20320ff 	and	r2, r3, #255	; 0xff
 c102d60:	e51b3010 	ldr	r3, [fp, #-16]
 c102d64:	e5c32000 	strb	r2, [r3]
 c102d68:	e51b3010 	ldr	r3, [fp, #-16]
 c102d6c:	e5d33000 	ldrb	r3, [r3]
 c102d70:	e3530000 	cmp	r3, #0
 c102d74:	1a00007d 	bne	c102f70 <rtc_gettime+0x428>
 c102d78:	e59f3214 	ldr	r3, [pc, #532]	; c102f94 <rtc_gettime+0x44c>
 c102d7c:	e5933000 	ldr	r3, [r3]
 c102d80:	e1a03223 	lsr	r3, r3, #4
 c102d84:	e20330ff 	and	r3, r3, #255	; 0xff
 c102d88:	e1a02003 	mov	r2, r3
 c102d8c:	e1a02102 	lsl	r2, r2, #2
 c102d90:	e0823003 	add	r3, r2, r3
 c102d94:	e1a03083 	lsl	r3, r3, #1
 c102d98:	e20320ff 	and	r2, r3, #255	; 0xff
 c102d9c:	e59f31f0 	ldr	r3, [pc, #496]	; c102f94 <rtc_gettime+0x44c>
 c102da0:	e5933000 	ldr	r3, [r3]
 c102da4:	e20330ff 	and	r3, r3, #255	; 0xff
 c102da8:	e203300f 	and	r3, r3, #15
 c102dac:	e20330ff 	and	r3, r3, #255	; 0xff
 c102db0:	e0823003 	add	r3, r2, r3
 c102db4:	e20320ff 	and	r2, r3, #255	; 0xff
 c102db8:	e51b3010 	ldr	r3, [fp, #-16]
 c102dbc:	e5c32006 	strb	r2, [r3, #6]
 c102dc0:	e59f31d0 	ldr	r3, [pc, #464]	; c102f98 <rtc_gettime+0x450>
 c102dc4:	e5933000 	ldr	r3, [r3]
 c102dc8:	e1a03223 	lsr	r3, r3, #4
 c102dcc:	e20330ff 	and	r3, r3, #255	; 0xff
 c102dd0:	e1a02003 	mov	r2, r3
 c102dd4:	e1a02102 	lsl	r2, r2, #2
 c102dd8:	e0823003 	add	r3, r2, r3
 c102ddc:	e1a03083 	lsl	r3, r3, #1
 c102de0:	e20320ff 	and	r2, r3, #255	; 0xff
 c102de4:	e59f31ac 	ldr	r3, [pc, #428]	; c102f98 <rtc_gettime+0x450>
 c102de8:	e5933000 	ldr	r3, [r3]
 c102dec:	e20330ff 	and	r3, r3, #255	; 0xff
 c102df0:	e203300f 	and	r3, r3, #15
 c102df4:	e20330ff 	and	r3, r3, #255	; 0xff
 c102df8:	e0823003 	add	r3, r2, r3
 c102dfc:	e20320ff 	and	r2, r3, #255	; 0xff
 c102e00:	e51b3010 	ldr	r3, [fp, #-16]
 c102e04:	e5c32005 	strb	r2, [r3, #5]
 c102e08:	e59f318c 	ldr	r3, [pc, #396]	; c102f9c <rtc_gettime+0x454>
 c102e0c:	e5933000 	ldr	r3, [r3]
 c102e10:	e1a03223 	lsr	r3, r3, #4
 c102e14:	e20330ff 	and	r3, r3, #255	; 0xff
 c102e18:	e1a02003 	mov	r2, r3
 c102e1c:	e1a02102 	lsl	r2, r2, #2
 c102e20:	e0823003 	add	r3, r2, r3
 c102e24:	e1a03083 	lsl	r3, r3, #1
 c102e28:	e20320ff 	and	r2, r3, #255	; 0xff
 c102e2c:	e59f3168 	ldr	r3, [pc, #360]	; c102f9c <rtc_gettime+0x454>
 c102e30:	e5933000 	ldr	r3, [r3]
 c102e34:	e20330ff 	and	r3, r3, #255	; 0xff
 c102e38:	e203300f 	and	r3, r3, #15
 c102e3c:	e20330ff 	and	r3, r3, #255	; 0xff
 c102e40:	e0823003 	add	r3, r2, r3
 c102e44:	e20320ff 	and	r2, r3, #255	; 0xff
 c102e48:	e51b3010 	ldr	r3, [fp, #-16]
 c102e4c:	e5c32003 	strb	r2, [r3, #3]
 c102e50:	e59f3148 	ldr	r3, [pc, #328]	; c102fa0 <rtc_gettime+0x458>
 c102e54:	e5933000 	ldr	r3, [r3]
 c102e58:	e1a03223 	lsr	r3, r3, #4
 c102e5c:	e20330ff 	and	r3, r3, #255	; 0xff
 c102e60:	e1a02003 	mov	r2, r3
 c102e64:	e1a02102 	lsl	r2, r2, #2
 c102e68:	e0823003 	add	r3, r2, r3
 c102e6c:	e1a03083 	lsl	r3, r3, #1
 c102e70:	e20320ff 	and	r2, r3, #255	; 0xff
 c102e74:	e59f3124 	ldr	r3, [pc, #292]	; c102fa0 <rtc_gettime+0x458>
 c102e78:	e5933000 	ldr	r3, [r3]
 c102e7c:	e20330ff 	and	r3, r3, #255	; 0xff
 c102e80:	e203300f 	and	r3, r3, #15
 c102e84:	e20330ff 	and	r3, r3, #255	; 0xff
 c102e88:	e0823003 	add	r3, r2, r3
 c102e8c:	e20320ff 	and	r2, r3, #255	; 0xff
 c102e90:	e51b3010 	ldr	r3, [fp, #-16]
 c102e94:	e5c32004 	strb	r2, [r3, #4]
 c102e98:	e59f3104 	ldr	r3, [pc, #260]	; c102fa4 <rtc_gettime+0x45c>
 c102e9c:	e5933000 	ldr	r3, [r3]
 c102ea0:	e1a03223 	lsr	r3, r3, #4
 c102ea4:	e20330ff 	and	r3, r3, #255	; 0xff
 c102ea8:	e1a02003 	mov	r2, r3
 c102eac:	e1a02102 	lsl	r2, r2, #2
 c102eb0:	e0823003 	add	r3, r2, r3
 c102eb4:	e1a03083 	lsl	r3, r3, #1
 c102eb8:	e20320ff 	and	r2, r3, #255	; 0xff
 c102ebc:	e59f30e0 	ldr	r3, [pc, #224]	; c102fa4 <rtc_gettime+0x45c>
 c102ec0:	e5933000 	ldr	r3, [r3]
 c102ec4:	e20330ff 	and	r3, r3, #255	; 0xff
 c102ec8:	e203300f 	and	r3, r3, #15
 c102ecc:	e20330ff 	and	r3, r3, #255	; 0xff
 c102ed0:	e0823003 	add	r3, r2, r3
 c102ed4:	e20320ff 	and	r2, r3, #255	; 0xff
 c102ed8:	e51b3010 	ldr	r3, [fp, #-16]
 c102edc:	e5c32002 	strb	r2, [r3, #2]
 c102ee0:	e59f30c0 	ldr	r3, [pc, #192]	; c102fa8 <rtc_gettime+0x460>
 c102ee4:	e5933000 	ldr	r3, [r3]
 c102ee8:	e1a03223 	lsr	r3, r3, #4
 c102eec:	e20330ff 	and	r3, r3, #255	; 0xff
 c102ef0:	e1a02003 	mov	r2, r3
 c102ef4:	e1a02102 	lsl	r2, r2, #2
 c102ef8:	e0823003 	add	r3, r2, r3
 c102efc:	e1a03083 	lsl	r3, r3, #1
 c102f00:	e20320ff 	and	r2, r3, #255	; 0xff
 c102f04:	e59f309c 	ldr	r3, [pc, #156]	; c102fa8 <rtc_gettime+0x460>
 c102f08:	e5933000 	ldr	r3, [r3]
 c102f0c:	e20330ff 	and	r3, r3, #255	; 0xff
 c102f10:	e203300f 	and	r3, r3, #15
 c102f14:	e20330ff 	and	r3, r3, #255	; 0xff
 c102f18:	e0823003 	add	r3, r2, r3
 c102f1c:	e20320ff 	and	r2, r3, #255	; 0xff
 c102f20:	e51b3010 	ldr	r3, [fp, #-16]
 c102f24:	e5c32001 	strb	r2, [r3, #1]
 c102f28:	e59f307c 	ldr	r3, [pc, #124]	; c102fac <rtc_gettime+0x464>
 c102f2c:	e5933000 	ldr	r3, [r3]
 c102f30:	e1a03223 	lsr	r3, r3, #4
 c102f34:	e20330ff 	and	r3, r3, #255	; 0xff
 c102f38:	e1a02003 	mov	r2, r3
 c102f3c:	e1a02102 	lsl	r2, r2, #2
 c102f40:	e0823003 	add	r3, r2, r3
 c102f44:	e1a03083 	lsl	r3, r3, #1
 c102f48:	e20320ff 	and	r2, r3, #255	; 0xff
 c102f4c:	e59f3058 	ldr	r3, [pc, #88]	; c102fac <rtc_gettime+0x464>
 c102f50:	e5933000 	ldr	r3, [r3]
 c102f54:	e20330ff 	and	r3, r3, #255	; 0xff
 c102f58:	e203300f 	and	r3, r3, #15
 c102f5c:	e20330ff 	and	r3, r3, #255	; 0xff
 c102f60:	e0823003 	add	r3, r2, r3
 c102f64:	e20320ff 	and	r2, r3, #255	; 0xff
 c102f68:	e51b3010 	ldr	r3, [fp, #-16]
 c102f6c:	e5c32000 	strb	r2, [r3]
 c102f70:	e59f3018 	ldr	r3, [pc, #24]	; c102f90 <rtc_gettime+0x448>
 c102f74:	e59f2014 	ldr	r2, [pc, #20]	; c102f90 <rtc_gettime+0x448>
 c102f78:	e5922000 	ldr	r2, [r2]
 c102f7c:	e3c22001 	bic	r2, r2, #1
 c102f80:	e5832000 	str	r2, [r3]
 c102f84:	e24bd00c 	sub	sp, fp, #12
 c102f88:	e89d6800 	ldm	sp, {fp, sp, lr}
 c102f8c:	e12fff1e 	bx	lr
 c102f90:	01d70040 	.word	0x01d70040
 c102f94:	01d70088 	.word	0x01d70088
 c102f98:	01d70084 	.word	0x01d70084
 c102f9c:	01d7007c 	.word	0x01d7007c
 c102fa0:	01d70080 	.word	0x01d70080
 c102fa4:	01d70078 	.word	0x01d70078
 c102fa8:	01d70074 	.word	0x01d70074
 c102fac:	01d70070 	.word	0x01d70070

0c102fb0 <rtc_open>:
 c102fb0:	e1a0c00d 	mov	ip, sp
 c102fb4:	e92dd800 	push	{fp, ip, lr, pc}
 c102fb8:	e24cb004 	sub	fp, ip, #4
 c102fbc:	e24dd008 	sub	sp, sp, #8
 c102fc0:	e50b0010 	str	r0, [fp, #-16]
 c102fc4:	e1a03001 	mov	r3, r1
 c102fc8:	e54b3011 	strb	r3, [fp, #-17]	; 0xffffffef
 c102fcc:	e59f3040 	ldr	r3, [pc, #64]	; c103014 <rtc_open+0x64>
 c102fd0:	e51b2010 	ldr	r2, [fp, #-16]
 c102fd4:	e5832000 	str	r2, [r3]
 c102fd8:	e59f3038 	ldr	r3, [pc, #56]	; c103018 <rtc_open+0x68>
 c102fdc:	e3a02601 	mov	r2, #1048576	; 0x100000
 c102fe0:	e5832000 	str	r2, [r3]
 c102fe4:	e59f3030 	ldr	r3, [pc, #48]	; c10301c <rtc_open+0x6c>
 c102fe8:	e59f202c 	ldr	r2, [pc, #44]	; c10301c <rtc_open+0x6c>
 c102fec:	e5922000 	ldr	r2, [r2]
 c102ff0:	e3c22641 	bic	r2, r2, #68157440	; 0x4100000
 c102ff4:	e5832000 	str	r2, [r3]
 c102ff8:	e59f3020 	ldr	r3, [pc, #32]	; c103020 <rtc_open+0x70>
 c102ffc:	e55b2011 	ldrb	r2, [fp, #-17]	; 0xffffffef
 c103000:	e3822080 	orr	r2, r2, #128	; 0x80
 c103004:	e5832000 	str	r2, [r3]
 c103008:	e24bd00c 	sub	sp, fp, #12
 c10300c:	e89d6800 	ldm	sp, {fp, sp, lr}
 c103010:	e12fff1e 	bx	lr
 c103014:	0c7fff70 	.word	0x0c7fff70
 c103018:	01e00024 	.word	0x01e00024
 c10301c:	01e0000c 	.word	0x01e0000c
 c103020:	01d7008c 	.word	0x01d7008c

0c103024 <rtc_close>:
 c103024:	e1a0c00d 	mov	ip, sp
 c103028:	e92dd800 	push	{fp, ip, lr, pc}
 c10302c:	e24cb004 	sub	fp, ip, #4
 c103030:	e59f3030 	ldr	r3, [pc, #48]	; c103068 <rtc_close+0x44>
 c103034:	e3a02000 	mov	r2, #0
 c103038:	e5832000 	str	r2, [r3]
 c10303c:	e59f3028 	ldr	r3, [pc, #40]	; c10306c <rtc_close+0x48>
 c103040:	e59f2024 	ldr	r2, [pc, #36]	; c10306c <rtc_close+0x48>
 c103044:	e5922000 	ldr	r2, [r2]
 c103048:	e3822601 	orr	r2, r2, #1048576	; 0x100000
 c10304c:	e5832000 	str	r2, [r3]
 c103050:	e59f3018 	ldr	r3, [pc, #24]	; c103070 <rtc_close+0x4c>
 c103054:	e59f2018 	ldr	r2, [pc, #24]	; c103074 <rtc_close+0x50>
 c103058:	e5832000 	str	r2, [r3]
 c10305c:	e24bd00c 	sub	sp, fp, #12
 c103060:	e89d6800 	ldm	sp, {fp, sp, lr}
 c103064:	e12fff1e 	bx	lr
 c103068:	01d7008c 	.word	0x01d7008c
 c10306c:	01e0000c 	.word	0x01e0000c
 c103070:	0c7fff70 	.word	0x0c7fff70
 c103074:	0c104188 	.word	0x0c104188

0c103078 <segs_init>:
 c103078:	e1a0c00d 	mov	ip, sp
 c10307c:	e92dd800 	push	{fp, ip, lr, pc}
 c103080:	e24cb004 	sub	fp, ip, #4
 c103084:	e3a0000a 	mov	r0, #10
 c103088:	ebfffd2a 	bl	c102538 <power_on>
 c10308c:	e59f301c 	ldr	r3, [pc, #28]	; c1030b0 <segs_init+0x38>
 c103090:	e59f2018 	ldr	r2, [pc, #24]	; c1030b0 <segs_init+0x38>
 c103094:	e5922000 	ldr	r2, [r2]
 c103098:	e3822040 	orr	r2, r2, #64	; 0x40
 c10309c:	e5832000 	str	r2, [r3]
 c1030a0:	eb000003 	bl	c1030b4 <segs_off>
 c1030a4:	e24bd00c 	sub	sp, fp, #12
 c1030a8:	e89d6800 	ldm	sp, {fp, sp, lr}
 c1030ac:	e12fff1e 	bx	lr
 c1030b0:	01d20008 	.word	0x01d20008

0c1030b4 <segs_off>:
 c1030b4:	e1a0c00d 	mov	ip, sp
 c1030b8:	e92dd800 	push	{fp, ip, lr, pc}
 c1030bc:	e24cb004 	sub	fp, ip, #4
 c1030c0:	e59f3020 	ldr	r3, [pc, #32]	; c1030e8 <segs_off+0x34>
 c1030c4:	e3e02000 	mvn	r2, #0
 c1030c8:	e5c32000 	strb	r2, [r3]
 c1030cc:	e3a03785 	mov	r3, #34865152	; 0x2140000
 c1030d0:	e59f2010 	ldr	r2, [pc, #16]	; c1030e8 <segs_off+0x34>
 c1030d4:	e5d22000 	ldrb	r2, [r2]
 c1030d8:	e5c32000 	strb	r2, [r3]
 c1030dc:	e24bd00c 	sub	sp, fp, #12
 c1030e0:	e89d6800 	ldm	sp, {fp, sp, lr}
 c1030e4:	e12fff1e 	bx	lr
 c1030e8:	0c112280 	.word	0x0c112280

0c1030ec <segs_putchar>:
 c1030ec:	e1a0c00d 	mov	ip, sp
 c1030f0:	e92dd800 	push	{fp, ip, lr, pc}
 c1030f4:	e24cb004 	sub	fp, ip, #4
 c1030f8:	e24dd008 	sub	sp, sp, #8
 c1030fc:	e1a03000 	mov	r3, r0
 c103100:	e54b300d 	strb	r3, [fp, #-13]
 c103104:	e55b300d 	ldrb	r3, [fp, #-13]
 c103108:	e203300f 	and	r3, r3, #15
 c10310c:	e20320ff 	and	r2, r3, #255	; 0xff
 c103110:	e59f3024 	ldr	r3, [pc, #36]	; c10313c <segs_putchar+0x50>
 c103114:	e5c32000 	strb	r2, [r3]
 c103118:	e3a03785 	mov	r3, #34865152	; 0x2140000
 c10311c:	e59f2018 	ldr	r2, [pc, #24]	; c10313c <segs_putchar+0x50>
 c103120:	e5d22000 	ldrb	r2, [r2]
 c103124:	e59f1014 	ldr	r1, [pc, #20]	; c103140 <segs_putchar+0x54>
 c103128:	e7d12002 	ldrb	r2, [r1, r2]
 c10312c:	e5c32000 	strb	r2, [r3]
 c103130:	e24bd00c 	sub	sp, fp, #12
 c103134:	e89d6800 	ldm	sp, {fp, sp, lr}
 c103138:	e12fff1e 	bx	lr
 c10313c:	0c112280 	.word	0x0c112280
 c103140:	0c1073e8 	.word	0x0c1073e8

0c103144 <segs_status>:
 c103144:	e1a0c00d 	mov	ip, sp
 c103148:	e92dd800 	push	{fp, ip, lr, pc}
 c10314c:	e24cb004 	sub	fp, ip, #4
 c103150:	e59f3010 	ldr	r3, [pc, #16]	; c103168 <segs_status+0x24>
 c103154:	e5d33000 	ldrb	r3, [r3]
 c103158:	e1a00003 	mov	r0, r3
 c10315c:	e24bd00c 	sub	sp, fp, #12
 c103160:	e89d6800 	ldm	sp, {fp, sp, lr}
 c103164:	e12fff1e 	bx	lr
 c103168:	0c112280 	.word	0x0c112280

0c10316c <sys_init>:
 c10316c:	e1a0c00d 	mov	ip, sp
 c103170:	e92dd800 	push	{fp, ip, lr, pc}
 c103174:	e24cb004 	sub	fp, ip, #4
 c103178:	e24dd008 	sub	sp, sp, #8
 c10317c:	e59f3124 	ldr	r3, [pc, #292]	; c1032a8 <sys_init+0x13c>
 c103180:	e3a02000 	mov	r2, #0
 c103184:	e5832000 	str	r2, [r3]
 c103188:	e59f311c 	ldr	r3, [pc, #284]	; c1032ac <sys_init+0x140>
 c10318c:	e3e02000 	mvn	r2, #0
 c103190:	e5832000 	str	r2, [r3]
 c103194:	e10f0000 	mrs	r0, CPSR
 c103198:	e200001f 	and	r0, r0, #31
 c10319c:	e54b000d 	strb	r0, [fp, #-13]
 c1031a0:	e55b300d 	ldrb	r3, [fp, #-13]
 c1031a4:	e3530013 	cmp	r3, #19
 c1031a8:	0a000000 	beq	c1031b0 <sys_init+0x44>
 c1031ac:	eb000051 	bl	c1032f8 <sys_recovery>
 c1031b0:	e59f30f8 	ldr	r3, [pc, #248]	; c1032b0 <sys_init+0x144>
 c1031b4:	e59f20f8 	ldr	r2, [pc, #248]	; c1032b4 <sys_init+0x148>
 c1031b8:	e5832000 	str	r2, [r3]
 c1031bc:	e3a03776 	mov	r3, #30932992	; 0x1d80000
 c1031c0:	e59f20f0 	ldr	r2, [pc, #240]	; c1032b8 <sys_init+0x14c>
 c1031c4:	e5832000 	str	r2, [r3]
 c1031c8:	e59f30ec 	ldr	r3, [pc, #236]	; c1032bc <sys_init+0x150>
 c1031cc:	e59f20ec 	ldr	r2, [pc, #236]	; c1032c0 <sys_init+0x154>
 c1031d0:	e5832000 	str	r2, [r3]
 c1031d4:	e59f30e8 	ldr	r3, [pc, #232]	; c1032c4 <sys_init+0x158>
 c1031d8:	e3a02008 	mov	r2, #8
 c1031dc:	e5832000 	str	r2, [r3]
 c1031e0:	e59f30e0 	ldr	r3, [pc, #224]	; c1032c8 <sys_init+0x15c>
 c1031e4:	e59f20e0 	ldr	r2, [pc, #224]	; c1032cc <sys_init+0x160>
 c1031e8:	e5832000 	str	r2, [r3]
 c1031ec:	e59f30dc 	ldr	r3, [pc, #220]	; c1032d0 <sys_init+0x164>
 c1031f0:	e59f20dc 	ldr	r2, [pc, #220]	; c1032d4 <sys_init+0x168>
 c1031f4:	e5832000 	str	r2, [r3]
 c1031f8:	e59f30bc 	ldr	r3, [pc, #188]	; c1032bc <sys_init+0x150>
 c1031fc:	e5932000 	ldr	r2, [r3]
 c103200:	e59f30d0 	ldr	r3, [pc, #208]	; c1032d8 <sys_init+0x16c>
 c103204:	e5832000 	str	r2, [r3]
 c103208:	e3a03771 	mov	r3, #29622272	; 0x1c40000
 c10320c:	e3a0216e 	mov	r2, #-2147483621	; 0x8000001b
 c103210:	e5832000 	str	r2, [r3]
 c103214:	e3a03507 	mov	r3, #29360128	; 0x1c00000
 c103218:	e3a02000 	mov	r2, #0
 c10321c:	e5832000 	str	r2, [r3]
 c103220:	e59f30b4 	ldr	r3, [pc, #180]	; c1032dc <sys_init+0x170>
 c103224:	e59f20b4 	ldr	r2, [pc, #180]	; c1032e0 <sys_init+0x174>
 c103228:	e5832000 	str	r2, [r3]
 c10322c:	e59f30b0 	ldr	r3, [pc, #176]	; c1032e4 <sys_init+0x178>
 c103230:	e59f20b0 	ldr	r2, [pc, #176]	; c1032e8 <sys_init+0x17c>
 c103234:	e5832000 	str	r2, [r3]
 c103238:	e59f30ac 	ldr	r3, [pc, #172]	; c1032ec <sys_init+0x180>
 c10323c:	e3a02000 	mov	r2, #0
 c103240:	e5832000 	str	r2, [r3]
 c103244:	eb000159 	bl	c1037b0 <install_dummy_isr>
 c103248:	e59f30a0 	ldr	r3, [pc, #160]	; c1032f0 <sys_init+0x184>
 c10324c:	e3e02000 	mvn	r2, #0
 c103250:	e5832000 	str	r2, [r3]
 c103254:	e59f3098 	ldr	r3, [pc, #152]	; c1032f4 <sys_init+0x188>
 c103258:	e3e02000 	mvn	r2, #0
 c10325c:	e5832000 	str	r2, [r3]
 c103260:	e3a0361e 	mov	r3, #31457280	; 0x1e00000
 c103264:	e3a02001 	mov	r2, #1
 c103268:	e5832000 	str	r2, [r3]
 c10326c:	e10f0000 	mrs	r0, CPSR
 c103270:	e3c00080 	bic	r0, r0, #128	; 0x80
 c103274:	e3800000 	orr	r0, r0, #0
 c103278:	e121f000 	msr	CPSR_c, r0
 c10327c:	e10f0000 	mrs	r0, CPSR
 c103280:	e3c00040 	bic	r0, r0, #64	; 0x40
 c103284:	e3800040 	orr	r0, r0, #64	; 0x40
 c103288:	e121f000 	msr	CPSR_c, r0
 c10328c:	eb0000a1 	bl	c103518 <port_init>
 c103290:	ebffff78 	bl	c103078 <segs_init>
 c103294:	eb000b1d 	bl	c105f10 <uart0_init>
 c103298:	eb000426 	bl	c104338 <show_sys_info>
 c10329c:	e24bd00c 	sub	sp, fp, #12
 c1032a0:	e89d6800 	ldm	sp, {fp, sp, lr}
 c1032a4:	e12fff1e 	bx	lr
 c1032a8:	01d30000 	.word	0x01d30000
 c1032ac:	01e0000c 	.word	0x01e0000c
 c1032b0:	01d8000c 	.word	0x01d8000c
 c1032b4:	00000fff 	.word	0x00000fff
 c1032b8:	00038021 	.word	0x00038021
 c1032bc:	0c108b8c 	.word	0x0c108b8c
 c1032c0:	03d09000 	.word	0x03d09000
 c1032c4:	01d80008 	.word	0x01d80008
 c1032c8:	0c108b90 	.word	0x0c108b90
 c1032cc:	0007a120 	.word	0x0007a120
 c1032d0:	01d80004 	.word	0x01d80004
 c1032d4:	00007ff8 	.word	0x00007ff8
 c1032d8:	0c108b94 	.word	0x0c108b94
 c1032dc:	01e00014 	.word	0x01e00014
 c1032e0:	00001f1b 	.word	0x00001f1b
 c1032e4:	01e00010 	.word	0x01e00010
 c1032e8:	1b1b1b1b 	.word	0x1b1b1b1b
 c1032ec:	01e00008 	.word	0x01e00008
 c1032f0:	01d20054 	.word	0x01d20054
 c1032f4:	01e00024 	.word	0x01e00024

0c1032f8 <sys_recovery>:
 c1032f8:	e1a0c00d 	mov	ip, sp
 c1032fc:	e92dd800 	push	{fp, ip, lr, pc}
 c103300:	e24cb004 	sub	fp, ip, #4
 c103304:	e24dd018 	sub	sp, sp, #24
 c103308:	e50bd01c 	str	sp, [fp, #-28]	; 0xffffffe4
 c10330c:	e50bb020 	str	fp, [fp, #-32]	; 0xffffffe0
 c103310:	e10f0000 	mrs	r0, CPSR
 c103314:	e200001f 	and	r0, r0, #31
 c103318:	e54b0015 	strb	r0, [fp, #-21]	; 0xffffffeb
 c10331c:	e55b3015 	ldrb	r3, [fp, #-21]	; 0xffffffeb
 c103320:	e2433011 	sub	r3, r3, #17
 c103324:	e353000a 	cmp	r3, #10
 c103328:	979ff103 	ldrls	pc, [pc, r3, lsl #2]
 c10332c:	ea00001e 	b	c1033ac <sys_recovery+0xb4>
 c103330:	0c103370 	.word	0x0c103370
 c103334:	0c10335c 	.word	0x0c10335c
 c103338:	0c1033ac 	.word	0x0c1033ac
 c10333c:	0c1033ac 	.word	0x0c1033ac
 c103340:	0c1033ac 	.word	0x0c1033ac
 c103344:	0c1033ac 	.word	0x0c1033ac
 c103348:	0c103384 	.word	0x0c103384
 c10334c:	0c1033ac 	.word	0x0c1033ac
 c103350:	0c1033ac 	.word	0x0c1033ac
 c103354:	0c1033ac 	.word	0x0c1033ac
 c103358:	0c103398 	.word	0x0c103398
 c10335c:	e3a03c03 	mov	r3, #768	; 0x300
 c103360:	e50b3014 	str	r3, [fp, #-20]	; 0xffffffec
 c103364:	e59f3198 	ldr	r3, [pc, #408]	; c103504 <sys_recovery+0x20c>
 c103368:	e50b3024 	str	r3, [fp, #-36]	; 0xffffffdc
 c10336c:	ea00000f 	b	c1033b0 <sys_recovery+0xb8>
 c103370:	e3a03b01 	mov	r3, #1024	; 0x400
 c103374:	e50b3014 	str	r3, [fp, #-20]	; 0xffffffec
 c103378:	e59f3188 	ldr	r3, [pc, #392]	; c103508 <sys_recovery+0x210>
 c10337c:	e50b3024 	str	r3, [fp, #-36]	; 0xffffffdc
 c103380:	ea00000a 	b	c1033b0 <sys_recovery+0xb8>
 c103384:	e3a03c02 	mov	r3, #512	; 0x200
 c103388:	e50b3014 	str	r3, [fp, #-20]	; 0xffffffec
 c10338c:	e59f3178 	ldr	r3, [pc, #376]	; c10350c <sys_recovery+0x214>
 c103390:	e50b3024 	str	r3, [fp, #-36]	; 0xffffffdc
 c103394:	ea000005 	b	c1033b0 <sys_recovery+0xb8>
 c103398:	e3a03c01 	mov	r3, #256	; 0x100
 c10339c:	e50b3014 	str	r3, [fp, #-20]	; 0xffffffec
 c1033a0:	e59f3168 	ldr	r3, [pc, #360]	; c103510 <sys_recovery+0x218>
 c1033a4:	e50b3024 	str	r3, [fp, #-36]	; 0xffffffdc
 c1033a8:	ea000000 	b	c1033b0 <sys_recovery+0xb8>
 c1033ac:	eafffffe 	b	c1033ac <sys_recovery+0xb4>
 c1033b0:	e51bd024 	ldr	sp, [fp, #-36]	; 0xffffffdc
 c1033b4:	e59f3158 	ldr	r3, [pc, #344]	; c103514 <sys_recovery+0x21c>
 c1033b8:	e50b3010 	str	r3, [fp, #-16]
 c1033bc:	ea000009 	b	c1033e8 <sys_recovery+0xf0>
 c1033c0:	e51b3010 	ldr	r3, [fp, #-16]
 c1033c4:	e2433004 	sub	r3, r3, #4
 c1033c8:	e50b3010 	str	r3, [fp, #-16]
 c1033cc:	e51b3024 	ldr	r3, [fp, #-36]	; 0xffffffdc
 c1033d0:	e2433004 	sub	r3, r3, #4
 c1033d4:	e50b3024 	str	r3, [fp, #-36]	; 0xffffffdc
 c1033d8:	e51b3024 	ldr	r3, [fp, #-36]	; 0xffffffdc
 c1033dc:	e5932000 	ldr	r2, [r3]
 c1033e0:	e51b3010 	ldr	r3, [fp, #-16]
 c1033e4:	e5832000 	str	r2, [r3]
 c1033e8:	e51b301c 	ldr	r3, [fp, #-28]	; 0xffffffe4
 c1033ec:	e1a02003 	mov	r2, r3
 c1033f0:	e51b3024 	ldr	r3, [fp, #-36]	; 0xffffffdc
 c1033f4:	e1520003 	cmp	r2, r3
 c1033f8:	3afffff0 	bcc	c1033c0 <sys_recovery+0xc8>
 c1033fc:	e51b2020 	ldr	r2, [fp, #-32]	; 0xffffffe0
 c103400:	e51b3014 	ldr	r3, [fp, #-20]	; 0xffffffec
 c103404:	e0633002 	rsb	r3, r3, r2
 c103408:	e50b3010 	str	r3, [fp, #-16]
 c10340c:	e51b3010 	ldr	r3, [fp, #-16]
 c103410:	e2433004 	sub	r3, r3, #4
 c103414:	e50b3010 	str	r3, [fp, #-16]
 c103418:	e51b3010 	ldr	r3, [fp, #-16]
 c10341c:	e2433004 	sub	r3, r3, #4
 c103420:	e50b3010 	str	r3, [fp, #-16]
 c103424:	e51b3010 	ldr	r3, [fp, #-16]
 c103428:	e5932000 	ldr	r2, [r3]
 c10342c:	e51b3014 	ldr	r3, [fp, #-20]	; 0xffffffec
 c103430:	e0632002 	rsb	r2, r3, r2
 c103434:	e51b3010 	ldr	r3, [fp, #-16]
 c103438:	e5832000 	str	r2, [r3]
 c10343c:	e51b3010 	ldr	r3, [fp, #-16]
 c103440:	e2433004 	sub	r3, r3, #4
 c103444:	e50b3010 	str	r3, [fp, #-16]
 c103448:	e51b3010 	ldr	r3, [fp, #-16]
 c10344c:	e5932000 	ldr	r2, [r3]
 c103450:	e51b3014 	ldr	r3, [fp, #-20]	; 0xffffffec
 c103454:	e0632002 	rsb	r2, r3, r2
 c103458:	e51b3010 	ldr	r3, [fp, #-16]
 c10345c:	e5832000 	str	r2, [r3]
 c103460:	e51b3010 	ldr	r3, [fp, #-16]
 c103464:	e5933000 	ldr	r3, [r3]
 c103468:	e50b3010 	str	r3, [fp, #-16]
 c10346c:	e51b3010 	ldr	r3, [fp, #-16]
 c103470:	e2433004 	sub	r3, r3, #4
 c103474:	e50b3010 	str	r3, [fp, #-16]
 c103478:	e51b3010 	ldr	r3, [fp, #-16]
 c10347c:	e2433004 	sub	r3, r3, #4
 c103480:	e50b3010 	str	r3, [fp, #-16]
 c103484:	e51b3010 	ldr	r3, [fp, #-16]
 c103488:	e5932000 	ldr	r2, [r3]
 c10348c:	e51b3014 	ldr	r3, [fp, #-20]	; 0xffffffec
 c103490:	e0632002 	rsb	r2, r3, r2
 c103494:	e51b3010 	ldr	r3, [fp, #-16]
 c103498:	e5832000 	str	r2, [r3]
 c10349c:	e51b3010 	ldr	r3, [fp, #-16]
 c1034a0:	e2433004 	sub	r3, r3, #4
 c1034a4:	e50b3010 	str	r3, [fp, #-16]
 c1034a8:	e51b3010 	ldr	r3, [fp, #-16]
 c1034ac:	e5932000 	ldr	r2, [r3]
 c1034b0:	e51b3014 	ldr	r3, [fp, #-20]	; 0xffffffec
 c1034b4:	e0632002 	rsb	r2, r3, r2
 c1034b8:	e51b3010 	ldr	r3, [fp, #-16]
 c1034bc:	e5832000 	str	r2, [r3]
 c1034c0:	e10f0000 	mrs	r0, CPSR
 c1034c4:	e3c0001f 	bic	r0, r0, #31
 c1034c8:	e3800013 	orr	r0, r0, #19
 c1034cc:	e121f000 	msr	CPSR_c, r0
 c1034d0:	e51b201c 	ldr	r2, [fp, #-28]	; 0xffffffe4
 c1034d4:	e51b3014 	ldr	r3, [fp, #-20]	; 0xffffffec
 c1034d8:	e0633002 	rsb	r3, r3, r2
 c1034dc:	e50b301c 	str	r3, [fp, #-28]	; 0xffffffe4
 c1034e0:	e51bd01c 	ldr	sp, [fp, #-28]	; 0xffffffe4
 c1034e4:	e51b2020 	ldr	r2, [fp, #-32]	; 0xffffffe0
 c1034e8:	e51b3014 	ldr	r3, [fp, #-20]	; 0xffffffec
 c1034ec:	e0633002 	rsb	r3, r3, r2
 c1034f0:	e50b3020 	str	r3, [fp, #-32]	; 0xffffffe0
 c1034f4:	e51bb020 	ldr	fp, [fp, #-32]	; 0xffffffe0
 c1034f8:	e24bd00c 	sub	sp, fp, #12
 c1034fc:	e89d6800 	ldm	sp, {fp, sp, lr}
 c103500:	e12fff1e 	bx	lr
 c103504:	0c7ff400 	.word	0x0c7ff400
 c103508:	0c7ff500 	.word	0x0c7ff500
 c10350c:	0c7ff300 	.word	0x0c7ff300
 c103510:	0c7ff200 	.word	0x0c7ff200
 c103514:	0c7ff100 	.word	0x0c7ff100

0c103518 <port_init>:
 c103518:	e1a0c00d 	mov	ip, sp
 c10351c:	e92dd800 	push	{fp, ip, lr, pc}
 c103520:	e24cb004 	sub	fp, ip, #4
 c103524:	e59f31fc 	ldr	r3, [pc, #508]	; c103728 <port_init+0x210>
 c103528:	e3e02000 	mvn	r2, #0
 c10352c:	e5832000 	str	r2, [r3]
 c103530:	e59f31f4 	ldr	r3, [pc, #500]	; c10372c <port_init+0x214>
 c103534:	e3a020fe 	mov	r2, #254	; 0xfe
 c103538:	e5832000 	str	r2, [r3]
 c10353c:	e59f31ec 	ldr	r3, [pc, #492]	; c103730 <port_init+0x218>
 c103540:	e3e02000 	mvn	r2, #0
 c103544:	e5832000 	str	r2, [r3]
 c103548:	e59f31e4 	ldr	r3, [pc, #484]	; c103734 <port_init+0x21c>
 c10354c:	e59f21e4 	ldr	r2, [pc, #484]	; c103738 <port_init+0x220>
 c103550:	e5832000 	str	r2, [r3]
 c103554:	e59f31e0 	ldr	r3, [pc, #480]	; c10373c <port_init+0x224>
 c103558:	e3e02000 	mvn	r2, #0
 c10355c:	e5832000 	str	r2, [r3]
 c103560:	e59f31d8 	ldr	r3, [pc, #472]	; c103740 <port_init+0x228>
 c103564:	e59f21d8 	ldr	r2, [pc, #472]	; c103744 <port_init+0x22c>
 c103568:	e5832000 	str	r2, [r3]
 c10356c:	e59f31d4 	ldr	r3, [pc, #468]	; c103748 <port_init+0x230>
 c103570:	e3e02000 	mvn	r2, #0
 c103574:	e5832000 	str	r2, [r3]
 c103578:	e59f31cc 	ldr	r3, [pc, #460]	; c10374c <port_init+0x234>
 c10357c:	e3e02000 	mvn	r2, #0
 c103580:	e5832000 	str	r2, [r3]
 c103584:	e59f31c4 	ldr	r3, [pc, #452]	; c103750 <port_init+0x238>
 c103588:	e59f21c4 	ldr	r2, [pc, #452]	; c103754 <port_init+0x23c>
 c10358c:	e5832000 	str	r2, [r3]
 c103590:	e59f31c0 	ldr	r3, [pc, #448]	; c103758 <port_init+0x240>
 c103594:	e3e02000 	mvn	r2, #0
 c103598:	e5832000 	str	r2, [r3]
 c10359c:	e59f31b8 	ldr	r3, [pc, #440]	; c10375c <port_init+0x244>
 c1035a0:	e3e02000 	mvn	r2, #0
 c1035a4:	e5832000 	str	r2, [r3]
 c1035a8:	e59f31b0 	ldr	r3, [pc, #432]	; c103760 <port_init+0x248>
 c1035ac:	e59f21b0 	ldr	r2, [pc, #432]	; c103764 <port_init+0x24c>
 c1035b0:	e5832000 	str	r2, [r3]
 c1035b4:	e59f31ac 	ldr	r3, [pc, #428]	; c103768 <port_init+0x250>
 c1035b8:	e3e02000 	mvn	r2, #0
 c1035bc:	e5832000 	str	r2, [r3]
 c1035c0:	e59f31a4 	ldr	r3, [pc, #420]	; c10376c <port_init+0x254>
 c1035c4:	e3e02000 	mvn	r2, #0
 c1035c8:	e5832000 	str	r2, [r3]
 c1035cc:	e59f319c 	ldr	r3, [pc, #412]	; c103770 <port_init+0x258>
 c1035d0:	e59f219c 	ldr	r2, [pc, #412]	; c103774 <port_init+0x25c>
 c1035d4:	e5832000 	str	r2, [r3]
 c1035d8:	e59f3198 	ldr	r3, [pc, #408]	; c103778 <port_init+0x260>
 c1035dc:	e3e02000 	mvn	r2, #0
 c1035e0:	e5832000 	str	r2, [r3]
 c1035e4:	e59f3190 	ldr	r3, [pc, #400]	; c10377c <port_init+0x264>
 c1035e8:	e3e02000 	mvn	r2, #0
 c1035ec:	e5832000 	str	r2, [r3]
 c1035f0:	e59f3188 	ldr	r3, [pc, #392]	; c103780 <port_init+0x268>
 c1035f4:	e59f2158 	ldr	r2, [pc, #344]	; c103754 <port_init+0x23c>
 c1035f8:	e5832000 	str	r2, [r3]
 c1035fc:	e59f3180 	ldr	r3, [pc, #384]	; c103784 <port_init+0x26c>
 c103600:	e3e02000 	mvn	r2, #0
 c103604:	e5832000 	str	r2, [r3]
 c103608:	e59f3178 	ldr	r3, [pc, #376]	; c103788 <port_init+0x270>
 c10360c:	e3a02007 	mov	r2, #7
 c103610:	e5832000 	str	r2, [r3]
 c103614:	e59f3170 	ldr	r3, [pc, #368]	; c10378c <port_init+0x274>
 c103618:	e59f2170 	ldr	r2, [pc, #368]	; c103790 <port_init+0x278>
 c10361c:	e5832000 	str	r2, [r3]
 c103620:	e59f3100 	ldr	r3, [pc, #256]	; c103728 <port_init+0x210>
 c103624:	e3e02000 	mvn	r2, #0
 c103628:	e5832000 	str	r2, [r3]
 c10362c:	e59f30f8 	ldr	r3, [pc, #248]	; c10372c <port_init+0x214>
 c103630:	e3a020fe 	mov	r2, #254	; 0xfe
 c103634:	e5832000 	str	r2, [r3]
 c103638:	e59f30f0 	ldr	r3, [pc, #240]	; c103730 <port_init+0x218>
 c10363c:	e3e02000 	mvn	r2, #0
 c103640:	e5832000 	str	r2, [r3]
 c103644:	e59f30e8 	ldr	r3, [pc, #232]	; c103734 <port_init+0x21c>
 c103648:	e59f20e8 	ldr	r2, [pc, #232]	; c103738 <port_init+0x220>
 c10364c:	e5832000 	str	r2, [r3]
 c103650:	e59f30e4 	ldr	r3, [pc, #228]	; c10373c <port_init+0x224>
 c103654:	e3e02000 	mvn	r2, #0
 c103658:	e5832000 	str	r2, [r3]
 c10365c:	e59f30dc 	ldr	r3, [pc, #220]	; c103740 <port_init+0x228>
 c103660:	e59f212c 	ldr	r2, [pc, #300]	; c103794 <port_init+0x27c>
 c103664:	e5832000 	str	r2, [r3]
 c103668:	e59f30d8 	ldr	r3, [pc, #216]	; c103748 <port_init+0x230>
 c10366c:	e59f2124 	ldr	r2, [pc, #292]	; c103798 <port_init+0x280>
 c103670:	e5832000 	str	r2, [r3]
 c103674:	e59f30d0 	ldr	r3, [pc, #208]	; c10374c <port_init+0x234>
 c103678:	e3e02000 	mvn	r2, #0
 c10367c:	e5832000 	str	r2, [r3]
 c103680:	e59f30c8 	ldr	r3, [pc, #200]	; c103750 <port_init+0x238>
 c103684:	e59f2110 	ldr	r2, [pc, #272]	; c10379c <port_init+0x284>
 c103688:	e5832000 	str	r2, [r3]
 c10368c:	e59f30c4 	ldr	r3, [pc, #196]	; c103758 <port_init+0x240>
 c103690:	e3a020ff 	mov	r2, #255	; 0xff
 c103694:	e5832000 	str	r2, [r3]
 c103698:	e59f30bc 	ldr	r3, [pc, #188]	; c10375c <port_init+0x244>
 c10369c:	e3e02000 	mvn	r2, #0
 c1036a0:	e5832000 	str	r2, [r3]
 c1036a4:	e59f30b4 	ldr	r3, [pc, #180]	; c103760 <port_init+0x248>
 c1036a8:	e59f20f0 	ldr	r2, [pc, #240]	; c1037a0 <port_init+0x288>
 c1036ac:	e5832000 	str	r2, [r3]
 c1036b0:	e59f30b0 	ldr	r3, [pc, #176]	; c103768 <port_init+0x250>
 c1036b4:	e3a020fb 	mov	r2, #251	; 0xfb
 c1036b8:	e5832000 	str	r2, [r3]
 c1036bc:	e59f30a8 	ldr	r3, [pc, #168]	; c10376c <port_init+0x254>
 c1036c0:	e3e02000 	mvn	r2, #0
 c1036c4:	e5832000 	str	r2, [r3]
 c1036c8:	e59f30a0 	ldr	r3, [pc, #160]	; c103770 <port_init+0x258>
 c1036cc:	e59f20d0 	ldr	r2, [pc, #208]	; c1037a4 <port_init+0x28c>
 c1036d0:	e5832000 	str	r2, [r3]
 c1036d4:	e59f309c 	ldr	r3, [pc, #156]	; c103778 <port_init+0x260>
 c1036d8:	e3a02074 	mov	r2, #116	; 0x74
 c1036dc:	e5832000 	str	r2, [r3]
 c1036e0:	e59f3094 	ldr	r3, [pc, #148]	; c10377c <port_init+0x264>
 c1036e4:	e3e02000 	mvn	r2, #0
 c1036e8:	e5832000 	str	r2, [r3]
 c1036ec:	e59f308c 	ldr	r3, [pc, #140]	; c103780 <port_init+0x268>
 c1036f0:	e59f20b0 	ldr	r2, [pc, #176]	; c1037a8 <port_init+0x290>
 c1036f4:	e5832000 	str	r2, [r3]
 c1036f8:	e59f3084 	ldr	r3, [pc, #132]	; c103784 <port_init+0x26c>
 c1036fc:	e3a02030 	mov	r2, #48	; 0x30
 c103700:	e5832000 	str	r2, [r3]
 c103704:	e59f307c 	ldr	r3, [pc, #124]	; c103788 <port_init+0x270>
 c103708:	e3a02007 	mov	r2, #7
 c10370c:	e5832000 	str	r2, [r3]
 c103710:	e59f3074 	ldr	r3, [pc, #116]	; c10378c <port_init+0x274>
 c103714:	e59f2090 	ldr	r2, [pc, #144]	; c1037ac <port_init+0x294>
 c103718:	e5832000 	str	r2, [r3]
 c10371c:	e24bd00c 	sub	sp, fp, #12
 c103720:	e89d6800 	ldm	sp, {fp, sp, lr}
 c103724:	e12fff1e 	bx	lr
 c103728:	01d20004 	.word	0x01d20004
 c10372c:	01d20000 	.word	0x01d20000
 c103730:	01d2000c 	.word	0x01d2000c
 c103734:	01d20008 	.word	0x01d20008
 c103738:	0000014f 	.word	0x0000014f
 c10373c:	01d20014 	.word	0x01d20014
 c103740:	01d20010 	.word	0x01d20010
 c103744:	55555555 	.word	0x55555555
 c103748:	01d20018 	.word	0x01d20018
 c10374c:	01d20020 	.word	0x01d20020
 c103750:	01d2001c 	.word	0x01d2001c
 c103754:	00005555 	.word	0x00005555
 c103758:	01d20024 	.word	0x01d20024
 c10375c:	01d2002c 	.word	0x01d2002c
 c103760:	01d20028 	.word	0x01d20028
 c103764:	00015555 	.word	0x00015555
 c103768:	01d20030 	.word	0x01d20030
 c10376c:	01d20038 	.word	0x01d20038
 c103770:	01d20034 	.word	0x01d20034
 c103774:	00002555 	.word	0x00002555
 c103778:	01d2003c 	.word	0x01d2003c
 c10377c:	01d20044 	.word	0x01d20044
 c103780:	01d20040 	.word	0x01d20040
 c103784:	01d20048 	.word	0x01d20048
 c103788:	01d2004c 	.word	0x01d2004c
 c10378c:	01d20050 	.word	0x01d20050
 c103790:	22222222 	.word	0x22222222
 c103794:	5ff555ff 	.word	0x5ff555ff
 c103798:	000094fb 	.word	0x000094fb
 c10379c:	0000aaaa 	.word	0x0000aaaa
 c1037a0:	000255a9 	.word	0x000255a9
 c1037a4:	0000251a 	.word	0x0000251a
 c1037a8:	0000f5ff 	.word	0x0000f5ff
 c1037ac:	22000220 	.word	0x22000220

0c1037b0 <install_dummy_isr>:
 c1037b0:	e1a0c00d 	mov	ip, sp
 c1037b4:	e92dd800 	push	{fp, ip, lr, pc}
 c1037b8:	e24cb004 	sub	fp, ip, #4
 c1037bc:	e59f3184 	ldr	r3, [pc, #388]	; c103948 <install_dummy_isr+0x198>
 c1037c0:	e59f2184 	ldr	r2, [pc, #388]	; c10394c <install_dummy_isr+0x19c>
 c1037c4:	e5832000 	str	r2, [r3]
 c1037c8:	e59f3180 	ldr	r3, [pc, #384]	; c103950 <install_dummy_isr+0x1a0>
 c1037cc:	e59f2180 	ldr	r2, [pc, #384]	; c103954 <install_dummy_isr+0x1a4>
 c1037d0:	e5832000 	str	r2, [r3]
 c1037d4:	e59f317c 	ldr	r3, [pc, #380]	; c103958 <install_dummy_isr+0x1a8>
 c1037d8:	e59f217c 	ldr	r2, [pc, #380]	; c10395c <install_dummy_isr+0x1ac>
 c1037dc:	e5832000 	str	r2, [r3]
 c1037e0:	e59f3178 	ldr	r3, [pc, #376]	; c103960 <install_dummy_isr+0x1b0>
 c1037e4:	e59f2178 	ldr	r2, [pc, #376]	; c103964 <install_dummy_isr+0x1b4>
 c1037e8:	e5832000 	str	r2, [r3]
 c1037ec:	e59f3174 	ldr	r3, [pc, #372]	; c103968 <install_dummy_isr+0x1b8>
 c1037f0:	e59f2174 	ldr	r2, [pc, #372]	; c10396c <install_dummy_isr+0x1bc>
 c1037f4:	e5832000 	str	r2, [r3]
 c1037f8:	e59f3170 	ldr	r3, [pc, #368]	; c103970 <install_dummy_isr+0x1c0>
 c1037fc:	e59f2170 	ldr	r2, [pc, #368]	; c103974 <install_dummy_isr+0x1c4>
 c103800:	e5832000 	str	r2, [r3]
 c103804:	e59f316c 	ldr	r3, [pc, #364]	; c103978 <install_dummy_isr+0x1c8>
 c103808:	e59f216c 	ldr	r2, [pc, #364]	; c10397c <install_dummy_isr+0x1cc>
 c10380c:	e5832000 	str	r2, [r3]
 c103810:	e59f3168 	ldr	r3, [pc, #360]	; c103980 <install_dummy_isr+0x1d0>
 c103814:	e59f2168 	ldr	r2, [pc, #360]	; c103984 <install_dummy_isr+0x1d4>
 c103818:	e5832000 	str	r2, [r3]
 c10381c:	e59f3164 	ldr	r3, [pc, #356]	; c103988 <install_dummy_isr+0x1d8>
 c103820:	e59f2164 	ldr	r2, [pc, #356]	; c10398c <install_dummy_isr+0x1dc>
 c103824:	e5832000 	str	r2, [r3]
 c103828:	e59f3160 	ldr	r3, [pc, #352]	; c103990 <install_dummy_isr+0x1e0>
 c10382c:	e59f2160 	ldr	r2, [pc, #352]	; c103994 <install_dummy_isr+0x1e4>
 c103830:	e5832000 	str	r2, [r3]
 c103834:	e59f315c 	ldr	r3, [pc, #348]	; c103998 <install_dummy_isr+0x1e8>
 c103838:	e59f215c 	ldr	r2, [pc, #348]	; c10399c <install_dummy_isr+0x1ec>
 c10383c:	e5832000 	str	r2, [r3]
 c103840:	e59f3158 	ldr	r3, [pc, #344]	; c1039a0 <install_dummy_isr+0x1f0>
 c103844:	e59f2158 	ldr	r2, [pc, #344]	; c1039a4 <install_dummy_isr+0x1f4>
 c103848:	e5832000 	str	r2, [r3]
 c10384c:	e59f3154 	ldr	r3, [pc, #340]	; c1039a8 <install_dummy_isr+0x1f8>
 c103850:	e59f2154 	ldr	r2, [pc, #340]	; c1039ac <install_dummy_isr+0x1fc>
 c103854:	e5832000 	str	r2, [r3]
 c103858:	e59f3150 	ldr	r3, [pc, #336]	; c1039b0 <install_dummy_isr+0x200>
 c10385c:	e59f2150 	ldr	r2, [pc, #336]	; c1039b4 <install_dummy_isr+0x204>
 c103860:	e5832000 	str	r2, [r3]
 c103864:	e59f314c 	ldr	r3, [pc, #332]	; c1039b8 <install_dummy_isr+0x208>
 c103868:	e59f214c 	ldr	r2, [pc, #332]	; c1039bc <install_dummy_isr+0x20c>
 c10386c:	e5832000 	str	r2, [r3]
 c103870:	e59f3148 	ldr	r3, [pc, #328]	; c1039c0 <install_dummy_isr+0x210>
 c103874:	e59f2148 	ldr	r2, [pc, #328]	; c1039c4 <install_dummy_isr+0x214>
 c103878:	e5832000 	str	r2, [r3]
 c10387c:	e59f3144 	ldr	r3, [pc, #324]	; c1039c8 <install_dummy_isr+0x218>
 c103880:	e59f2144 	ldr	r2, [pc, #324]	; c1039cc <install_dummy_isr+0x21c>
 c103884:	e5832000 	str	r2, [r3]
 c103888:	e59f3140 	ldr	r3, [pc, #320]	; c1039d0 <install_dummy_isr+0x220>
 c10388c:	e59f2140 	ldr	r2, [pc, #320]	; c1039d4 <install_dummy_isr+0x224>
 c103890:	e5832000 	str	r2, [r3]
 c103894:	e59f313c 	ldr	r3, [pc, #316]	; c1039d8 <install_dummy_isr+0x228>
 c103898:	e59f213c 	ldr	r2, [pc, #316]	; c1039dc <install_dummy_isr+0x22c>
 c10389c:	e5832000 	str	r2, [r3]
 c1038a0:	e59f3138 	ldr	r3, [pc, #312]	; c1039e0 <install_dummy_isr+0x230>
 c1038a4:	e59f2138 	ldr	r2, [pc, #312]	; c1039e4 <install_dummy_isr+0x234>
 c1038a8:	e5832000 	str	r2, [r3]
 c1038ac:	e59f3134 	ldr	r3, [pc, #308]	; c1039e8 <install_dummy_isr+0x238>
 c1038b0:	e59f2134 	ldr	r2, [pc, #308]	; c1039ec <install_dummy_isr+0x23c>
 c1038b4:	e5832000 	str	r2, [r3]
 c1038b8:	e59f3130 	ldr	r3, [pc, #304]	; c1039f0 <install_dummy_isr+0x240>
 c1038bc:	e59f2130 	ldr	r2, [pc, #304]	; c1039f4 <install_dummy_isr+0x244>
 c1038c0:	e5832000 	str	r2, [r3]
 c1038c4:	e59f312c 	ldr	r3, [pc, #300]	; c1039f8 <install_dummy_isr+0x248>
 c1038c8:	e59f212c 	ldr	r2, [pc, #300]	; c1039fc <install_dummy_isr+0x24c>
 c1038cc:	e5832000 	str	r2, [r3]
 c1038d0:	e59f3128 	ldr	r3, [pc, #296]	; c103a00 <install_dummy_isr+0x250>
 c1038d4:	e59f2128 	ldr	r2, [pc, #296]	; c103a04 <install_dummy_isr+0x254>
 c1038d8:	e5832000 	str	r2, [r3]
 c1038dc:	e59f3124 	ldr	r3, [pc, #292]	; c103a08 <install_dummy_isr+0x258>
 c1038e0:	e59f2124 	ldr	r2, [pc, #292]	; c103a0c <install_dummy_isr+0x25c>
 c1038e4:	e5832000 	str	r2, [r3]
 c1038e8:	e59f3120 	ldr	r3, [pc, #288]	; c103a10 <install_dummy_isr+0x260>
 c1038ec:	e59f2120 	ldr	r2, [pc, #288]	; c103a14 <install_dummy_isr+0x264>
 c1038f0:	e5832000 	str	r2, [r3]
 c1038f4:	e59f311c 	ldr	r3, [pc, #284]	; c103a18 <install_dummy_isr+0x268>
 c1038f8:	e59f211c 	ldr	r2, [pc, #284]	; c103a1c <install_dummy_isr+0x26c>
 c1038fc:	e5832000 	str	r2, [r3]
 c103900:	e59f3118 	ldr	r3, [pc, #280]	; c103a20 <install_dummy_isr+0x270>
 c103904:	e59f2118 	ldr	r2, [pc, #280]	; c103a24 <install_dummy_isr+0x274>
 c103908:	e5832000 	str	r2, [r3]
 c10390c:	e59f3114 	ldr	r3, [pc, #276]	; c103a28 <install_dummy_isr+0x278>
 c103910:	e59f2114 	ldr	r2, [pc, #276]	; c103a2c <install_dummy_isr+0x27c>
 c103914:	e5832000 	str	r2, [r3]
 c103918:	e59f3110 	ldr	r3, [pc, #272]	; c103a30 <install_dummy_isr+0x280>
 c10391c:	e59f2110 	ldr	r2, [pc, #272]	; c103a34 <install_dummy_isr+0x284>
 c103920:	e5832000 	str	r2, [r3]
 c103924:	e59f310c 	ldr	r3, [pc, #268]	; c103a38 <install_dummy_isr+0x288>
 c103928:	e59f210c 	ldr	r2, [pc, #268]	; c103a3c <install_dummy_isr+0x28c>
 c10392c:	e5832000 	str	r2, [r3]
 c103930:	e59f3108 	ldr	r3, [pc, #264]	; c103a40 <install_dummy_isr+0x290>
 c103934:	e59f2108 	ldr	r2, [pc, #264]	; c103a44 <install_dummy_isr+0x294>
 c103938:	e5832000 	str	r2, [r3]
 c10393c:	e24bd00c 	sub	sp, fp, #12
 c103940:	e89d6800 	ldm	sp, {fp, sp, lr}
 c103944:	e12fff1e 	bx	lr
 c103948:	0c7fff08 	.word	0x0c7fff08
 c10394c:	0c103a48 	.word	0x0c103a48
 c103950:	0c7fff04 	.word	0x0c7fff04
 c103954:	0c103a88 	.word	0x0c103a88
 c103958:	0c7fff18 	.word	0x0c7fff18
 c10395c:	0c103ac8 	.word	0x0c103ac8
 c103960:	0c7fff1c 	.word	0x0c7fff1c
 c103964:	0c103b10 	.word	0x0c103b10
 c103968:	0c7fff0c 	.word	0x0c7fff0c
 c10396c:	0c103b58 	.word	0x0c103b58
 c103970:	0c7fff10 	.word	0x0c7fff10
 c103974:	0c103ba0 	.word	0x0c103ba0
 c103978:	0c7fff20 	.word	0x0c7fff20
 c10397c:	0c103be8 	.word	0x0c103be8
 c103980:	0c7fff24 	.word	0x0c7fff24
 c103984:	0c103c30 	.word	0x0c103c30
 c103988:	0c7fff28 	.word	0x0c7fff28
 c10398c:	0c103c78 	.word	0x0c103c78
 c103990:	0c7fff2c 	.word	0x0c7fff2c
 c103994:	0c103cc0 	.word	0x0c103cc0
 c103998:	0c7fff30 	.word	0x0c7fff30
 c10399c:	0c103d08 	.word	0x0c103d08
 c1039a0:	0c7fff34 	.word	0x0c7fff34
 c1039a4:	0c103d50 	.word	0x0c103d50
 c1039a8:	0c7fff38 	.word	0x0c7fff38
 c1039ac:	0c103d98 	.word	0x0c103d98
 c1039b0:	0c7fff3c 	.word	0x0c7fff3c
 c1039b4:	0c103de0 	.word	0x0c103de0
 c1039b8:	0c7fff40 	.word	0x0c7fff40
 c1039bc:	0c103e28 	.word	0x0c103e28
 c1039c0:	0c7fff44 	.word	0x0c7fff44
 c1039c4:	0c103e70 	.word	0x0c103e70
 c1039c8:	0c7fff48 	.word	0x0c7fff48
 c1039cc:	0c103eb8 	.word	0x0c103eb8
 c1039d0:	0c7fff4c 	.word	0x0c7fff4c
 c1039d4:	0c103f00 	.word	0x0c103f00
 c1039d8:	0c7fff50 	.word	0x0c7fff50
 c1039dc:	0c103f48 	.word	0x0c103f48
 c1039e0:	0c7fff54 	.word	0x0c7fff54
 c1039e4:	0c103f90 	.word	0x0c103f90
 c1039e8:	0c7fff58 	.word	0x0c7fff58
 c1039ec:	0c103fd8 	.word	0x0c103fd8
 c1039f0:	0c7fff5c 	.word	0x0c7fff5c
 c1039f4:	0c104020 	.word	0x0c104020
 c1039f8:	0c7fff60 	.word	0x0c7fff60
 c1039fc:	0c104068 	.word	0x0c104068
 c103a00:	0c7fff64 	.word	0x0c7fff64
 c103a04:	0c1040b0 	.word	0x0c1040b0
 c103a08:	0c7fff68 	.word	0x0c7fff68
 c103a0c:	0c1040f8 	.word	0x0c1040f8
 c103a10:	0c7fff6c 	.word	0x0c7fff6c
 c103a14:	0c104140 	.word	0x0c104140
 c103a18:	0c7fff70 	.word	0x0c7fff70
 c103a1c:	0c104188 	.word	0x0c104188
 c103a20:	0c7fff74 	.word	0x0c7fff74
 c103a24:	0c1041d0 	.word	0x0c1041d0
 c103a28:	0c7fff78 	.word	0x0c7fff78
 c103a2c:	0c104218 	.word	0x0c104218
 c103a30:	0c7fff7c 	.word	0x0c7fff7c
 c103a34:	0c104260 	.word	0x0c104260
 c103a38:	0c7fff80 	.word	0x0c7fff80
 c103a3c:	0c1042a8 	.word	0x0c1042a8
 c103a40:	0c7fff84 	.word	0x0c7fff84
 c103a44:	0c1042f0 	.word	0x0c1042f0

0c103a48 <isr_SWI_dummy>:
 c103a48:	e52dc004 	push	{ip}		; (str ip, [sp, #-4]!)
 c103a4c:	e1a0c00d 	mov	ip, sp
 c103a50:	e92dd81f 	push	{r0, r1, r2, r3, r4, fp, ip, lr, pc}
 c103a54:	e24cb004 	sub	fp, ip, #4
 c103a58:	e24dd00c 	sub	sp, sp, #12
 c103a5c:	e1a0400e 	mov	r4, lr
 c103a60:	e50b4028 	str	r4, [fp, #-40]	; 0xffffffd8
 c103a64:	e3a00000 	mov	r0, #0
 c103a68:	e59f1014 	ldr	r1, [pc, #20]	; c103a84 <isr_SWI_dummy+0x3c>
 c103a6c:	e51b2028 	ldr	r2, [fp, #-40]	; 0xffffffd8
 c103a70:	eb000378 	bl	c104858 <fatalerror>
 c103a74:	e24bd020 	sub	sp, fp, #32
 c103a78:	e89d681f 	ldm	sp, {r0, r1, r2, r3, r4, fp, sp, lr}
 c103a7c:	e49dc004 	pop	{ip}		; (ldr ip, [sp], #4)
 c103a80:	e1b0f00e 	movs	pc, lr
 c103a84:	0c1073f8 	.word	0x0c1073f8

0c103a88 <isr_UNDEF_dummy>:
 c103a88:	e52dc004 	push	{ip}		; (str ip, [sp, #-4]!)
 c103a8c:	e1a0c00d 	mov	ip, sp
 c103a90:	e92dd81f 	push	{r0, r1, r2, r3, r4, fp, ip, lr, pc}
 c103a94:	e24cb004 	sub	fp, ip, #4
 c103a98:	e24dd00c 	sub	sp, sp, #12
 c103a9c:	e1a0400e 	mov	r4, lr
 c103aa0:	e50b4028 	str	r4, [fp, #-40]	; 0xffffffd8
 c103aa4:	e3a00001 	mov	r0, #1
 c103aa8:	e59f1014 	ldr	r1, [pc, #20]	; c103ac4 <isr_UNDEF_dummy+0x3c>
 c103aac:	e51b2028 	ldr	r2, [fp, #-40]	; 0xffffffd8
 c103ab0:	eb000368 	bl	c104858 <fatalerror>
 c103ab4:	e24bd020 	sub	sp, fp, #32
 c103ab8:	e89d681f 	ldm	sp, {r0, r1, r2, r3, r4, fp, sp, lr}
 c103abc:	e49dc004 	pop	{ip}		; (ldr ip, [sp], #4)
 c103ac0:	e1b0f00e 	movs	pc, lr
 c103ac4:	0c107414 	.word	0x0c107414

0c103ac8 <isr_IRQ_dummy>:
 c103ac8:	e52dc004 	push	{ip}		; (str ip, [sp, #-4]!)
 c103acc:	e1a0c00d 	mov	ip, sp
 c103ad0:	e92dd81f 	push	{r0, r1, r2, r3, r4, fp, ip, lr, pc}
 c103ad4:	e24cb004 	sub	fp, ip, #4
 c103ad8:	e24dd00c 	sub	sp, sp, #12
 c103adc:	e1a0400e 	mov	r4, lr
 c103ae0:	e50b4028 	str	r4, [fp, #-40]	; 0xffffffd8
 c103ae4:	e51b3028 	ldr	r3, [fp, #-40]	; 0xffffffd8
 c103ae8:	e2433004 	sub	r3, r3, #4
 c103aec:	e3a00002 	mov	r0, #2
 c103af0:	e59f1014 	ldr	r1, [pc, #20]	; c103b0c <isr_IRQ_dummy+0x44>
 c103af4:	e1a02003 	mov	r2, r3
 c103af8:	eb000356 	bl	c104858 <fatalerror>
 c103afc:	e24bd020 	sub	sp, fp, #32
 c103b00:	e89d681f 	ldm	sp, {r0, r1, r2, r3, r4, fp, sp, lr}
 c103b04:	e49dc004 	pop	{ip}		; (ldr ip, [sp], #4)
 c103b08:	e25ef004 	subs	pc, lr, #4
 c103b0c:	0c107430 	.word	0x0c107430

0c103b10 <isr_FIQ_dummy>:
 c103b10:	e52dc004 	push	{ip}		; (str ip, [sp, #-4]!)
 c103b14:	e1a0c00d 	mov	ip, sp
 c103b18:	e92dd81f 	push	{r0, r1, r2, r3, r4, fp, ip, lr, pc}
 c103b1c:	e24cb004 	sub	fp, ip, #4
 c103b20:	e24dd00c 	sub	sp, sp, #12
 c103b24:	e1a0400e 	mov	r4, lr
 c103b28:	e50b4028 	str	r4, [fp, #-40]	; 0xffffffd8
 c103b2c:	e51b3028 	ldr	r3, [fp, #-40]	; 0xffffffd8
 c103b30:	e2433004 	sub	r3, r3, #4
 c103b34:	e3a00003 	mov	r0, #3
 c103b38:	e59f1014 	ldr	r1, [pc, #20]	; c103b54 <isr_FIQ_dummy+0x44>
 c103b3c:	e1a02003 	mov	r2, r3
 c103b40:	eb000344 	bl	c104858 <fatalerror>
 c103b44:	e24bd020 	sub	sp, fp, #32
 c103b48:	e89d681f 	ldm	sp, {r0, r1, r2, r3, r4, fp, sp, lr}
 c103b4c:	e49dc004 	pop	{ip}		; (ldr ip, [sp], #4)
 c103b50:	e25ef004 	subs	pc, lr, #4
 c103b54:	0c10744c 	.word	0x0c10744c

0c103b58 <isr_PABORT_dummy>:
 c103b58:	e52dc004 	push	{ip}		; (str ip, [sp, #-4]!)
 c103b5c:	e1a0c00d 	mov	ip, sp
 c103b60:	e92dd81f 	push	{r0, r1, r2, r3, r4, fp, ip, lr, pc}
 c103b64:	e24cb004 	sub	fp, ip, #4
 c103b68:	e24dd00c 	sub	sp, sp, #12
 c103b6c:	e1a0400e 	mov	r4, lr
 c103b70:	e50b4028 	str	r4, [fp, #-40]	; 0xffffffd8
 c103b74:	e51b3028 	ldr	r3, [fp, #-40]	; 0xffffffd8
 c103b78:	e2433004 	sub	r3, r3, #4
 c103b7c:	e3a00004 	mov	r0, #4
 c103b80:	e59f1014 	ldr	r1, [pc, #20]	; c103b9c <isr_PABORT_dummy+0x44>
 c103b84:	e1a02003 	mov	r2, r3
 c103b88:	eb000332 	bl	c104858 <fatalerror>
 c103b8c:	e24bd020 	sub	sp, fp, #32
 c103b90:	e89d681f 	ldm	sp, {r0, r1, r2, r3, r4, fp, sp, lr}
 c103b94:	e49dc004 	pop	{ip}		; (ldr ip, [sp], #4)
 c103b98:	e25ef004 	subs	pc, lr, #4
 c103b9c:	0c107468 	.word	0x0c107468

0c103ba0 <isr_DABORT_dummy>:
 c103ba0:	e52dc004 	push	{ip}		; (str ip, [sp, #-4]!)
 c103ba4:	e1a0c00d 	mov	ip, sp
 c103ba8:	e92dd81f 	push	{r0, r1, r2, r3, r4, fp, ip, lr, pc}
 c103bac:	e24cb004 	sub	fp, ip, #4
 c103bb0:	e24dd00c 	sub	sp, sp, #12
 c103bb4:	e1a0400e 	mov	r4, lr
 c103bb8:	e50b4028 	str	r4, [fp, #-40]	; 0xffffffd8
 c103bbc:	e51b3028 	ldr	r3, [fp, #-40]	; 0xffffffd8
 c103bc0:	e2433008 	sub	r3, r3, #8
 c103bc4:	e3a00005 	mov	r0, #5
 c103bc8:	e59f1014 	ldr	r1, [pc, #20]	; c103be4 <isr_DABORT_dummy+0x44>
 c103bcc:	e1a02003 	mov	r2, r3
 c103bd0:	eb000320 	bl	c104858 <fatalerror>
 c103bd4:	e24bd020 	sub	sp, fp, #32
 c103bd8:	e89d681f 	ldm	sp, {r0, r1, r2, r3, r4, fp, sp, lr}
 c103bdc:	e49dc004 	pop	{ip}		; (ldr ip, [sp], #4)
 c103be0:	e25ef004 	subs	pc, lr, #4
 c103be4:	0c107484 	.word	0x0c107484

0c103be8 <isr_ADC_dummy>:
 c103be8:	e52dc004 	push	{ip}		; (str ip, [sp, #-4]!)
 c103bec:	e1a0c00d 	mov	ip, sp
 c103bf0:	e92dd81f 	push	{r0, r1, r2, r3, r4, fp, ip, lr, pc}
 c103bf4:	e24cb004 	sub	fp, ip, #4
 c103bf8:	e24dd00c 	sub	sp, sp, #12
 c103bfc:	e1a0400e 	mov	r4, lr
 c103c00:	e50b4028 	str	r4, [fp, #-40]	; 0xffffffd8
 c103c04:	e51b3028 	ldr	r3, [fp, #-40]	; 0xffffffd8
 c103c08:	e2433004 	sub	r3, r3, #4
 c103c0c:	e3a0000b 	mov	r0, #11
 c103c10:	e59f1014 	ldr	r1, [pc, #20]	; c103c2c <isr_ADC_dummy+0x44>
 c103c14:	e1a02003 	mov	r2, r3
 c103c18:	eb00030e 	bl	c104858 <fatalerror>
 c103c1c:	e24bd020 	sub	sp, fp, #32
 c103c20:	e89d681f 	ldm	sp, {r0, r1, r2, r3, r4, fp, sp, lr}
 c103c24:	e49dc004 	pop	{ip}		; (ldr ip, [sp], #4)
 c103c28:	e25ef004 	subs	pc, lr, #4
 c103c2c:	0c1074a0 	.word	0x0c1074a0

0c103c30 <isr_RTC_dummy>:
 c103c30:	e52dc004 	push	{ip}		; (str ip, [sp, #-4]!)
 c103c34:	e1a0c00d 	mov	ip, sp
 c103c38:	e92dd81f 	push	{r0, r1, r2, r3, r4, fp, ip, lr, pc}
 c103c3c:	e24cb004 	sub	fp, ip, #4
 c103c40:	e24dd00c 	sub	sp, sp, #12
 c103c44:	e1a0400e 	mov	r4, lr
 c103c48:	e50b4028 	str	r4, [fp, #-40]	; 0xffffffd8
 c103c4c:	e51b3028 	ldr	r3, [fp, #-40]	; 0xffffffd8
 c103c50:	e2433004 	sub	r3, r3, #4
 c103c54:	e3a0000a 	mov	r0, #10
 c103c58:	e59f1014 	ldr	r1, [pc, #20]	; c103c74 <isr_RTC_dummy+0x44>
 c103c5c:	e1a02003 	mov	r2, r3
 c103c60:	eb0002fc 	bl	c104858 <fatalerror>
 c103c64:	e24bd020 	sub	sp, fp, #32
 c103c68:	e89d681f 	ldm	sp, {r0, r1, r2, r3, r4, fp, sp, lr}
 c103c6c:	e49dc004 	pop	{ip}		; (ldr ip, [sp], #4)
 c103c70:	e25ef004 	subs	pc, lr, #4
 c103c74:	0c1074bc 	.word	0x0c1074bc

0c103c78 <isr_UTXD1_dummy>:
 c103c78:	e52dc004 	push	{ip}		; (str ip, [sp, #-4]!)
 c103c7c:	e1a0c00d 	mov	ip, sp
 c103c80:	e92dd81f 	push	{r0, r1, r2, r3, r4, fp, ip, lr, pc}
 c103c84:	e24cb004 	sub	fp, ip, #4
 c103c88:	e24dd00c 	sub	sp, sp, #12
 c103c8c:	e1a0400e 	mov	r4, lr
 c103c90:	e50b4028 	str	r4, [fp, #-40]	; 0xffffffd8
 c103c94:	e51b3028 	ldr	r3, [fp, #-40]	; 0xffffffd8
 c103c98:	e2433004 	sub	r3, r3, #4
 c103c9c:	e3a0000c 	mov	r0, #12
 c103ca0:	e59f1014 	ldr	r1, [pc, #20]	; c103cbc <isr_UTXD1_dummy+0x44>
 c103ca4:	e1a02003 	mov	r2, r3
 c103ca8:	eb0002ea 	bl	c104858 <fatalerror>
 c103cac:	e24bd020 	sub	sp, fp, #32
 c103cb0:	e89d681f 	ldm	sp, {r0, r1, r2, r3, r4, fp, sp, lr}
 c103cb4:	e49dc004 	pop	{ip}		; (ldr ip, [sp], #4)
 c103cb8:	e25ef004 	subs	pc, lr, #4
 c103cbc:	0c1074d8 	.word	0x0c1074d8

0c103cc0 <isr_UTXD0_dummy>:
 c103cc0:	e52dc004 	push	{ip}		; (str ip, [sp, #-4]!)
 c103cc4:	e1a0c00d 	mov	ip, sp
 c103cc8:	e92dd81f 	push	{r0, r1, r2, r3, r4, fp, ip, lr, pc}
 c103ccc:	e24cb004 	sub	fp, ip, #4
 c103cd0:	e24dd00c 	sub	sp, sp, #12
 c103cd4:	e1a0400e 	mov	r4, lr
 c103cd8:	e50b4028 	str	r4, [fp, #-40]	; 0xffffffd8
 c103cdc:	e51b3028 	ldr	r3, [fp, #-40]	; 0xffffffd8
 c103ce0:	e2433004 	sub	r3, r3, #4
 c103ce4:	e3a00009 	mov	r0, #9
 c103ce8:	e59f1014 	ldr	r1, [pc, #20]	; c103d04 <isr_UTXD0_dummy+0x44>
 c103cec:	e1a02003 	mov	r2, r3
 c103cf0:	eb0002d8 	bl	c104858 <fatalerror>
 c103cf4:	e24bd020 	sub	sp, fp, #32
 c103cf8:	e89d681f 	ldm	sp, {r0, r1, r2, r3, r4, fp, sp, lr}
 c103cfc:	e49dc004 	pop	{ip}		; (ldr ip, [sp], #4)
 c103d00:	e25ef004 	subs	pc, lr, #4
 c103d04:	0c1074f4 	.word	0x0c1074f4

0c103d08 <isr_SIO_dummy>:
 c103d08:	e52dc004 	push	{ip}		; (str ip, [sp, #-4]!)
 c103d0c:	e1a0c00d 	mov	ip, sp
 c103d10:	e92dd81f 	push	{r0, r1, r2, r3, r4, fp, ip, lr, pc}
 c103d14:	e24cb004 	sub	fp, ip, #4
 c103d18:	e24dd00c 	sub	sp, sp, #12
 c103d1c:	e1a0400e 	mov	r4, lr
 c103d20:	e50b4028 	str	r4, [fp, #-40]	; 0xffffffd8
 c103d24:	e51b3028 	ldr	r3, [fp, #-40]	; 0xffffffd8
 c103d28:	e2433004 	sub	r3, r3, #4
 c103d2c:	e3a0000f 	mov	r0, #15
 c103d30:	e59f1014 	ldr	r1, [pc, #20]	; c103d4c <isr_SIO_dummy+0x44>
 c103d34:	e1a02003 	mov	r2, r3
 c103d38:	eb0002c6 	bl	c104858 <fatalerror>
 c103d3c:	e24bd020 	sub	sp, fp, #32
 c103d40:	e89d681f 	ldm	sp, {r0, r1, r2, r3, r4, fp, sp, lr}
 c103d44:	e49dc004 	pop	{ip}		; (ldr ip, [sp], #4)
 c103d48:	e25ef004 	subs	pc, lr, #4
 c103d4c:	0c107510 	.word	0x0c107510

0c103d50 <isr_IIC_dummy>:
 c103d50:	e52dc004 	push	{ip}		; (str ip, [sp, #-4]!)
 c103d54:	e1a0c00d 	mov	ip, sp
 c103d58:	e92dd81f 	push	{r0, r1, r2, r3, r4, fp, ip, lr, pc}
 c103d5c:	e24cb004 	sub	fp, ip, #4
 c103d60:	e24dd00c 	sub	sp, sp, #12
 c103d64:	e1a0400e 	mov	r4, lr
 c103d68:	e50b4028 	str	r4, [fp, #-40]	; 0xffffffd8
 c103d6c:	e51b3028 	ldr	r3, [fp, #-40]	; 0xffffffd8
 c103d70:	e2433004 	sub	r3, r3, #4
 c103d74:	e3a0000c 	mov	r0, #12
 c103d78:	e59f1014 	ldr	r1, [pc, #20]	; c103d94 <isr_IIC_dummy+0x44>
 c103d7c:	e1a02003 	mov	r2, r3
 c103d80:	eb0002b4 	bl	c104858 <fatalerror>
 c103d84:	e24bd020 	sub	sp, fp, #32
 c103d88:	e89d681f 	ldm	sp, {r0, r1, r2, r3, r4, fp, sp, lr}
 c103d8c:	e49dc004 	pop	{ip}		; (ldr ip, [sp], #4)
 c103d90:	e25ef004 	subs	pc, lr, #4
 c103d94:	0c10752c 	.word	0x0c10752c

0c103d98 <isr_URXD1_dummy>:
 c103d98:	e52dc004 	push	{ip}		; (str ip, [sp, #-4]!)
 c103d9c:	e1a0c00d 	mov	ip, sp
 c103da0:	e92dd81f 	push	{r0, r1, r2, r3, r4, fp, ip, lr, pc}
 c103da4:	e24cb004 	sub	fp, ip, #4
 c103da8:	e24dd00c 	sub	sp, sp, #12
 c103dac:	e1a0400e 	mov	r4, lr
 c103db0:	e50b4028 	str	r4, [fp, #-40]	; 0xffffffd8
 c103db4:	e51b3028 	ldr	r3, [fp, #-40]	; 0xffffffd8
 c103db8:	e2433004 	sub	r3, r3, #4
 c103dbc:	e3a0000c 	mov	r0, #12
 c103dc0:	e59f1014 	ldr	r1, [pc, #20]	; c103ddc <isr_URXD1_dummy+0x44>
 c103dc4:	e1a02003 	mov	r2, r3
 c103dc8:	eb0002a2 	bl	c104858 <fatalerror>
 c103dcc:	e24bd020 	sub	sp, fp, #32
 c103dd0:	e89d681f 	ldm	sp, {r0, r1, r2, r3, r4, fp, sp, lr}
 c103dd4:	e49dc004 	pop	{ip}		; (ldr ip, [sp], #4)
 c103dd8:	e25ef004 	subs	pc, lr, #4
 c103ddc:	0c107548 	.word	0x0c107548

0c103de0 <isr_URXD0_dummy>:
 c103de0:	e52dc004 	push	{ip}		; (str ip, [sp, #-4]!)
 c103de4:	e1a0c00d 	mov	ip, sp
 c103de8:	e92dd81f 	push	{r0, r1, r2, r3, r4, fp, ip, lr, pc}
 c103dec:	e24cb004 	sub	fp, ip, #4
 c103df0:	e24dd00c 	sub	sp, sp, #12
 c103df4:	e1a0400e 	mov	r4, lr
 c103df8:	e50b4028 	str	r4, [fp, #-40]	; 0xffffffd8
 c103dfc:	e51b3028 	ldr	r3, [fp, #-40]	; 0xffffffd8
 c103e00:	e2433004 	sub	r3, r3, #4
 c103e04:	e3a00008 	mov	r0, #8
 c103e08:	e59f1014 	ldr	r1, [pc, #20]	; c103e24 <isr_URXD0_dummy+0x44>
 c103e0c:	e1a02003 	mov	r2, r3
 c103e10:	eb000290 	bl	c104858 <fatalerror>
 c103e14:	e24bd020 	sub	sp, fp, #32
 c103e18:	e89d681f 	ldm	sp, {r0, r1, r2, r3, r4, fp, sp, lr}
 c103e1c:	e49dc004 	pop	{ip}		; (ldr ip, [sp], #4)
 c103e20:	e25ef004 	subs	pc, lr, #4
 c103e24:	0c107564 	.word	0x0c107564

0c103e28 <isr_TIMER5_dummy>:
 c103e28:	e52dc004 	push	{ip}		; (str ip, [sp, #-4]!)
 c103e2c:	e1a0c00d 	mov	ip, sp
 c103e30:	e92dd81f 	push	{r0, r1, r2, r3, r4, fp, ip, lr, pc}
 c103e34:	e24cb004 	sub	fp, ip, #4
 c103e38:	e24dd00c 	sub	sp, sp, #12
 c103e3c:	e1a0400e 	mov	r4, lr
 c103e40:	e50b4028 	str	r4, [fp, #-40]	; 0xffffffd8
 c103e44:	e51b3028 	ldr	r3, [fp, #-40]	; 0xffffffd8
 c103e48:	e2433004 	sub	r3, r3, #4
 c103e4c:	e3a0000e 	mov	r0, #14
 c103e50:	e59f1014 	ldr	r1, [pc, #20]	; c103e6c <isr_TIMER5_dummy+0x44>
 c103e54:	e1a02003 	mov	r2, r3
 c103e58:	eb00027e 	bl	c104858 <fatalerror>
 c103e5c:	e24bd020 	sub	sp, fp, #32
 c103e60:	e89d681f 	ldm	sp, {r0, r1, r2, r3, r4, fp, sp, lr}
 c103e64:	e49dc004 	pop	{ip}		; (ldr ip, [sp], #4)
 c103e68:	e25ef004 	subs	pc, lr, #4
 c103e6c:	0c107580 	.word	0x0c107580

0c103e70 <isr_TIMER4_dummy>:
 c103e70:	e52dc004 	push	{ip}		; (str ip, [sp, #-4]!)
 c103e74:	e1a0c00d 	mov	ip, sp
 c103e78:	e92dd81f 	push	{r0, r1, r2, r3, r4, fp, ip, lr, pc}
 c103e7c:	e24cb004 	sub	fp, ip, #4
 c103e80:	e24dd00c 	sub	sp, sp, #12
 c103e84:	e1a0400e 	mov	r4, lr
 c103e88:	e50b4028 	str	r4, [fp, #-40]	; 0xffffffd8
 c103e8c:	e51b3028 	ldr	r3, [fp, #-40]	; 0xffffffd8
 c103e90:	e2433004 	sub	r3, r3, #4
 c103e94:	e3a0000e 	mov	r0, #14
 c103e98:	e59f1014 	ldr	r1, [pc, #20]	; c103eb4 <isr_TIMER4_dummy+0x44>
 c103e9c:	e1a02003 	mov	r2, r3
 c103ea0:	eb00026c 	bl	c104858 <fatalerror>
 c103ea4:	e24bd020 	sub	sp, fp, #32
 c103ea8:	e89d681f 	ldm	sp, {r0, r1, r2, r3, r4, fp, sp, lr}
 c103eac:	e49dc004 	pop	{ip}		; (ldr ip, [sp], #4)
 c103eb0:	e25ef004 	subs	pc, lr, #4
 c103eb4:	0c10759c 	.word	0x0c10759c

0c103eb8 <isr_TIMER3_dummy>:
 c103eb8:	e52dc004 	push	{ip}		; (str ip, [sp, #-4]!)
 c103ebc:	e1a0c00d 	mov	ip, sp
 c103ec0:	e92dd81f 	push	{r0, r1, r2, r3, r4, fp, ip, lr, pc}
 c103ec4:	e24cb004 	sub	fp, ip, #4
 c103ec8:	e24dd00c 	sub	sp, sp, #12
 c103ecc:	e1a0400e 	mov	r4, lr
 c103ed0:	e50b4028 	str	r4, [fp, #-40]	; 0xffffffd8
 c103ed4:	e51b3028 	ldr	r3, [fp, #-40]	; 0xffffffd8
 c103ed8:	e2433004 	sub	r3, r3, #4
 c103edc:	e3a0000e 	mov	r0, #14
 c103ee0:	e59f1014 	ldr	r1, [pc, #20]	; c103efc <isr_TIMER3_dummy+0x44>
 c103ee4:	e1a02003 	mov	r2, r3
 c103ee8:	eb00025a 	bl	c104858 <fatalerror>
 c103eec:	e24bd020 	sub	sp, fp, #32
 c103ef0:	e89d681f 	ldm	sp, {r0, r1, r2, r3, r4, fp, sp, lr}
 c103ef4:	e49dc004 	pop	{ip}		; (ldr ip, [sp], #4)
 c103ef8:	e25ef004 	subs	pc, lr, #4
 c103efc:	0c1075b8 	.word	0x0c1075b8

0c103f00 <isr_TIMER2_dummy>:
 c103f00:	e52dc004 	push	{ip}		; (str ip, [sp, #-4]!)
 c103f04:	e1a0c00d 	mov	ip, sp
 c103f08:	e92dd81f 	push	{r0, r1, r2, r3, r4, fp, ip, lr, pc}
 c103f0c:	e24cb004 	sub	fp, ip, #4
 c103f10:	e24dd00c 	sub	sp, sp, #12
 c103f14:	e1a0400e 	mov	r4, lr
 c103f18:	e50b4028 	str	r4, [fp, #-40]	; 0xffffffd8
 c103f1c:	e51b3028 	ldr	r3, [fp, #-40]	; 0xffffffd8
 c103f20:	e2433004 	sub	r3, r3, #4
 c103f24:	e3a0000e 	mov	r0, #14
 c103f28:	e59f1014 	ldr	r1, [pc, #20]	; c103f44 <isr_TIMER2_dummy+0x44>
 c103f2c:	e1a02003 	mov	r2, r3
 c103f30:	eb000248 	bl	c104858 <fatalerror>
 c103f34:	e24bd020 	sub	sp, fp, #32
 c103f38:	e89d681f 	ldm	sp, {r0, r1, r2, r3, r4, fp, sp, lr}
 c103f3c:	e49dc004 	pop	{ip}		; (ldr ip, [sp], #4)
 c103f40:	e25ef004 	subs	pc, lr, #4
 c103f44:	0c1075d4 	.word	0x0c1075d4

0c103f48 <isr_TIMER1_dummy>:
 c103f48:	e52dc004 	push	{ip}		; (str ip, [sp, #-4]!)
 c103f4c:	e1a0c00d 	mov	ip, sp
 c103f50:	e92dd81f 	push	{r0, r1, r2, r3, r4, fp, ip, lr, pc}
 c103f54:	e24cb004 	sub	fp, ip, #4
 c103f58:	e24dd00c 	sub	sp, sp, #12
 c103f5c:	e1a0400e 	mov	r4, lr
 c103f60:	e50b4028 	str	r4, [fp, #-40]	; 0xffffffd8
 c103f64:	e51b3028 	ldr	r3, [fp, #-40]	; 0xffffffd8
 c103f68:	e2433004 	sub	r3, r3, #4
 c103f6c:	e3a0000e 	mov	r0, #14
 c103f70:	e59f1014 	ldr	r1, [pc, #20]	; c103f8c <isr_TIMER1_dummy+0x44>
 c103f74:	e1a02003 	mov	r2, r3
 c103f78:	eb000236 	bl	c104858 <fatalerror>
 c103f7c:	e24bd020 	sub	sp, fp, #32
 c103f80:	e89d681f 	ldm	sp, {r0, r1, r2, r3, r4, fp, sp, lr}
 c103f84:	e49dc004 	pop	{ip}		; (ldr ip, [sp], #4)
 c103f88:	e25ef004 	subs	pc, lr, #4
 c103f8c:	0c1075f0 	.word	0x0c1075f0

0c103f90 <isr_TIMER0_dummy>:
 c103f90:	e52dc004 	push	{ip}		; (str ip, [sp, #-4]!)
 c103f94:	e1a0c00d 	mov	ip, sp
 c103f98:	e92dd81f 	push	{r0, r1, r2, r3, r4, fp, ip, lr, pc}
 c103f9c:	e24cb004 	sub	fp, ip, #4
 c103fa0:	e24dd00c 	sub	sp, sp, #12
 c103fa4:	e1a0400e 	mov	r4, lr
 c103fa8:	e50b4028 	str	r4, [fp, #-40]	; 0xffffffd8
 c103fac:	e51b3028 	ldr	r3, [fp, #-40]	; 0xffffffd8
 c103fb0:	e2433004 	sub	r3, r3, #4
 c103fb4:	e3a0000e 	mov	r0, #14
 c103fb8:	e59f1014 	ldr	r1, [pc, #20]	; c103fd4 <isr_TIMER0_dummy+0x44>
 c103fbc:	e1a02003 	mov	r2, r3
 c103fc0:	eb000224 	bl	c104858 <fatalerror>
 c103fc4:	e24bd020 	sub	sp, fp, #32
 c103fc8:	e89d681f 	ldm	sp, {r0, r1, r2, r3, r4, fp, sp, lr}
 c103fcc:	e49dc004 	pop	{ip}		; (ldr ip, [sp], #4)
 c103fd0:	e25ef004 	subs	pc, lr, #4
 c103fd4:	0c10760c 	.word	0x0c10760c

0c103fd8 <isr_UERR01_dummy>:
 c103fd8:	e52dc004 	push	{ip}		; (str ip, [sp, #-4]!)
 c103fdc:	e1a0c00d 	mov	ip, sp
 c103fe0:	e92dd81f 	push	{r0, r1, r2, r3, r4, fp, ip, lr, pc}
 c103fe4:	e24cb004 	sub	fp, ip, #4
 c103fe8:	e24dd00c 	sub	sp, sp, #12
 c103fec:	e1a0400e 	mov	r4, lr
 c103ff0:	e50b4028 	str	r4, [fp, #-40]	; 0xffffffd8
 c103ff4:	e51b3028 	ldr	r3, [fp, #-40]	; 0xffffffd8
 c103ff8:	e2433004 	sub	r3, r3, #4
 c103ffc:	e3a0000c 	mov	r0, #12
 c104000:	e59f1014 	ldr	r1, [pc, #20]	; c10401c <isr_UERR01_dummy+0x44>
 c104004:	e1a02003 	mov	r2, r3
 c104008:	eb000212 	bl	c104858 <fatalerror>
 c10400c:	e24bd020 	sub	sp, fp, #32
 c104010:	e89d681f 	ldm	sp, {r0, r1, r2, r3, r4, fp, sp, lr}
 c104014:	e49dc004 	pop	{ip}		; (ldr ip, [sp], #4)
 c104018:	e25ef004 	subs	pc, lr, #4
 c10401c:	0c107628 	.word	0x0c107628

0c104020 <isr_WDT_dummy>:
 c104020:	e52dc004 	push	{ip}		; (str ip, [sp, #-4]!)
 c104024:	e1a0c00d 	mov	ip, sp
 c104028:	e92dd81f 	push	{r0, r1, r2, r3, r4, fp, ip, lr, pc}
 c10402c:	e24cb004 	sub	fp, ip, #4
 c104030:	e24dd00c 	sub	sp, sp, #12
 c104034:	e1a0400e 	mov	r4, lr
 c104038:	e50b4028 	str	r4, [fp, #-40]	; 0xffffffd8
 c10403c:	e51b3028 	ldr	r3, [fp, #-40]	; 0xffffffd8
 c104040:	e2433004 	sub	r3, r3, #4
 c104044:	e3a0000e 	mov	r0, #14
 c104048:	e59f1014 	ldr	r1, [pc, #20]	; c104064 <isr_WDT_dummy+0x44>
 c10404c:	e1a02003 	mov	r2, r3
 c104050:	eb000200 	bl	c104858 <fatalerror>
 c104054:	e24bd020 	sub	sp, fp, #32
 c104058:	e89d681f 	ldm	sp, {r0, r1, r2, r3, r4, fp, sp, lr}
 c10405c:	e49dc004 	pop	{ip}		; (ldr ip, [sp], #4)
 c104060:	e25ef004 	subs	pc, lr, #4
 c104064:	0c107644 	.word	0x0c107644

0c104068 <isr_BDMA1_dummy>:
 c104068:	e52dc004 	push	{ip}		; (str ip, [sp, #-4]!)
 c10406c:	e1a0c00d 	mov	ip, sp
 c104070:	e92dd81f 	push	{r0, r1, r2, r3, r4, fp, ip, lr, pc}
 c104074:	e24cb004 	sub	fp, ip, #4
 c104078:	e24dd00c 	sub	sp, sp, #12
 c10407c:	e1a0400e 	mov	r4, lr
 c104080:	e50b4028 	str	r4, [fp, #-40]	; 0xffffffd8
 c104084:	e51b3028 	ldr	r3, [fp, #-40]	; 0xffffffd8
 c104088:	e2433004 	sub	r3, r3, #4
 c10408c:	e3a0000d 	mov	r0, #13
 c104090:	e59f1014 	ldr	r1, [pc, #20]	; c1040ac <isr_BDMA1_dummy+0x44>
 c104094:	e1a02003 	mov	r2, r3
 c104098:	eb0001ee 	bl	c104858 <fatalerror>
 c10409c:	e24bd020 	sub	sp, fp, #32
 c1040a0:	e89d681f 	ldm	sp, {r0, r1, r2, r3, r4, fp, sp, lr}
 c1040a4:	e49dc004 	pop	{ip}		; (ldr ip, [sp], #4)
 c1040a8:	e25ef004 	subs	pc, lr, #4
 c1040ac:	0c107660 	.word	0x0c107660

0c1040b0 <isr_BDMA0_dummy>:
 c1040b0:	e52dc004 	push	{ip}		; (str ip, [sp, #-4]!)
 c1040b4:	e1a0c00d 	mov	ip, sp
 c1040b8:	e92dd81f 	push	{r0, r1, r2, r3, r4, fp, ip, lr, pc}
 c1040bc:	e24cb004 	sub	fp, ip, #4
 c1040c0:	e24dd00c 	sub	sp, sp, #12
 c1040c4:	e1a0400e 	mov	r4, lr
 c1040c8:	e50b4028 	str	r4, [fp, #-40]	; 0xffffffd8
 c1040cc:	e51b3028 	ldr	r3, [fp, #-40]	; 0xffffffd8
 c1040d0:	e2433004 	sub	r3, r3, #4
 c1040d4:	e3a0000d 	mov	r0, #13
 c1040d8:	e59f1014 	ldr	r1, [pc, #20]	; c1040f4 <isr_BDMA0_dummy+0x44>
 c1040dc:	e1a02003 	mov	r2, r3
 c1040e0:	eb0001dc 	bl	c104858 <fatalerror>
 c1040e4:	e24bd020 	sub	sp, fp, #32
 c1040e8:	e89d681f 	ldm	sp, {r0, r1, r2, r3, r4, fp, sp, lr}
 c1040ec:	e49dc004 	pop	{ip}		; (ldr ip, [sp], #4)
 c1040f0:	e25ef004 	subs	pc, lr, #4
 c1040f4:	0c10767c 	.word	0x0c10767c

0c1040f8 <isr_ZDMA1_dummy>:
 c1040f8:	e52dc004 	push	{ip}		; (str ip, [sp, #-4]!)
 c1040fc:	e1a0c00d 	mov	ip, sp
 c104100:	e92dd81f 	push	{r0, r1, r2, r3, r4, fp, ip, lr, pc}
 c104104:	e24cb004 	sub	fp, ip, #4
 c104108:	e24dd00c 	sub	sp, sp, #12
 c10410c:	e1a0400e 	mov	r4, lr
 c104110:	e50b4028 	str	r4, [fp, #-40]	; 0xffffffd8
 c104114:	e51b3028 	ldr	r3, [fp, #-40]	; 0xffffffd8
 c104118:	e2433004 	sub	r3, r3, #4
 c10411c:	e3a0000d 	mov	r0, #13
 c104120:	e59f1014 	ldr	r1, [pc, #20]	; c10413c <isr_ZDMA1_dummy+0x44>
 c104124:	e1a02003 	mov	r2, r3
 c104128:	eb0001ca 	bl	c104858 <fatalerror>
 c10412c:	e24bd020 	sub	sp, fp, #32
 c104130:	e89d681f 	ldm	sp, {r0, r1, r2, r3, r4, fp, sp, lr}
 c104134:	e49dc004 	pop	{ip}		; (ldr ip, [sp], #4)
 c104138:	e25ef004 	subs	pc, lr, #4
 c10413c:	0c107698 	.word	0x0c107698

0c104140 <isr_ZDMA0_dummy>:
 c104140:	e52dc004 	push	{ip}		; (str ip, [sp, #-4]!)
 c104144:	e1a0c00d 	mov	ip, sp
 c104148:	e92dd81f 	push	{r0, r1, r2, r3, r4, fp, ip, lr, pc}
 c10414c:	e24cb004 	sub	fp, ip, #4
 c104150:	e24dd00c 	sub	sp, sp, #12
 c104154:	e1a0400e 	mov	r4, lr
 c104158:	e50b4028 	str	r4, [fp, #-40]	; 0xffffffd8
 c10415c:	e51b3028 	ldr	r3, [fp, #-40]	; 0xffffffd8
 c104160:	e2433004 	sub	r3, r3, #4
 c104164:	e3a0000d 	mov	r0, #13
 c104168:	e59f1014 	ldr	r1, [pc, #20]	; c104184 <isr_ZDMA0_dummy+0x44>
 c10416c:	e1a02003 	mov	r2, r3
 c104170:	eb0001b8 	bl	c104858 <fatalerror>
 c104174:	e24bd020 	sub	sp, fp, #32
 c104178:	e89d681f 	ldm	sp, {r0, r1, r2, r3, r4, fp, sp, lr}
 c10417c:	e49dc004 	pop	{ip}		; (ldr ip, [sp], #4)
 c104180:	e25ef004 	subs	pc, lr, #4
 c104184:	0c10767c 	.word	0x0c10767c

0c104188 <isr_TICK_dummy>:
 c104188:	e52dc004 	push	{ip}		; (str ip, [sp, #-4]!)
 c10418c:	e1a0c00d 	mov	ip, sp
 c104190:	e92dd81f 	push	{r0, r1, r2, r3, r4, fp, ip, lr, pc}
 c104194:	e24cb004 	sub	fp, ip, #4
 c104198:	e24dd00c 	sub	sp, sp, #12
 c10419c:	e1a0400e 	mov	r4, lr
 c1041a0:	e50b4028 	str	r4, [fp, #-40]	; 0xffffffd8
 c1041a4:	e51b3028 	ldr	r3, [fp, #-40]	; 0xffffffd8
 c1041a8:	e2433004 	sub	r3, r3, #4
 c1041ac:	e3a0000a 	mov	r0, #10
 c1041b0:	e59f1014 	ldr	r1, [pc, #20]	; c1041cc <isr_TICK_dummy+0x44>
 c1041b4:	e1a02003 	mov	r2, r3
 c1041b8:	eb0001a6 	bl	c104858 <fatalerror>
 c1041bc:	e24bd020 	sub	sp, fp, #32
 c1041c0:	e89d681f 	ldm	sp, {r0, r1, r2, r3, r4, fp, sp, lr}
 c1041c4:	e49dc004 	pop	{ip}		; (ldr ip, [sp], #4)
 c1041c8:	e25ef004 	subs	pc, lr, #4
 c1041cc:	0c1076b4 	.word	0x0c1076b4

0c1041d0 <isr_PB_dummy>:
 c1041d0:	e52dc004 	push	{ip}		; (str ip, [sp, #-4]!)
 c1041d4:	e1a0c00d 	mov	ip, sp
 c1041d8:	e92dd81f 	push	{r0, r1, r2, r3, r4, fp, ip, lr, pc}
 c1041dc:	e24cb004 	sub	fp, ip, #4
 c1041e0:	e24dd00c 	sub	sp, sp, #12
 c1041e4:	e1a0400e 	mov	r4, lr
 c1041e8:	e50b4028 	str	r4, [fp, #-40]	; 0xffffffd8
 c1041ec:	e51b3028 	ldr	r3, [fp, #-40]	; 0xffffffd8
 c1041f0:	e2433004 	sub	r3, r3, #4
 c1041f4:	e3a00006 	mov	r0, #6
 c1041f8:	e59f1014 	ldr	r1, [pc, #20]	; c104214 <isr_PB_dummy+0x44>
 c1041fc:	e1a02003 	mov	r2, r3
 c104200:	eb000194 	bl	c104858 <fatalerror>
 c104204:	e24bd020 	sub	sp, fp, #32
 c104208:	e89d681f 	ldm	sp, {r0, r1, r2, r3, r4, fp, sp, lr}
 c10420c:	e49dc004 	pop	{ip}		; (ldr ip, [sp], #4)
 c104210:	e25ef004 	subs	pc, lr, #4
 c104214:	0c1076d0 	.word	0x0c1076d0

0c104218 <isr_ETHERNET_dummy>:
 c104218:	e52dc004 	push	{ip}		; (str ip, [sp, #-4]!)
 c10421c:	e1a0c00d 	mov	ip, sp
 c104220:	e92dd81f 	push	{r0, r1, r2, r3, r4, fp, ip, lr, pc}
 c104224:	e24cb004 	sub	fp, ip, #4
 c104228:	e24dd00c 	sub	sp, sp, #12
 c10422c:	e1a0400e 	mov	r4, lr
 c104230:	e50b4028 	str	r4, [fp, #-40]	; 0xffffffd8
 c104234:	e51b3028 	ldr	r3, [fp, #-40]	; 0xffffffd8
 c104238:	e2433004 	sub	r3, r3, #4
 c10423c:	e3a0000f 	mov	r0, #15
 c104240:	e59f1014 	ldr	r1, [pc, #20]	; c10425c <isr_ETHERNET_dummy+0x44>
 c104244:	e1a02003 	mov	r2, r3
 c104248:	eb000182 	bl	c104858 <fatalerror>
 c10424c:	e24bd020 	sub	sp, fp, #32
 c104250:	e89d681f 	ldm	sp, {r0, r1, r2, r3, r4, fp, sp, lr}
 c104254:	e49dc004 	pop	{ip}		; (ldr ip, [sp], #4)
 c104258:	e25ef004 	subs	pc, lr, #4
 c10425c:	0c1076e8 	.word	0x0c1076e8

0c104260 <isr_TS_dummy>:
 c104260:	e52dc004 	push	{ip}		; (str ip, [sp, #-4]!)
 c104264:	e1a0c00d 	mov	ip, sp
 c104268:	e92dd81f 	push	{r0, r1, r2, r3, r4, fp, ip, lr, pc}
 c10426c:	e24cb004 	sub	fp, ip, #4
 c104270:	e24dd00c 	sub	sp, sp, #12
 c104274:	e1a0400e 	mov	r4, lr
 c104278:	e50b4028 	str	r4, [fp, #-40]	; 0xffffffd8
 c10427c:	e51b3028 	ldr	r3, [fp, #-40]	; 0xffffffd8
 c104280:	e2433004 	sub	r3, r3, #4
 c104284:	e3a0000b 	mov	r0, #11
 c104288:	e59f1014 	ldr	r1, [pc, #20]	; c1042a4 <isr_TS_dummy+0x44>
 c10428c:	e1a02003 	mov	r2, r3
 c104290:	eb000170 	bl	c104858 <fatalerror>
 c104294:	e24bd020 	sub	sp, fp, #32
 c104298:	e89d681f 	ldm	sp, {r0, r1, r2, r3, r4, fp, sp, lr}
 c10429c:	e49dc004 	pop	{ip}		; (ldr ip, [sp], #4)
 c1042a0:	e25ef004 	subs	pc, lr, #4
 c1042a4:	0c107708 	.word	0x0c107708

0c1042a8 <isr_KEYPAD_dummy>:
 c1042a8:	e52dc004 	push	{ip}		; (str ip, [sp, #-4]!)
 c1042ac:	e1a0c00d 	mov	ip, sp
 c1042b0:	e92dd81f 	push	{r0, r1, r2, r3, r4, fp, ip, lr, pc}
 c1042b4:	e24cb004 	sub	fp, ip, #4
 c1042b8:	e24dd00c 	sub	sp, sp, #12
 c1042bc:	e1a0400e 	mov	r4, lr
 c1042c0:	e50b4028 	str	r4, [fp, #-40]	; 0xffffffd8
 c1042c4:	e51b3028 	ldr	r3, [fp, #-40]	; 0xffffffd8
 c1042c8:	e2433004 	sub	r3, r3, #4
 c1042cc:	e3a00007 	mov	r0, #7
 c1042d0:	e59f1014 	ldr	r1, [pc, #20]	; c1042ec <isr_KEYPAD_dummy+0x44>
 c1042d4:	e1a02003 	mov	r2, r3
 c1042d8:	eb00015e 	bl	c104858 <fatalerror>
 c1042dc:	e24bd020 	sub	sp, fp, #32
 c1042e0:	e89d681f 	ldm	sp, {r0, r1, r2, r3, r4, fp, sp, lr}
 c1042e4:	e49dc004 	pop	{ip}		; (ldr ip, [sp], #4)
 c1042e8:	e25ef004 	subs	pc, lr, #4
 c1042ec:	0c107720 	.word	0x0c107720

0c1042f0 <isr_USB_dummy>:
 c1042f0:	e52dc004 	push	{ip}		; (str ip, [sp, #-4]!)
 c1042f4:	e1a0c00d 	mov	ip, sp
 c1042f8:	e92dd81f 	push	{r0, r1, r2, r3, r4, fp, ip, lr, pc}
 c1042fc:	e24cb004 	sub	fp, ip, #4
 c104300:	e24dd00c 	sub	sp, sp, #12
 c104304:	e1a0400e 	mov	r4, lr
 c104308:	e50b4028 	str	r4, [fp, #-40]	; 0xffffffd8
 c10430c:	e51b3028 	ldr	r3, [fp, #-40]	; 0xffffffd8
 c104310:	e2433004 	sub	r3, r3, #4
 c104314:	e3a0000f 	mov	r0, #15
 c104318:	e59f1014 	ldr	r1, [pc, #20]	; c104334 <isr_USB_dummy+0x44>
 c10431c:	e1a02003 	mov	r2, r3
 c104320:	eb00014c 	bl	c104858 <fatalerror>
 c104324:	e24bd020 	sub	sp, fp, #32
 c104328:	e89d681f 	ldm	sp, {r0, r1, r2, r3, r4, fp, sp, lr}
 c10432c:	e49dc004 	pop	{ip}		; (ldr ip, [sp], #4)
 c104330:	e25ef004 	subs	pc, lr, #4
 c104334:	0c10773c 	.word	0x0c10773c

0c104338 <show_sys_info>:
 c104338:	e1a0c00d 	mov	ip, sp
 c10433c:	e92dd810 	push	{r4, fp, ip, lr, pc}
 c104340:	e24cb004 	sub	fp, ip, #4
 c104344:	e24dd00c 	sub	sp, sp, #12
 c104348:	e59f03a4 	ldr	r0, [pc, #932]	; c1046f4 <show_sys_info+0x3bc>
 c10434c:	eb00073f 	bl	c106050 <uart0_puts>
 c104350:	e59f03a0 	ldr	r0, [pc, #928]	; c1046f8 <show_sys_info+0x3c0>
 c104354:	eb00073d 	bl	c106050 <uart0_puts>
 c104358:	e59f039c 	ldr	r0, [pc, #924]	; c1046fc <show_sys_info+0x3c4>
 c10435c:	eb00073b 	bl	c106050 <uart0_puts>
 c104360:	e59f0398 	ldr	r0, [pc, #920]	; c104700 <show_sys_info+0x3c8>
 c104364:	eb000739 	bl	c106050 <uart0_puts>
 c104368:	e59f0394 	ldr	r0, [pc, #916]	; c104704 <show_sys_info+0x3cc>
 c10436c:	eb000737 	bl	c106050 <uart0_puts>
 c104370:	e59f0390 	ldr	r0, [pc, #912]	; c104708 <show_sys_info+0x3d0>
 c104374:	eb000735 	bl	c106050 <uart0_puts>
 c104378:	e59f038c 	ldr	r0, [pc, #908]	; c10470c <show_sys_info+0x3d4>
 c10437c:	eb000733 	bl	c106050 <uart0_puts>
 c104380:	e59f0388 	ldr	r0, [pc, #904]	; c104710 <show_sys_info+0x3d8>
 c104384:	eb000731 	bl	c106050 <uart0_puts>
 c104388:	e59f0384 	ldr	r0, [pc, #900]	; c104714 <show_sys_info+0x3dc>
 c10438c:	eb00072f 	bl	c106050 <uart0_puts>
 c104390:	e59f0380 	ldr	r0, [pc, #896]	; c104718 <show_sys_info+0x3e0>
 c104394:	eb00072d 	bl	c106050 <uart0_puts>
 c104398:	e59f037c 	ldr	r0, [pc, #892]	; c10471c <show_sys_info+0x3e4>
 c10439c:	eb00072b 	bl	c106050 <uart0_puts>
 c1043a0:	e59f0378 	ldr	r0, [pc, #888]	; c104720 <show_sys_info+0x3e8>
 c1043a4:	eb000729 	bl	c106050 <uart0_puts>
 c1043a8:	e59f0374 	ldr	r0, [pc, #884]	; c104724 <show_sys_info+0x3ec>
 c1043ac:	eb000727 	bl	c106050 <uart0_puts>
 c1043b0:	e59f0370 	ldr	r0, [pc, #880]	; c104728 <show_sys_info+0x3f0>
 c1043b4:	eb000725 	bl	c106050 <uart0_puts>
 c1043b8:	e59f036c 	ldr	r0, [pc, #876]	; c10472c <show_sys_info+0x3f4>
 c1043bc:	eb000723 	bl	c106050 <uart0_puts>
 c1043c0:	e10f4000 	mrs	r4, CPSR
 c1043c4:	e50b4018 	str	r4, [fp, #-24]	; 0xffffffe8
 c1043c8:	e51b3018 	ldr	r3, [fp, #-24]	; 0xffffffe8
 c1043cc:	e2033020 	and	r3, r3, #32
 c1043d0:	e3530000 	cmp	r3, #0
 c1043d4:	0a000002 	beq	c1043e4 <show_sys_info+0xac>
 c1043d8:	e59f0350 	ldr	r0, [pc, #848]	; c104730 <show_sys_info+0x3f8>
 c1043dc:	eb00071b 	bl	c106050 <uart0_puts>
 c1043e0:	ea000001 	b	c1043ec <show_sys_info+0xb4>
 c1043e4:	e59f0348 	ldr	r0, [pc, #840]	; c104734 <show_sys_info+0x3fc>
 c1043e8:	eb000718 	bl	c106050 <uart0_puts>
 c1043ec:	e59f0344 	ldr	r0, [pc, #836]	; c104738 <show_sys_info+0x400>
 c1043f0:	eb000716 	bl	c106050 <uart0_puts>
 c1043f4:	e51b3018 	ldr	r3, [fp, #-24]	; 0xffffffe8
 c1043f8:	e203301f 	and	r3, r3, #31
 c1043fc:	e2433010 	sub	r3, r3, #16
 c104400:	e353000f 	cmp	r3, #15
 c104404:	979ff103 	ldrls	pc, [pc, r3, lsl #2]
 c104408:	ea000024 	b	c1044a0 <show_sys_info+0x168>
 c10440c:	0c10444c 	.word	0x0c10444c
 c104410:	0c104458 	.word	0x0c104458
 c104414:	0c104464 	.word	0x0c104464
 c104418:	0c104470 	.word	0x0c104470
 c10441c:	0c1044a0 	.word	0x0c1044a0
 c104420:	0c1044a0 	.word	0x0c1044a0
 c104424:	0c1044a0 	.word	0x0c1044a0
 c104428:	0c10447c 	.word	0x0c10447c
 c10442c:	0c1044a0 	.word	0x0c1044a0
 c104430:	0c1044a0 	.word	0x0c1044a0
 c104434:	0c1044a0 	.word	0x0c1044a0
 c104438:	0c104488 	.word	0x0c104488
 c10443c:	0c1044a0 	.word	0x0c1044a0
 c104440:	0c1044a0 	.word	0x0c1044a0
 c104444:	0c1044a0 	.word	0x0c1044a0
 c104448:	0c104494 	.word	0x0c104494
 c10444c:	e59f02e8 	ldr	r0, [pc, #744]	; c10473c <show_sys_info+0x404>
 c104450:	eb0006fe 	bl	c106050 <uart0_puts>
 c104454:	ea000011 	b	c1044a0 <show_sys_info+0x168>
 c104458:	e59f02e0 	ldr	r0, [pc, #736]	; c104740 <show_sys_info+0x408>
 c10445c:	eb0006fb 	bl	c106050 <uart0_puts>
 c104460:	ea00000e 	b	c1044a0 <show_sys_info+0x168>
 c104464:	e59f02d8 	ldr	r0, [pc, #728]	; c104744 <show_sys_info+0x40c>
 c104468:	eb0006f8 	bl	c106050 <uart0_puts>
 c10446c:	ea00000b 	b	c1044a0 <show_sys_info+0x168>
 c104470:	e59f02d0 	ldr	r0, [pc, #720]	; c104748 <show_sys_info+0x410>
 c104474:	eb0006f5 	bl	c106050 <uart0_puts>
 c104478:	ea000008 	b	c1044a0 <show_sys_info+0x168>
 c10447c:	e59f02c8 	ldr	r0, [pc, #712]	; c10474c <show_sys_info+0x414>
 c104480:	eb0006f2 	bl	c106050 <uart0_puts>
 c104484:	ea000005 	b	c1044a0 <show_sys_info+0x168>
 c104488:	e59f02c0 	ldr	r0, [pc, #704]	; c104750 <show_sys_info+0x418>
 c10448c:	eb0006ef 	bl	c106050 <uart0_puts>
 c104490:	ea000002 	b	c1044a0 <show_sys_info+0x168>
 c104494:	e59f02b8 	ldr	r0, [pc, #696]	; c104754 <show_sys_info+0x41c>
 c104498:	eb0006ec 	bl	c106050 <uart0_puts>
 c10449c:	e1a00000 	nop			; (mov r0, r0)
 c1044a0:	e59f02b0 	ldr	r0, [pc, #688]	; c104758 <show_sys_info+0x420>
 c1044a4:	eb0006e9 	bl	c106050 <uart0_puts>
 c1044a8:	e51b3018 	ldr	r3, [fp, #-24]	; 0xffffffe8
 c1044ac:	e2033080 	and	r3, r3, #128	; 0x80
 c1044b0:	e3530000 	cmp	r3, #0
 c1044b4:	0a000002 	beq	c1044c4 <show_sys_info+0x18c>
 c1044b8:	e59f029c 	ldr	r0, [pc, #668]	; c10475c <show_sys_info+0x424>
 c1044bc:	eb0006e3 	bl	c106050 <uart0_puts>
 c1044c0:	ea000001 	b	c1044cc <show_sys_info+0x194>
 c1044c4:	e59f0294 	ldr	r0, [pc, #660]	; c104760 <show_sys_info+0x428>
 c1044c8:	eb0006e0 	bl	c106050 <uart0_puts>
 c1044cc:	e59f0290 	ldr	r0, [pc, #656]	; c104764 <show_sys_info+0x42c>
 c1044d0:	eb0006de 	bl	c106050 <uart0_puts>
 c1044d4:	e51b3018 	ldr	r3, [fp, #-24]	; 0xffffffe8
 c1044d8:	e2033040 	and	r3, r3, #64	; 0x40
 c1044dc:	e3530000 	cmp	r3, #0
 c1044e0:	0a000002 	beq	c1044f0 <show_sys_info+0x1b8>
 c1044e4:	e59f0270 	ldr	r0, [pc, #624]	; c10475c <show_sys_info+0x424>
 c1044e8:	eb0006d8 	bl	c106050 <uart0_puts>
 c1044ec:	ea000001 	b	c1044f8 <show_sys_info+0x1c0>
 c1044f0:	e59f0268 	ldr	r0, [pc, #616]	; c104760 <show_sys_info+0x428>
 c1044f4:	eb0006d5 	bl	c106050 <uart0_puts>
 c1044f8:	e59f0268 	ldr	r0, [pc, #616]	; c104768 <show_sys_info+0x430>
 c1044fc:	eb0006d3 	bl	c106050 <uart0_puts>
 c104500:	e59f3264 	ldr	r3, [pc, #612]	; c10476c <show_sys_info+0x434>
 c104504:	e5932000 	ldr	r2, [r3]
 c104508:	e59f3260 	ldr	r3, [pc, #608]	; c104770 <show_sys_info+0x438>
 c10450c:	e0831392 	umull	r1, r3, r2, r3
 c104510:	e1a03923 	lsr	r3, r3, #18
 c104514:	e1a00003 	mov	r0, r3
 c104518:	eb0006e0 	bl	c1060a0 <uart0_putint>
 c10451c:	e59f0250 	ldr	r0, [pc, #592]	; c104774 <show_sys_info+0x43c>
 c104520:	eb0006ca 	bl	c106050 <uart0_puts>
 c104524:	e59f024c 	ldr	r0, [pc, #588]	; c104778 <show_sys_info+0x440>
 c104528:	eb0006c8 	bl	c106050 <uart0_puts>
 c10452c:	e3a03507 	mov	r3, #29360128	; 0x1c00000
 c104530:	e5933000 	ldr	r3, [r3]
 c104534:	e2033006 	and	r3, r3, #6
 c104538:	e1a030a3 	lsr	r3, r3, #1
 c10453c:	e3530001 	cmp	r3, #1
 c104540:	0a000007 	beq	c104564 <show_sys_info+0x22c>
 c104544:	e3530001 	cmp	r3, #1
 c104548:	3a000002 	bcc	c104558 <show_sys_info+0x220>
 c10454c:	e3530003 	cmp	r3, #3
 c104550:	0a000006 	beq	c104570 <show_sys_info+0x238>
 c104554:	ea000008 	b	c10457c <show_sys_info+0x244>
 c104558:	e59f021c 	ldr	r0, [pc, #540]	; c10477c <show_sys_info+0x444>
 c10455c:	eb0006bb 	bl	c106050 <uart0_puts>
 c104560:	ea000005 	b	c10457c <show_sys_info+0x244>
 c104564:	e59f0214 	ldr	r0, [pc, #532]	; c104780 <show_sys_info+0x448>
 c104568:	eb0006b8 	bl	c106050 <uart0_puts>
 c10456c:	ea000002 	b	c10457c <show_sys_info+0x244>
 c104570:	e59f020c 	ldr	r0, [pc, #524]	; c104784 <show_sys_info+0x44c>
 c104574:	eb0006b5 	bl	c106050 <uart0_puts>
 c104578:	e1a00000 	nop			; (mov r0, r0)
 c10457c:	e59f0204 	ldr	r0, [pc, #516]	; c104788 <show_sys_info+0x450>
 c104580:	eb0006b2 	bl	c106050 <uart0_puts>
 c104584:	e3a00002 	mov	r0, #2
 c104588:	eb0006c4 	bl	c1060a0 <uart0_putint>
 c10458c:	e59f01f8 	ldr	r0, [pc, #504]	; c10478c <show_sys_info+0x454>
 c104590:	eb0006ae 	bl	c106050 <uart0_puts>
 c104594:	e59f01f4 	ldr	r0, [pc, #500]	; c104790 <show_sys_info+0x458>
 c104598:	eb0006ac 	bl	c106050 <uart0_puts>
 c10459c:	e3a00008 	mov	r0, #8
 c1045a0:	eb0006be 	bl	c1060a0 <uart0_putint>
 c1045a4:	e59f01e0 	ldr	r0, [pc, #480]	; c10478c <show_sys_info+0x454>
 c1045a8:	eb0006a8 	bl	c106050 <uart0_puts>
 c1045ac:	e59f01e0 	ldr	r0, [pc, #480]	; c104794 <show_sys_info+0x45c>
 c1045b0:	eb0006a6 	bl	c106050 <uart0_puts>
 c1045b4:	e59f01dc 	ldr	r0, [pc, #476]	; c104798 <show_sys_info+0x460>
 c1045b8:	eb0006a4 	bl	c106050 <uart0_puts>
 c1045bc:	e59f01d8 	ldr	r0, [pc, #472]	; c10479c <show_sys_info+0x464>
 c1045c0:	eb0006a2 	bl	c106050 <uart0_puts>
 c1045c4:	e59f31d4 	ldr	r3, [pc, #468]	; c1047a0 <show_sys_info+0x468>
 c1045c8:	e1a03523 	lsr	r3, r3, #10
 c1045cc:	e1a00003 	mov	r0, r3
 c1045d0:	eb0006b2 	bl	c1060a0 <uart0_putint>
 c1045d4:	e59f01c8 	ldr	r0, [pc, #456]	; c1047a4 <show_sys_info+0x46c>
 c1045d8:	eb00069c 	bl	c106050 <uart0_puts>
 c1045dc:	e59f31bc 	ldr	r3, [pc, #444]	; c1047a0 <show_sys_info+0x468>
 c1045e0:	e1a00003 	mov	r0, r3
 c1045e4:	eb0006ad 	bl	c1060a0 <uart0_putint>
 c1045e8:	e59f01b8 	ldr	r0, [pc, #440]	; c1047a8 <show_sys_info+0x470>
 c1045ec:	eb000697 	bl	c106050 <uart0_puts>
 c1045f0:	e59f21a8 	ldr	r2, [pc, #424]	; c1047a0 <show_sys_info+0x468>
 c1045f4:	e1a03002 	mov	r3, r2
 c1045f8:	e1a03103 	lsl	r3, r3, #2
 c1045fc:	e0833002 	add	r3, r3, r2
 c104600:	e1a02103 	lsl	r2, r3, #2
 c104604:	e0833002 	add	r3, r3, r2
 c104608:	e1a03103 	lsl	r3, r3, #2
 c10460c:	e1a03ba3 	lsr	r3, r3, #23
 c104610:	e1a00003 	mov	r0, r3
 c104614:	eb0006a1 	bl	c1060a0 <uart0_putint>
 c104618:	e59f018c 	ldr	r0, [pc, #396]	; c1047ac <show_sys_info+0x474>
 c10461c:	eb00068b 	bl	c106050 <uart0_puts>
 c104620:	e59f0188 	ldr	r0, [pc, #392]	; c1047b0 <show_sys_info+0x478>
 c104624:	eb000689 	bl	c106050 <uart0_puts>
 c104628:	e59f3184 	ldr	r3, [pc, #388]	; c1047b4 <show_sys_info+0x47c>
 c10462c:	e1a03523 	lsr	r3, r3, #10
 c104630:	e1a00003 	mov	r0, r3
 c104634:	eb000699 	bl	c1060a0 <uart0_putint>
 c104638:	e59f0164 	ldr	r0, [pc, #356]	; c1047a4 <show_sys_info+0x46c>
 c10463c:	eb000683 	bl	c106050 <uart0_puts>
 c104640:	e59f316c 	ldr	r3, [pc, #364]	; c1047b4 <show_sys_info+0x47c>
 c104644:	e1a00003 	mov	r0, r3
 c104648:	eb000694 	bl	c1060a0 <uart0_putint>
 c10464c:	e59f0164 	ldr	r0, [pc, #356]	; c1047b8 <show_sys_info+0x480>
 c104650:	eb00067e 	bl	c106050 <uart0_puts>
 c104654:	e59f0160 	ldr	r0, [pc, #352]	; c1047bc <show_sys_info+0x484>
 c104658:	eb00067c 	bl	c106050 <uart0_puts>
 c10465c:	e59f315c 	ldr	r3, [pc, #348]	; c1047c0 <show_sys_info+0x488>
 c104660:	e1a00003 	mov	r0, r3
 c104664:	eb0006e2 	bl	c1061f4 <uart0_puthex>
 c104668:	e59f0154 	ldr	r0, [pc, #340]	; c1047c4 <show_sys_info+0x48c>
 c10466c:	eb000677 	bl	c106050 <uart0_puts>
 c104670:	e59f3150 	ldr	r3, [pc, #336]	; c1047c8 <show_sys_info+0x490>
 c104674:	e2433001 	sub	r3, r3, #1
 c104678:	e1a00003 	mov	r0, r3
 c10467c:	eb0006dc 	bl	c1061f4 <uart0_puthex>
 c104680:	e59f0144 	ldr	r0, [pc, #324]	; c1047cc <show_sys_info+0x494>
 c104684:	eb000671 	bl	c106050 <uart0_puts>
 c104688:	e59f3140 	ldr	r3, [pc, #320]	; c1047d0 <show_sys_info+0x498>
 c10468c:	e1a03523 	lsr	r3, r3, #10
 c104690:	e1a00003 	mov	r0, r3
 c104694:	eb000681 	bl	c1060a0 <uart0_putint>
 c104698:	e59f0104 	ldr	r0, [pc, #260]	; c1047a4 <show_sys_info+0x46c>
 c10469c:	eb00066b 	bl	c106050 <uart0_puts>
 c1046a0:	e59f3128 	ldr	r3, [pc, #296]	; c1047d0 <show_sys_info+0x498>
 c1046a4:	e1a00003 	mov	r0, r3
 c1046a8:	eb00067c 	bl	c1060a0 <uart0_putint>
 c1046ac:	e59f0104 	ldr	r0, [pc, #260]	; c1047b8 <show_sys_info+0x480>
 c1046b0:	eb000666 	bl	c106050 <uart0_puts>
 c1046b4:	e59f0100 	ldr	r0, [pc, #256]	; c1047bc <show_sys_info+0x484>
 c1046b8:	eb000664 	bl	c106050 <uart0_puts>
 c1046bc:	e59f3110 	ldr	r3, [pc, #272]	; c1047d4 <show_sys_info+0x49c>
 c1046c0:	e1a00003 	mov	r0, r3
 c1046c4:	eb0006ca 	bl	c1061f4 <uart0_puthex>
 c1046c8:	e59f00f4 	ldr	r0, [pc, #244]	; c1047c4 <show_sys_info+0x48c>
 c1046cc:	eb00065f 	bl	c106050 <uart0_puts>
 c1046d0:	e59f3100 	ldr	r3, [pc, #256]	; c1047d8 <show_sys_info+0x4a0>
 c1046d4:	e2433001 	sub	r3, r3, #1
 c1046d8:	e1a00003 	mov	r0, r3
 c1046dc:	eb0006c4 	bl	c1061f4 <uart0_puthex>
 c1046e0:	e59f00f4 	ldr	r0, [pc, #244]	; c1047dc <show_sys_info+0x4a4>
 c1046e4:	eb000659 	bl	c106050 <uart0_puts>
 c1046e8:	e24bd010 	sub	sp, fp, #16
 c1046ec:	e89d6810 	ldm	sp, {r4, fp, sp, lr}
 c1046f0:	e12fff1e 	bx	lr
 c1046f4:	0c107758 	.word	0x0c107758
 c1046f8:	0c107788 	.word	0x0c107788
 c1046fc:	0c10779c 	.word	0x0c10779c
 c104700:	0c1077b4 	.word	0x0c1077b4
 c104704:	0c1077c4 	.word	0x0c1077c4
 c104708:	0c1077d0 	.word	0x0c1077d0
 c10470c:	0c1077d4 	.word	0x0c1077d4
 c104710:	0c1077e0 	.word	0x0c1077e0
 c104714:	0c1077e4 	.word	0x0c1077e4
 c104718:	0c107804 	.word	0x0c107804
 c10471c:	0c10780c 	.word	0x0c10780c
 c104720:	0c107834 	.word	0x0c107834
 c104724:	0c107850 	.word	0x0c107850
 c104728:	0c10785c 	.word	0x0c10785c
 c10472c:	0c107868 	.word	0x0c107868
 c104730:	0c107884 	.word	0x0c107884
 c104734:	0c10788c 	.word	0x0c10788c
 c104738:	0c107890 	.word	0x0c107890
 c10473c:	0c1078ac 	.word	0x0c1078ac
 c104740:	0c1078b0 	.word	0x0c1078b0
 c104744:	0c1078b4 	.word	0x0c1078b4
 c104748:	0c1078b8 	.word	0x0c1078b8
 c10474c:	0c1078bc 	.word	0x0c1078bc
 c104750:	0c1078c0 	.word	0x0c1078c0
 c104754:	0c1078c4 	.word	0x0c1078c4
 c104758:	0c1078c8 	.word	0x0c1078c8
 c10475c:	0c1078e4 	.word	0x0c1078e4
 c104760:	0c1078f4 	.word	0x0c1078f4
 c104764:	0c107900 	.word	0x0c107900
 c104768:	0c10791c 	.word	0x0c10791c
 c10476c:	0c108b94 	.word	0x0c108b94
 c104770:	431bde83 	.word	0x431bde83
 c104774:	0c107938 	.word	0x0c107938
 c104778:	0c107940 	.word	0x0c107940
 c10477c:	0c10795c 	.word	0x0c10795c
 c104780:	0c10796c 	.word	0x0c10796c
 c104784:	0c107974 	.word	0x0c107974
 c104788:	0c10797c 	.word	0x0c10797c
 c10478c:	0c107998 	.word	0x0c107998
 c104790:	0c10799c 	.word	0x0c10799c
 c104794:	0c1079b8 	.word	0x0c1079b8
 c104798:	0c1079d8 	.word	0x0c1079d8
 c10479c:	0c1079e8 	.word	0x0c1079e8
 c1047a0:	00008ca1 	.word	0x00008ca1
 c1047a4:	0c107a00 	.word	0x0c107a00
 c1047a8:	0c107a08 	.word	0x0c107a08
 c1047ac:	0c107a10 	.word	0x0c107a10
 c1047b0:	0c107a14 	.word	0x0c107a14
 c1047b4:	000073c0 	.word	0x000073c0
 c1047b8:	0c107a30 	.word	0x0c107a30
 c1047bc:	0c107a34 	.word	0x0c107a34
 c1047c0:	0c100000 	.word	0x0c100000
 c1047c4:	0c107a50 	.word	0x0c107a50
 c1047c8:	0c1073c0 	.word	0x0c1073c0
 c1047cc:	0c107a6c 	.word	0x0c107a6c
 c1047d0:	000018e1 	.word	0x000018e1
 c1047d4:	0c1073c0 	.word	0x0c1073c0
 c1047d8:	0c1122a9 	.word	0x0c1122a9
 c1047dc:	0c107a88 	.word	0x0c107a88

0c1047e0 <getmem>:
 c1047e0:	e1a0c00d 	mov	ip, sp
 c1047e4:	e92dd800 	push	{fp, ip, lr, pc}
 c1047e8:	e24cb004 	sub	fp, ip, #4
 c1047ec:	e24dd010 	sub	sp, sp, #16
 c1047f0:	e50b0018 	str	r0, [fp, #-24]	; 0xffffffe8
 c1047f4:	e59f3058 	ldr	r3, [pc, #88]	; c104854 <getmem+0x74>
 c1047f8:	e5933000 	ldr	r3, [r3]
 c1047fc:	e2033003 	and	r3, r3, #3
 c104800:	e3530000 	cmp	r3, #0
 c104804:	0a000001 	beq	c104810 <getmem+0x30>
 c104808:	e3a03004 	mov	r3, #4
 c10480c:	ea000000 	b	c104814 <getmem+0x34>
 c104810:	e3a03000 	mov	r3, #0
 c104814:	e59f2038 	ldr	r2, [pc, #56]	; c104854 <getmem+0x74>
 c104818:	e5922000 	ldr	r2, [r2]
 c10481c:	e3c22003 	bic	r2, r2, #3
 c104820:	e0833002 	add	r3, r3, r2
 c104824:	e50b3010 	str	r3, [fp, #-16]
 c104828:	e59f3024 	ldr	r3, [pc, #36]	; c104854 <getmem+0x74>
 c10482c:	e5932000 	ldr	r2, [r3]
 c104830:	e51b3018 	ldr	r3, [fp, #-24]	; 0xffffffe8
 c104834:	e0822003 	add	r2, r2, r3
 c104838:	e59f3014 	ldr	r3, [pc, #20]	; c104854 <getmem+0x74>
 c10483c:	e5832000 	str	r2, [r3]
 c104840:	e51b3010 	ldr	r3, [fp, #-16]
 c104844:	e1a00003 	mov	r0, r3
 c104848:	e24bd00c 	sub	sp, fp, #12
 c10484c:	e89d6800 	ldm	sp, {fp, sp, lr}
 c104850:	e12fff1e 	bx	lr
 c104854:	0c108b98 	.word	0x0c108b98

0c104858 <fatalerror>:
 c104858:	e1a0c00d 	mov	ip, sp
 c10485c:	e92dd800 	push	{fp, ip, lr, pc}
 c104860:	e24cb004 	sub	fp, ip, #4
 c104864:	e24dd018 	sub	sp, sp, #24
 c104868:	e1a03000 	mov	r3, r0
 c10486c:	e50b101c 	str	r1, [fp, #-28]	; 0xffffffe4
 c104870:	e50b2020 	str	r2, [fp, #-32]	; 0xffffffe0
 c104874:	e54b3015 	strb	r3, [fp, #-21]	; 0xffffffeb
 c104878:	e59f00a8 	ldr	r0, [pc, #168]	; c104928 <fatalerror+0xd0>
 c10487c:	eb0005f3 	bl	c106050 <uart0_puts>
 c104880:	e51b001c 	ldr	r0, [fp, #-28]	; 0xffffffe4
 c104884:	eb0005f1 	bl	c106050 <uart0_puts>
 c104888:	e59f009c 	ldr	r0, [pc, #156]	; c10492c <fatalerror+0xd4>
 c10488c:	eb0005ef 	bl	c106050 <uart0_puts>
 c104890:	e51b0020 	ldr	r0, [fp, #-32]	; 0xffffffe0
 c104894:	eb000656 	bl	c1061f4 <uart0_puthex>
 c104898:	e59f3090 	ldr	r3, [pc, #144]	; c104930 <fatalerror+0xd8>
 c10489c:	e59f2090 	ldr	r2, [pc, #144]	; c104934 <fatalerror+0xdc>
 c1048a0:	e5832000 	str	r2, [r3]
 c1048a4:	e55b3015 	ldrb	r3, [fp, #-21]	; 0xffffffeb
 c1048a8:	e1a00003 	mov	r0, r3
 c1048ac:	ebfffa0e 	bl	c1030ec <segs_putchar>
 c1048b0:	e59f3080 	ldr	r3, [pc, #128]	; c104938 <fatalerror+0xe0>
 c1048b4:	e3a02000 	mov	r2, #0
 c1048b8:	e5832000 	str	r2, [r3]
 c1048bc:	e3a03000 	mov	r3, #0
 c1048c0:	e50b3010 	str	r3, [fp, #-16]
 c1048c4:	ea000002 	b	c1048d4 <fatalerror+0x7c>
 c1048c8:	e51b3010 	ldr	r3, [fp, #-16]
 c1048cc:	e2833001 	add	r3, r3, #1
 c1048d0:	e50b3010 	str	r3, [fp, #-16]
 c1048d4:	e51b2010 	ldr	r2, [fp, #-16]
 c1048d8:	e59f305c 	ldr	r3, [pc, #92]	; c10493c <fatalerror+0xe4>
 c1048dc:	e1520003 	cmp	r2, r3
 c1048e0:	9afffff8 	bls	c1048c8 <fatalerror+0x70>
 c1048e4:	e3a03785 	mov	r3, #34865152	; 0x2140000
 c1048e8:	e3e02000 	mvn	r2, #0
 c1048ec:	e5c32000 	strb	r2, [r3]
 c1048f0:	e59f3040 	ldr	r3, [pc, #64]	; c104938 <fatalerror+0xe0>
 c1048f4:	e3a02c06 	mov	r2, #1536	; 0x600
 c1048f8:	e5832000 	str	r2, [r3]
 c1048fc:	e3a03000 	mov	r3, #0
 c104900:	e50b3010 	str	r3, [fp, #-16]
 c104904:	ea000002 	b	c104914 <fatalerror+0xbc>
 c104908:	e51b3010 	ldr	r3, [fp, #-16]
 c10490c:	e2833001 	add	r3, r3, #1
 c104910:	e50b3010 	str	r3, [fp, #-16]
 c104914:	e51b2010 	ldr	r2, [fp, #-16]
 c104918:	e59f301c 	ldr	r3, [pc, #28]	; c10493c <fatalerror+0xe4>
 c10491c:	e1520003 	cmp	r2, r3
 c104920:	9afffff8 	bls	c104908 <fatalerror+0xb0>
 c104924:	eaffffde 	b	c1048a4 <fatalerror+0x4c>
 c104928:	0c107ab8 	.word	0x0c107ab8
 c10492c:	0c107acc 	.word	0x0c107acc
 c104930:	01d20008 	.word	0x01d20008
 c104934:	0000014f 	.word	0x0000014f
 c104938:	01d2000c 	.word	0x01d2000c
 c10493c:	0001869f 	.word	0x0001869f

0c104940 <sleep>:
 c104940:	e1a0c00d 	mov	ip, sp
 c104944:	e92dd800 	push	{fp, ip, lr, pc}
 c104948:	e24cb004 	sub	fp, ip, #4
 c10494c:	e59f302c 	ldr	r3, [pc, #44]	; c104980 <sleep+0x40>
 c104950:	e59f2028 	ldr	r2, [pc, #40]	; c104980 <sleep+0x40>
 c104954:	e5922000 	ldr	r2, [r2]
 c104958:	e3822004 	orr	r2, r2, #4
 c10495c:	e5832000 	str	r2, [r3]
 c104960:	e59f3018 	ldr	r3, [pc, #24]	; c104980 <sleep+0x40>
 c104964:	e59f2014 	ldr	r2, [pc, #20]	; c104980 <sleep+0x40>
 c104968:	e5922000 	ldr	r2, [r2]
 c10496c:	e3c22004 	bic	r2, r2, #4
 c104970:	e5832000 	str	r2, [r3]
 c104974:	e24bd00c 	sub	sp, fp, #12
 c104978:	e89d6800 	ldm	sp, {fp, sp, lr}
 c10497c:	e12fff1e 	bx	lr
 c104980:	01d80004 	.word	0x01d80004

0c104984 <timers_init>:
 c104984:	e1a0c00d 	mov	ip, sp
 c104988:	e92dd800 	push	{fp, ip, lr, pc}
 c10498c:	e24cb004 	sub	fp, ip, #4
 c104990:	e3a00003 	mov	r0, #3
 c104994:	ebfff6e7 	bl	c102538 <power_on>
 c104998:	e59f30bc 	ldr	r3, [pc, #188]	; c104a5c <timers_init+0xd8>
 c10499c:	e3a02000 	mov	r2, #0
 c1049a0:	e5832000 	str	r2, [r3]
 c1049a4:	e59f30b4 	ldr	r3, [pc, #180]	; c104a60 <timers_init+0xdc>
 c1049a8:	e3a02000 	mov	r2, #0
 c1049ac:	e5832000 	str	r2, [r3]
 c1049b0:	e59f30ac 	ldr	r3, [pc, #172]	; c104a64 <timers_init+0xe0>
 c1049b4:	e3a02000 	mov	r2, #0
 c1049b8:	e5832000 	str	r2, [r3]
 c1049bc:	e59f30a4 	ldr	r3, [pc, #164]	; c104a68 <timers_init+0xe4>
 c1049c0:	e3a02000 	mov	r2, #0
 c1049c4:	e5832000 	str	r2, [r3]
 c1049c8:	e59f309c 	ldr	r3, [pc, #156]	; c104a6c <timers_init+0xe8>
 c1049cc:	e3a02000 	mov	r2, #0
 c1049d0:	e5832000 	str	r2, [r3]
 c1049d4:	e59f3094 	ldr	r3, [pc, #148]	; c104a70 <timers_init+0xec>
 c1049d8:	e3a02000 	mov	r2, #0
 c1049dc:	e5832000 	str	r2, [r3]
 c1049e0:	e59f308c 	ldr	r3, [pc, #140]	; c104a74 <timers_init+0xf0>
 c1049e4:	e3a02000 	mov	r2, #0
 c1049e8:	e5832000 	str	r2, [r3]
 c1049ec:	e59f3084 	ldr	r3, [pc, #132]	; c104a78 <timers_init+0xf4>
 c1049f0:	e3a02000 	mov	r2, #0
 c1049f4:	e5832000 	str	r2, [r3]
 c1049f8:	e59f307c 	ldr	r3, [pc, #124]	; c104a7c <timers_init+0xf8>
 c1049fc:	e3a02000 	mov	r2, #0
 c104a00:	e5832000 	str	r2, [r3]
 c104a04:	e59f3074 	ldr	r3, [pc, #116]	; c104a80 <timers_init+0xfc>
 c104a08:	e3a02000 	mov	r2, #0
 c104a0c:	e5832000 	str	r2, [r3]
 c104a10:	e59f306c 	ldr	r3, [pc, #108]	; c104a84 <timers_init+0x100>
 c104a14:	e3a02000 	mov	r2, #0
 c104a18:	e5832000 	str	r2, [r3]
 c104a1c:	e59f3064 	ldr	r3, [pc, #100]	; c104a88 <timers_init+0x104>
 c104a20:	e3a02000 	mov	r2, #0
 c104a24:	e5832000 	str	r2, [r3]
 c104a28:	e59f305c 	ldr	r3, [pc, #92]	; c104a8c <timers_init+0x108>
 c104a2c:	e3a02000 	mov	r2, #0
 c104a30:	e5832000 	str	r2, [r3]
 c104a34:	e59f3054 	ldr	r3, [pc, #84]	; c104a90 <timers_init+0x10c>
 c104a38:	e59f2054 	ldr	r2, [pc, #84]	; c104a94 <timers_init+0x110>
 c104a3c:	e5832000 	str	r2, [r3]
 c104a40:	e59f3048 	ldr	r3, [pc, #72]	; c104a90 <timers_init+0x10c>
 c104a44:	e3a02000 	mov	r2, #0
 c104a48:	e5832000 	str	r2, [r3]
 c104a4c:	eb000011 	bl	c104a98 <sw_delay_init>
 c104a50:	e24bd00c 	sub	sp, fp, #12
 c104a54:	e89d6800 	ldm	sp, {fp, sp, lr}
 c104a58:	e12fff1e 	bx	lr
 c104a5c:	01d50000 	.word	0x01d50000
 c104a60:	01d50004 	.word	0x01d50004
 c104a64:	01d5000c 	.word	0x01d5000c
 c104a68:	01d50010 	.word	0x01d50010
 c104a6c:	01d50018 	.word	0x01d50018
 c104a70:	01d5001c 	.word	0x01d5001c
 c104a74:	01d50024 	.word	0x01d50024
 c104a78:	01d50028 	.word	0x01d50028
 c104a7c:	01d50030 	.word	0x01d50030
 c104a80:	01d50034 	.word	0x01d50034
 c104a84:	01d5003c 	.word	0x01d5003c
 c104a88:	01d50040 	.word	0x01d50040
 c104a8c:	01d50048 	.word	0x01d50048
 c104a90:	01d50008 	.word	0x01d50008
 c104a94:	02222202 	.word	0x02222202

0c104a98 <sw_delay_init>:
 c104a98:	e1a0c00d 	mov	ip, sp
 c104a9c:	e92dd810 	push	{r4, fp, ip, lr, pc}
 c104aa0:	e24cb004 	sub	fp, ip, #4
 c104aa4:	e24dd00c 	sub	sp, sp, #12
 c104aa8:	eb0000d2 	bl	c104df8 <timer3_start>
 c104aac:	e59f3088 	ldr	r3, [pc, #136]	; c104b3c <sw_delay_init+0xa4>
 c104ab0:	e50b3018 	str	r3, [fp, #-24]	; 0xffffffe8
 c104ab4:	ea000002 	b	c104ac4 <sw_delay_init+0x2c>
 c104ab8:	e51b3018 	ldr	r3, [fp, #-24]	; 0xffffffe8
 c104abc:	e2433001 	sub	r3, r3, #1
 c104ac0:	e50b3018 	str	r3, [fp, #-24]	; 0xffffffe8
 c104ac4:	e51b3018 	ldr	r3, [fp, #-24]	; 0xffffffe8
 c104ac8:	e3530000 	cmp	r3, #0
 c104acc:	1afffff9 	bne	c104ab8 <sw_delay_init+0x20>
 c104ad0:	eb0000ff 	bl	c104ed4 <timer3_stop>
 c104ad4:	e1a03000 	mov	r3, r0
 c104ad8:	e1a02003 	mov	r2, r3
 c104adc:	e1a03002 	mov	r3, r2
 c104ae0:	e3a04000 	mov	r4, #0
 c104ae4:	e3a00315 	mov	r0, #1409286144	; 0x54000000
 c104ae8:	e2800abe 	add	r0, r0, #778240	; 0xbe000
 c104aec:	e2800b01 	add	r0, r0, #1024	; 0x400
 c104af0:	e3a01002 	mov	r1, #2
 c104af4:	e1a02003 	mov	r2, r3
 c104af8:	e1a03004 	mov	r3, r4
 c104afc:	eb0007b7 	bl	c1069e0 <__aeabi_uldivmod>
 c104b00:	e1a03000 	mov	r3, r0
 c104b04:	e1a04001 	mov	r4, r1
 c104b08:	e1a02003 	mov	r2, r3
 c104b0c:	e59f302c 	ldr	r3, [pc, #44]	; c104b40 <sw_delay_init+0xa8>
 c104b10:	e5832000 	str	r2, [r3]
 c104b14:	e59f3024 	ldr	r3, [pc, #36]	; c104b40 <sw_delay_init+0xa8>
 c104b18:	e5932000 	ldr	r2, [r3]
 c104b1c:	e59f3020 	ldr	r3, [pc, #32]	; c104b44 <sw_delay_init+0xac>
 c104b20:	e0831392 	umull	r1, r3, r2, r3
 c104b24:	e1a02323 	lsr	r2, r3, #6
 c104b28:	e59f3018 	ldr	r3, [pc, #24]	; c104b48 <sw_delay_init+0xb0>
 c104b2c:	e5832000 	str	r2, [r3]
 c104b30:	e24bd010 	sub	sp, fp, #16
 c104b34:	e89d6810 	ldm	sp, {r4, fp, sp, lr}
 c104b38:	e12fff1e 	bx	lr
 c104b3c:	000f4240 	.word	0x000f4240
 c104b40:	0c112288 	.word	0x0c112288
 c104b44:	10624dd3 	.word	0x10624dd3
 c104b48:	0c112284 	.word	0x0c112284

0c104b4c <timer3_delay_ms>:
 c104b4c:	e1a0c00d 	mov	ip, sp
 c104b50:	e92dd800 	push	{fp, ip, lr, pc}
 c104b54:	e24cb004 	sub	fp, ip, #4
 c104b58:	e24dd008 	sub	sp, sp, #8
 c104b5c:	e1a03000 	mov	r3, r0
 c104b60:	e14b30be 	strh	r3, [fp, #-14]
 c104b64:	ea00002b 	b	c104c18 <timer3_delay_ms+0xcc>
 c104b68:	e59f30c0 	ldr	r3, [pc, #192]	; c104c30 <timer3_delay_ms+0xe4>
 c104b6c:	e59f20bc 	ldr	r2, [pc, #188]	; c104c30 <timer3_delay_ms+0xe4>
 c104b70:	e5922000 	ldr	r2, [r2]
 c104b74:	e3c22cff 	bic	r2, r2, #65280	; 0xff00
 c104b78:	e5832000 	str	r2, [r3]
 c104b7c:	e59f30b0 	ldr	r3, [pc, #176]	; c104c34 <timer3_delay_ms+0xe8>
 c104b80:	e59f20ac 	ldr	r2, [pc, #172]	; c104c34 <timer3_delay_ms+0xe8>
 c104b84:	e5922000 	ldr	r2, [r2]
 c104b88:	e3c22a0f 	bic	r2, r2, #61440	; 0xf000
 c104b8c:	e5832000 	str	r2, [r3]
 c104b90:	e59f30a0 	ldr	r3, [pc, #160]	; c104c38 <timer3_delay_ms+0xec>
 c104b94:	e59f20a0 	ldr	r2, [pc, #160]	; c104c3c <timer3_delay_ms+0xf0>
 c104b98:	e5921000 	ldr	r1, [r2]
 c104b9c:	e59f209c 	ldr	r2, [pc, #156]	; c104c40 <timer3_delay_ms+0xf4>
 c104ba0:	e0820291 	umull	r0, r2, r1, r2
 c104ba4:	e1a023a2 	lsr	r2, r2, #7
 c104ba8:	e1a02802 	lsl	r2, r2, #16
 c104bac:	e1a02822 	lsr	r2, r2, #16
 c104bb0:	e5832000 	str	r2, [r3]
 c104bb4:	e59f3088 	ldr	r3, [pc, #136]	; c104c44 <timer3_delay_ms+0xf8>
 c104bb8:	e59f2084 	ldr	r2, [pc, #132]	; c104c44 <timer3_delay_ms+0xf8>
 c104bbc:	e5922000 	ldr	r2, [r2]
 c104bc0:	e3c2280f 	bic	r2, r2, #983040	; 0xf0000
 c104bc4:	e3822802 	orr	r2, r2, #131072	; 0x20000
 c104bc8:	e5832000 	str	r2, [r3]
 c104bcc:	e59f3070 	ldr	r3, [pc, #112]	; c104c44 <timer3_delay_ms+0xf8>
 c104bd0:	e59f206c 	ldr	r2, [pc, #108]	; c104c44 <timer3_delay_ms+0xf8>
 c104bd4:	e5922000 	ldr	r2, [r2]
 c104bd8:	e3c2280f 	bic	r2, r2, #983040	; 0xf0000
 c104bdc:	e3822801 	orr	r2, r2, #65536	; 0x10000
 c104be0:	e5832000 	str	r2, [r3]
 c104be4:	e1a00000 	nop			; (mov r0, r0)
 c104be8:	e59f3058 	ldr	r3, [pc, #88]	; c104c48 <timer3_delay_ms+0xfc>
 c104bec:	e5933000 	ldr	r3, [r3]
 c104bf0:	e3530000 	cmp	r3, #0
 c104bf4:	0afffffb 	beq	c104be8 <timer3_delay_ms+0x9c>
 c104bf8:	e1a00000 	nop			; (mov r0, r0)
 c104bfc:	e59f3044 	ldr	r3, [pc, #68]	; c104c48 <timer3_delay_ms+0xfc>
 c104c00:	e5933000 	ldr	r3, [r3]
 c104c04:	e3530000 	cmp	r3, #0
 c104c08:	1afffffb 	bne	c104bfc <timer3_delay_ms+0xb0>
 c104c0c:	e15b30be 	ldrh	r3, [fp, #-14]
 c104c10:	e2433001 	sub	r3, r3, #1
 c104c14:	e14b30be 	strh	r3, [fp, #-14]
 c104c18:	e15b30be 	ldrh	r3, [fp, #-14]
 c104c1c:	e3530000 	cmp	r3, #0
 c104c20:	1affffd0 	bne	c104b68 <timer3_delay_ms+0x1c>
 c104c24:	e24bd00c 	sub	sp, fp, #12
 c104c28:	e89d6800 	ldm	sp, {fp, sp, lr}
 c104c2c:	e12fff1e 	bx	lr
 c104c30:	01d50000 	.word	0x01d50000
 c104c34:	01d50004 	.word	0x01d50004
 c104c38:	01d50030 	.word	0x01d50030
 c104c3c:	0c108b94 	.word	0x0c108b94
 c104c40:	10624dd3 	.word	0x10624dd3
 c104c44:	01d50008 	.word	0x01d50008
 c104c48:	01d50038 	.word	0x01d50038

0c104c4c <sw_delay_ms>:
 c104c4c:	e1a0c00d 	mov	ip, sp
 c104c50:	e92dd800 	push	{fp, ip, lr, pc}
 c104c54:	e24cb004 	sub	fp, ip, #4
 c104c58:	e24dd010 	sub	sp, sp, #16
 c104c5c:	e1a03000 	mov	r3, r0
 c104c60:	e14b31b6 	strh	r3, [fp, #-22]	; 0xffffffea
 c104c64:	e15b31b6 	ldrh	r3, [fp, #-22]	; 0xffffffea
 c104c68:	e59f2030 	ldr	r2, [pc, #48]	; c104ca0 <sw_delay_ms+0x54>
 c104c6c:	e5922000 	ldr	r2, [r2]
 c104c70:	e0030392 	mul	r3, r2, r3
 c104c74:	e50b3010 	str	r3, [fp, #-16]
 c104c78:	ea000002 	b	c104c88 <sw_delay_ms+0x3c>
 c104c7c:	e51b3010 	ldr	r3, [fp, #-16]
 c104c80:	e2433001 	sub	r3, r3, #1
 c104c84:	e50b3010 	str	r3, [fp, #-16]
 c104c88:	e51b3010 	ldr	r3, [fp, #-16]
 c104c8c:	e3530000 	cmp	r3, #0
 c104c90:	1afffff9 	bne	c104c7c <sw_delay_ms+0x30>
 c104c94:	e24bd00c 	sub	sp, fp, #12
 c104c98:	e89d6800 	ldm	sp, {fp, sp, lr}
 c104c9c:	e12fff1e 	bx	lr
 c104ca0:	0c112284 	.word	0x0c112284

0c104ca4 <timer3_delay_s>:
 c104ca4:	e1a0c00d 	mov	ip, sp
 c104ca8:	e92dd800 	push	{fp, ip, lr, pc}
 c104cac:	e24cb004 	sub	fp, ip, #4
 c104cb0:	e24dd008 	sub	sp, sp, #8
 c104cb4:	e1a03000 	mov	r3, r0
 c104cb8:	e14b30be 	strh	r3, [fp, #-14]
 c104cbc:	ea00002b 	b	c104d70 <timer3_delay_s+0xcc>
 c104cc0:	e59f30c0 	ldr	r3, [pc, #192]	; c104d88 <timer3_delay_s+0xe4>
 c104cc4:	e59f20bc 	ldr	r2, [pc, #188]	; c104d88 <timer3_delay_s+0xe4>
 c104cc8:	e5922000 	ldr	r2, [r2]
 c104ccc:	e3c22cff 	bic	r2, r2, #65280	; 0xff00
 c104cd0:	e3822c3f 	orr	r2, r2, #16128	; 0x3f00
 c104cd4:	e5832000 	str	r2, [r3]
 c104cd8:	e59f30ac 	ldr	r3, [pc, #172]	; c104d8c <timer3_delay_s+0xe8>
 c104cdc:	e59f20a8 	ldr	r2, [pc, #168]	; c104d8c <timer3_delay_s+0xe8>
 c104ce0:	e5922000 	ldr	r2, [r2]
 c104ce4:	e3c22a0f 	bic	r2, r2, #61440	; 0xf000
 c104ce8:	e3822901 	orr	r2, r2, #16384	; 0x4000
 c104cec:	e5832000 	str	r2, [r3]
 c104cf0:	e59f3098 	ldr	r3, [pc, #152]	; c104d90 <timer3_delay_s+0xec>
 c104cf4:	e59f2098 	ldr	r2, [pc, #152]	; c104d94 <timer3_delay_s+0xf0>
 c104cf8:	e5922000 	ldr	r2, [r2]
 c104cfc:	e1a025a2 	lsr	r2, r2, #11
 c104d00:	e1a02802 	lsl	r2, r2, #16
 c104d04:	e1a02822 	lsr	r2, r2, #16
 c104d08:	e5832000 	str	r2, [r3]
 c104d0c:	e59f3084 	ldr	r3, [pc, #132]	; c104d98 <timer3_delay_s+0xf4>
 c104d10:	e59f2080 	ldr	r2, [pc, #128]	; c104d98 <timer3_delay_s+0xf4>
 c104d14:	e5922000 	ldr	r2, [r2]
 c104d18:	e3c2280f 	bic	r2, r2, #983040	; 0xf0000
 c104d1c:	e3822802 	orr	r2, r2, #131072	; 0x20000
 c104d20:	e5832000 	str	r2, [r3]
 c104d24:	e59f306c 	ldr	r3, [pc, #108]	; c104d98 <timer3_delay_s+0xf4>
 c104d28:	e59f2068 	ldr	r2, [pc, #104]	; c104d98 <timer3_delay_s+0xf4>
 c104d2c:	e5922000 	ldr	r2, [r2]
 c104d30:	e3c2280f 	bic	r2, r2, #983040	; 0xf0000
 c104d34:	e3822801 	orr	r2, r2, #65536	; 0x10000
 c104d38:	e5832000 	str	r2, [r3]
 c104d3c:	e1a00000 	nop			; (mov r0, r0)
 c104d40:	e59f3054 	ldr	r3, [pc, #84]	; c104d9c <timer3_delay_s+0xf8>
 c104d44:	e5933000 	ldr	r3, [r3]
 c104d48:	e3530000 	cmp	r3, #0
 c104d4c:	0afffffb 	beq	c104d40 <timer3_delay_s+0x9c>
 c104d50:	e1a00000 	nop			; (mov r0, r0)
 c104d54:	e59f3040 	ldr	r3, [pc, #64]	; c104d9c <timer3_delay_s+0xf8>
 c104d58:	e5933000 	ldr	r3, [r3]
 c104d5c:	e3530000 	cmp	r3, #0
 c104d60:	1afffffb 	bne	c104d54 <timer3_delay_s+0xb0>
 c104d64:	e15b30be 	ldrh	r3, [fp, #-14]
 c104d68:	e2433001 	sub	r3, r3, #1
 c104d6c:	e14b30be 	strh	r3, [fp, #-14]
 c104d70:	e15b30be 	ldrh	r3, [fp, #-14]
 c104d74:	e3530000 	cmp	r3, #0
 c104d78:	1affffd0 	bne	c104cc0 <timer3_delay_s+0x1c>
 c104d7c:	e24bd00c 	sub	sp, fp, #12
 c104d80:	e89d6800 	ldm	sp, {fp, sp, lr}
 c104d84:	e12fff1e 	bx	lr
 c104d88:	01d50000 	.word	0x01d50000
 c104d8c:	01d50004 	.word	0x01d50004
 c104d90:	01d50030 	.word	0x01d50030
 c104d94:	0c108b94 	.word	0x0c108b94
 c104d98:	01d50008 	.word	0x01d50008
 c104d9c:	01d50038 	.word	0x01d50038

0c104da0 <sw_delay_s>:
 c104da0:	e1a0c00d 	mov	ip, sp
 c104da4:	e92dd800 	push	{fp, ip, lr, pc}
 c104da8:	e24cb004 	sub	fp, ip, #4
 c104dac:	e24dd010 	sub	sp, sp, #16
 c104db0:	e1a03000 	mov	r3, r0
 c104db4:	e14b31b6 	strh	r3, [fp, #-22]	; 0xffffffea
 c104db8:	e15b31b6 	ldrh	r3, [fp, #-22]	; 0xffffffea
 c104dbc:	e59f2030 	ldr	r2, [pc, #48]	; c104df4 <sw_delay_s+0x54>
 c104dc0:	e5922000 	ldr	r2, [r2]
 c104dc4:	e0030392 	mul	r3, r2, r3
 c104dc8:	e50b3010 	str	r3, [fp, #-16]
 c104dcc:	ea000002 	b	c104ddc <sw_delay_s+0x3c>
 c104dd0:	e51b3010 	ldr	r3, [fp, #-16]
 c104dd4:	e2433001 	sub	r3, r3, #1
 c104dd8:	e50b3010 	str	r3, [fp, #-16]
 c104ddc:	e51b3010 	ldr	r3, [fp, #-16]
 c104de0:	e3530000 	cmp	r3, #0
 c104de4:	1afffff9 	bne	c104dd0 <sw_delay_s+0x30>
 c104de8:	e24bd00c 	sub	sp, fp, #12
 c104dec:	e89d6800 	ldm	sp, {fp, sp, lr}
 c104df0:	e12fff1e 	bx	lr
 c104df4:	0c112288 	.word	0x0c112288

0c104df8 <timer3_start>:
 c104df8:	e1a0c00d 	mov	ip, sp
 c104dfc:	e92dd800 	push	{fp, ip, lr, pc}
 c104e00:	e24cb004 	sub	fp, ip, #4
 c104e04:	e59f30a8 	ldr	r3, [pc, #168]	; c104eb4 <timer3_start+0xbc>
 c104e08:	e59f20a4 	ldr	r2, [pc, #164]	; c104eb4 <timer3_start+0xbc>
 c104e0c:	e5922000 	ldr	r2, [r2]
 c104e10:	e3c21cff 	bic	r1, r2, #65280	; 0xff00
 c104e14:	e59f209c 	ldr	r2, [pc, #156]	; c104eb8 <timer3_start+0xc0>
 c104e18:	e5920000 	ldr	r0, [r2]
 c104e1c:	e59f2098 	ldr	r2, [pc, #152]	; c104ebc <timer3_start+0xc4>
 c104e20:	e082c290 	umull	ip, r2, r0, r2
 c104e24:	e1a02922 	lsr	r2, r2, #18
 c104e28:	e20220ff 	and	r2, r2, #255	; 0xff
 c104e2c:	e2422001 	sub	r2, r2, #1
 c104e30:	e20220ff 	and	r2, r2, #255	; 0xff
 c104e34:	e1a02402 	lsl	r2, r2, #8
 c104e38:	e1812002 	orr	r2, r1, r2
 c104e3c:	e5832000 	str	r2, [r3]
 c104e40:	e59f3078 	ldr	r3, [pc, #120]	; c104ec0 <timer3_start+0xc8>
 c104e44:	e59f2074 	ldr	r2, [pc, #116]	; c104ec0 <timer3_start+0xc8>
 c104e48:	e5922000 	ldr	r2, [r2]
 c104e4c:	e3c22a0f 	bic	r2, r2, #61440	; 0xf000
 c104e50:	e3822901 	orr	r2, r2, #16384	; 0x4000
 c104e54:	e5832000 	str	r2, [r3]
 c104e58:	e59f3064 	ldr	r3, [pc, #100]	; c104ec4 <timer3_start+0xcc>
 c104e5c:	e59f2064 	ldr	r2, [pc, #100]	; c104ec8 <timer3_start+0xd0>
 c104e60:	e5832000 	str	r2, [r3]
 c104e64:	e59f3060 	ldr	r3, [pc, #96]	; c104ecc <timer3_start+0xd4>
 c104e68:	e59f205c 	ldr	r2, [pc, #92]	; c104ecc <timer3_start+0xd4>
 c104e6c:	e5922000 	ldr	r2, [r2]
 c104e70:	e3c2280f 	bic	r2, r2, #983040	; 0xf0000
 c104e74:	e3822802 	orr	r2, r2, #131072	; 0x20000
 c104e78:	e5832000 	str	r2, [r3]
 c104e7c:	e59f3048 	ldr	r3, [pc, #72]	; c104ecc <timer3_start+0xd4>
 c104e80:	e59f2044 	ldr	r2, [pc, #68]	; c104ecc <timer3_start+0xd4>
 c104e84:	e5922000 	ldr	r2, [r2]
 c104e88:	e3c2280f 	bic	r2, r2, #983040	; 0xf0000
 c104e8c:	e3822801 	orr	r2, r2, #65536	; 0x10000
 c104e90:	e5832000 	str	r2, [r3]
 c104e94:	e1a00000 	nop			; (mov r0, r0)
 c104e98:	e59f3030 	ldr	r3, [pc, #48]	; c104ed0 <timer3_start+0xd8>
 c104e9c:	e5933000 	ldr	r3, [r3]
 c104ea0:	e3530000 	cmp	r3, #0
 c104ea4:	0afffffb 	beq	c104e98 <timer3_start+0xa0>
 c104ea8:	e24bd00c 	sub	sp, fp, #12
 c104eac:	e89d6800 	ldm	sp, {fp, sp, lr}
 c104eb0:	e12fff1e 	bx	lr
 c104eb4:	01d50000 	.word	0x01d50000
 c104eb8:	0c108b94 	.word	0x0c108b94
 c104ebc:	d1b71759 	.word	0xd1b71759
 c104ec0:	01d50004 	.word	0x01d50004
 c104ec4:	01d50030 	.word	0x01d50030
 c104ec8:	0000ffff 	.word	0x0000ffff
 c104ecc:	01d50008 	.word	0x01d50008
 c104ed0:	01d50038 	.word	0x01d50038

0c104ed4 <timer3_stop>:
 c104ed4:	e1a0c00d 	mov	ip, sp
 c104ed8:	e92dd800 	push	{fp, ip, lr, pc}
 c104edc:	e24cb004 	sub	fp, ip, #4
 c104ee0:	e59f3038 	ldr	r3, [pc, #56]	; c104f20 <timer3_stop+0x4c>
 c104ee4:	e59f2034 	ldr	r2, [pc, #52]	; c104f20 <timer3_stop+0x4c>
 c104ee8:	e5922000 	ldr	r2, [r2]
 c104eec:	e3c22801 	bic	r2, r2, #65536	; 0x10000
 c104ef0:	e5832000 	str	r2, [r3]
 c104ef4:	e59f3028 	ldr	r3, [pc, #40]	; c104f24 <timer3_stop+0x50>
 c104ef8:	e5933000 	ldr	r3, [r3]
 c104efc:	e1a03803 	lsl	r3, r3, #16
 c104f00:	e1a03823 	lsr	r3, r3, #16
 c104f04:	e1e03003 	mvn	r3, r3
 c104f08:	e1a03803 	lsl	r3, r3, #16
 c104f0c:	e1a03823 	lsr	r3, r3, #16
 c104f10:	e1a00003 	mov	r0, r3
 c104f14:	e24bd00c 	sub	sp, fp, #12
 c104f18:	e89d6800 	ldm	sp, {fp, sp, lr}
 c104f1c:	e12fff1e 	bx	lr
 c104f20:	01d50008 	.word	0x01d50008
 c104f24:	01d50038 	.word	0x01d50038

0c104f28 <timer3_start_timeout>:
 c104f28:	e1a0c00d 	mov	ip, sp
 c104f2c:	e92dd800 	push	{fp, ip, lr, pc}
 c104f30:	e24cb004 	sub	fp, ip, #4
 c104f34:	e24dd008 	sub	sp, sp, #8
 c104f38:	e1a03000 	mov	r3, r0
 c104f3c:	e14b30be 	strh	r3, [fp, #-14]
 c104f40:	e59f30a8 	ldr	r3, [pc, #168]	; c104ff0 <timer3_start_timeout+0xc8>
 c104f44:	e59f20a4 	ldr	r2, [pc, #164]	; c104ff0 <timer3_start_timeout+0xc8>
 c104f48:	e5922000 	ldr	r2, [r2]
 c104f4c:	e3c21cff 	bic	r1, r2, #65280	; 0xff00
 c104f50:	e59f209c 	ldr	r2, [pc, #156]	; c104ff4 <timer3_start_timeout+0xcc>
 c104f54:	e5920000 	ldr	r0, [r2]
 c104f58:	e59f2098 	ldr	r2, [pc, #152]	; c104ff8 <timer3_start_timeout+0xd0>
 c104f5c:	e082c290 	umull	ip, r2, r0, r2
 c104f60:	e1a02922 	lsr	r2, r2, #18
 c104f64:	e20220ff 	and	r2, r2, #255	; 0xff
 c104f68:	e2422001 	sub	r2, r2, #1
 c104f6c:	e20220ff 	and	r2, r2, #255	; 0xff
 c104f70:	e1a02402 	lsl	r2, r2, #8
 c104f74:	e1812002 	orr	r2, r1, r2
 c104f78:	e5832000 	str	r2, [r3]
 c104f7c:	e59f3078 	ldr	r3, [pc, #120]	; c104ffc <timer3_start_timeout+0xd4>
 c104f80:	e59f2074 	ldr	r2, [pc, #116]	; c104ffc <timer3_start_timeout+0xd4>
 c104f84:	e5922000 	ldr	r2, [r2]
 c104f88:	e3c22a0f 	bic	r2, r2, #61440	; 0xf000
 c104f8c:	e3822901 	orr	r2, r2, #16384	; 0x4000
 c104f90:	e5832000 	str	r2, [r3]
 c104f94:	e59f3064 	ldr	r3, [pc, #100]	; c105000 <timer3_start_timeout+0xd8>
 c104f98:	e15b20be 	ldrh	r2, [fp, #-14]
 c104f9c:	e5832000 	str	r2, [r3]
 c104fa0:	e59f305c 	ldr	r3, [pc, #92]	; c105004 <timer3_start_timeout+0xdc>
 c104fa4:	e59f2058 	ldr	r2, [pc, #88]	; c105004 <timer3_start_timeout+0xdc>
 c104fa8:	e5922000 	ldr	r2, [r2]
 c104fac:	e3c2280f 	bic	r2, r2, #983040	; 0xf0000
 c104fb0:	e3822802 	orr	r2, r2, #131072	; 0x20000
 c104fb4:	e5832000 	str	r2, [r3]
 c104fb8:	e59f3044 	ldr	r3, [pc, #68]	; c105004 <timer3_start_timeout+0xdc>
 c104fbc:	e59f2040 	ldr	r2, [pc, #64]	; c105004 <timer3_start_timeout+0xdc>
 c104fc0:	e5922000 	ldr	r2, [r2]
 c104fc4:	e3c2280f 	bic	r2, r2, #983040	; 0xf0000
 c104fc8:	e3822801 	orr	r2, r2, #65536	; 0x10000
 c104fcc:	e5832000 	str	r2, [r3]
 c104fd0:	e1a00000 	nop			; (mov r0, r0)
 c104fd4:	e59f302c 	ldr	r3, [pc, #44]	; c105008 <timer3_start_timeout+0xe0>
 c104fd8:	e5933000 	ldr	r3, [r3]
 c104fdc:	e3530000 	cmp	r3, #0
 c104fe0:	0afffffb 	beq	c104fd4 <timer3_start_timeout+0xac>
 c104fe4:	e24bd00c 	sub	sp, fp, #12
 c104fe8:	e89d6800 	ldm	sp, {fp, sp, lr}
 c104fec:	e12fff1e 	bx	lr
 c104ff0:	01d50000 	.word	0x01d50000
 c104ff4:	0c108b94 	.word	0x0c108b94
 c104ff8:	d1b71759 	.word	0xd1b71759
 c104ffc:	01d50004 	.word	0x01d50004
 c105000:	01d50030 	.word	0x01d50030
 c105004:	01d50008 	.word	0x01d50008
 c105008:	01d50038 	.word	0x01d50038

0c10500c <timer3_timeout>:
 c10500c:	e1a0c00d 	mov	ip, sp
 c105010:	e92dd800 	push	{fp, ip, lr, pc}
 c105014:	e24cb004 	sub	fp, ip, #4
 c105018:	e59f3024 	ldr	r3, [pc, #36]	; c105044 <timer3_timeout+0x38>
 c10501c:	e5933000 	ldr	r3, [r3]
 c105020:	e3530000 	cmp	r3, #0
 c105024:	13a03000 	movne	r3, #0
 c105028:	03a03001 	moveq	r3, #1
 c10502c:	e1a03803 	lsl	r3, r3, #16
 c105030:	e1a03823 	lsr	r3, r3, #16
 c105034:	e1a00003 	mov	r0, r3
 c105038:	e24bd00c 	sub	sp, fp, #12
 c10503c:	e89d6800 	ldm	sp, {fp, sp, lr}
 c105040:	e12fff1e 	bx	lr
 c105044:	01d50038 	.word	0x01d50038

0c105048 <timer0_open_tick>:
 c105048:	e1a0c00d 	mov	ip, sp
 c10504c:	e92dd810 	push	{r4, fp, ip, lr, pc}
 c105050:	e24cb004 	sub	fp, ip, #4
 c105054:	e24dd00c 	sub	sp, sp, #12
 c105058:	e50b0018 	str	r0, [fp, #-24]	; 0xffffffe8
 c10505c:	e1a03001 	mov	r3, r1
 c105060:	e14b31ba 	strh	r3, [fp, #-26]	; 0xffffffe6
 c105064:	e59f3204 	ldr	r3, [pc, #516]	; c105270 <timer0_open_tick+0x228>
 c105068:	e59f2200 	ldr	r2, [pc, #512]	; c105270 <timer0_open_tick+0x228>
 c10506c:	e5922000 	ldr	r2, [r2]
 c105070:	e3822088 	orr	r2, r2, #136	; 0x88
 c105074:	e5832000 	str	r2, [r3]
 c105078:	e59f31f4 	ldr	r3, [pc, #500]	; c105274 <timer0_open_tick+0x22c>
 c10507c:	e51b2018 	ldr	r2, [fp, #-24]	; 0xffffffe8
 c105080:	e5832000 	str	r2, [r3]
 c105084:	e59f31ec 	ldr	r3, [pc, #492]	; c105278 <timer0_open_tick+0x230>
 c105088:	e3a02a02 	mov	r2, #8192	; 0x2000
 c10508c:	e5832000 	str	r2, [r3]
 c105090:	e59f21e4 	ldr	r2, [pc, #484]	; c10527c <timer0_open_tick+0x234>
 c105094:	e59f31e0 	ldr	r3, [pc, #480]	; c10527c <timer0_open_tick+0x234>
 c105098:	e5933000 	ldr	r3, [r3]
 c10509c:	e3c33301 	bic	r3, r3, #67108864	; 0x4000000
 c1050a0:	e3c33a02 	bic	r3, r3, #8192	; 0x2000
 c1050a4:	e5823000 	str	r3, [r2]
 c1050a8:	e15b31ba 	ldrh	r3, [fp, #-26]	; 0xffffffe6
 c1050ac:	e3530000 	cmp	r3, #0
 c1050b0:	0a000018 	beq	c105118 <timer0_open_tick+0xd0>
 c1050b4:	e15b31ba 	ldrh	r3, [fp, #-26]	; 0xffffffe6
 c1050b8:	e353000a 	cmp	r3, #10
 c1050bc:	8a000015 	bhi	c105118 <timer0_open_tick+0xd0>
 c1050c0:	e59f31b8 	ldr	r3, [pc, #440]	; c105280 <timer0_open_tick+0x238>
 c1050c4:	e59f21b4 	ldr	r2, [pc, #436]	; c105280 <timer0_open_tick+0x238>
 c1050c8:	e5922000 	ldr	r2, [r2]
 c1050cc:	e3c220ff 	bic	r2, r2, #255	; 0xff
 c1050d0:	e3822031 	orr	r2, r2, #49	; 0x31
 c1050d4:	e5832000 	str	r2, [r3]
 c1050d8:	e59f31a4 	ldr	r3, [pc, #420]	; c105284 <timer0_open_tick+0x23c>
 c1050dc:	e59f21a0 	ldr	r2, [pc, #416]	; c105284 <timer0_open_tick+0x23c>
 c1050e0:	e5922000 	ldr	r2, [r2]
 c1050e4:	e3c2200f 	bic	r2, r2, #15
 c1050e8:	e3822004 	orr	r2, r2, #4
 c1050ec:	e5832000 	str	r2, [r3]
 c1050f0:	e59f4190 	ldr	r4, [pc, #400]	; c105288 <timer0_open_tick+0x240>
 c1050f4:	e15b31ba 	ldrh	r3, [fp, #-26]	; 0xffffffe6
 c1050f8:	e59f018c 	ldr	r0, [pc, #396]	; c10528c <timer0_open_tick+0x244>
 c1050fc:	e1a01003 	mov	r1, r3
 c105100:	eb00059e 	bl	c106780 <__aeabi_uidiv>
 c105104:	e1a03000 	mov	r3, r0
 c105108:	e1a03803 	lsl	r3, r3, #16
 c10510c:	e1a03823 	lsr	r3, r3, #16
 c105110:	e5843000 	str	r3, [r4]
 c105114:	ea000046 	b	c105234 <timer0_open_tick+0x1ec>
 c105118:	e15b31ba 	ldrh	r3, [fp, #-26]	; 0xffffffe6
 c10511c:	e353000a 	cmp	r3, #10
 c105120:	9a000016 	bls	c105180 <timer0_open_tick+0x138>
 c105124:	e15b31ba 	ldrh	r3, [fp, #-26]	; 0xffffffe6
 c105128:	e3530064 	cmp	r3, #100	; 0x64
 c10512c:	8a000013 	bhi	c105180 <timer0_open_tick+0x138>
 c105130:	e59f3148 	ldr	r3, [pc, #328]	; c105280 <timer0_open_tick+0x238>
 c105134:	e59f2144 	ldr	r2, [pc, #324]	; c105280 <timer0_open_tick+0x238>
 c105138:	e5922000 	ldr	r2, [r2]
 c10513c:	e3c220ff 	bic	r2, r2, #255	; 0xff
 c105140:	e3822004 	orr	r2, r2, #4
 c105144:	e5832000 	str	r2, [r3]
 c105148:	e59f3134 	ldr	r3, [pc, #308]	; c105284 <timer0_open_tick+0x23c>
 c10514c:	e59f2130 	ldr	r2, [pc, #304]	; c105284 <timer0_open_tick+0x23c>
 c105150:	e5922000 	ldr	r2, [r2]
 c105154:	e3c2200f 	bic	r2, r2, #15
 c105158:	e3822004 	orr	r2, r2, #4
 c10515c:	e5832000 	str	r2, [r3]
 c105160:	e59f4120 	ldr	r4, [pc, #288]	; c105288 <timer0_open_tick+0x240>
 c105164:	e15b31ba 	ldrh	r3, [fp, #-26]	; 0xffffffe6
 c105168:	e59f0120 	ldr	r0, [pc, #288]	; c105290 <timer0_open_tick+0x248>
 c10516c:	e1a01003 	mov	r1, r3
 c105170:	eb000582 	bl	c106780 <__aeabi_uidiv>
 c105174:	e1a03000 	mov	r3, r0
 c105178:	e5843000 	str	r3, [r4]
 c10517c:	ea00002c 	b	c105234 <timer0_open_tick+0x1ec>
 c105180:	e15b31ba 	ldrh	r3, [fp, #-26]	; 0xffffffe6
 c105184:	e3530064 	cmp	r3, #100	; 0x64
 c105188:	9a000015 	bls	c1051e4 <timer0_open_tick+0x19c>
 c10518c:	e15b31ba 	ldrh	r3, [fp, #-26]	; 0xffffffe6
 c105190:	e3530ffa 	cmp	r3, #1000	; 0x3e8
 c105194:	8a000012 	bhi	c1051e4 <timer0_open_tick+0x19c>
 c105198:	e59f30e0 	ldr	r3, [pc, #224]	; c105280 <timer0_open_tick+0x238>
 c10519c:	e59f20dc 	ldr	r2, [pc, #220]	; c105280 <timer0_open_tick+0x238>
 c1051a0:	e5922000 	ldr	r2, [r2]
 c1051a4:	e3c220ff 	bic	r2, r2, #255	; 0xff
 c1051a8:	e5832000 	str	r2, [r3]
 c1051ac:	e59f30d0 	ldr	r3, [pc, #208]	; c105284 <timer0_open_tick+0x23c>
 c1051b0:	e59f20cc 	ldr	r2, [pc, #204]	; c105284 <timer0_open_tick+0x23c>
 c1051b4:	e5922000 	ldr	r2, [r2]
 c1051b8:	e3c2200f 	bic	r2, r2, #15
 c1051bc:	e3822003 	orr	r2, r2, #3
 c1051c0:	e5832000 	str	r2, [r3]
 c1051c4:	e59f40bc 	ldr	r4, [pc, #188]	; c105288 <timer0_open_tick+0x240>
 c1051c8:	e15b31ba 	ldrh	r3, [fp, #-26]	; 0xffffffe6
 c1051cc:	e59f00c0 	ldr	r0, [pc, #192]	; c105294 <timer0_open_tick+0x24c>
 c1051d0:	e1a01003 	mov	r1, r3
 c1051d4:	eb000569 	bl	c106780 <__aeabi_uidiv>
 c1051d8:	e1a03000 	mov	r3, r0
 c1051dc:	e5843000 	str	r3, [r4]
 c1051e0:	ea000013 	b	c105234 <timer0_open_tick+0x1ec>
 c1051e4:	e15b31ba 	ldrh	r3, [fp, #-26]	; 0xffffffe6
 c1051e8:	e3530ffa 	cmp	r3, #1000	; 0x3e8
 c1051ec:	9a000010 	bls	c105234 <timer0_open_tick+0x1ec>
 c1051f0:	e59f3088 	ldr	r3, [pc, #136]	; c105280 <timer0_open_tick+0x238>
 c1051f4:	e59f2084 	ldr	r2, [pc, #132]	; c105280 <timer0_open_tick+0x238>
 c1051f8:	e5922000 	ldr	r2, [r2]
 c1051fc:	e3c220ff 	bic	r2, r2, #255	; 0xff
 c105200:	e5832000 	str	r2, [r3]
 c105204:	e59f3078 	ldr	r3, [pc, #120]	; c105284 <timer0_open_tick+0x23c>
 c105208:	e59f2074 	ldr	r2, [pc, #116]	; c105284 <timer0_open_tick+0x23c>
 c10520c:	e5922000 	ldr	r2, [r2]
 c105210:	e3c2200f 	bic	r2, r2, #15
 c105214:	e5832000 	str	r2, [r3]
 c105218:	e59f4068 	ldr	r4, [pc, #104]	; c105288 <timer0_open_tick+0x240>
 c10521c:	e15b31ba 	ldrh	r3, [fp, #-26]	; 0xffffffe6
 c105220:	e59f0070 	ldr	r0, [pc, #112]	; c105298 <timer0_open_tick+0x250>
 c105224:	e1a01003 	mov	r1, r3
 c105228:	eb000554 	bl	c106780 <__aeabi_uidiv>
 c10522c:	e1a03000 	mov	r3, r0
 c105230:	e5843000 	str	r3, [r4]
 c105234:	e59f3060 	ldr	r3, [pc, #96]	; c10529c <timer0_open_tick+0x254>
 c105238:	e59f205c 	ldr	r2, [pc, #92]	; c10529c <timer0_open_tick+0x254>
 c10523c:	e5922000 	ldr	r2, [r2]
 c105240:	e3c2200f 	bic	r2, r2, #15
 c105244:	e382200a 	orr	r2, r2, #10
 c105248:	e5832000 	str	r2, [r3]
 c10524c:	e59f3048 	ldr	r3, [pc, #72]	; c10529c <timer0_open_tick+0x254>
 c105250:	e59f2044 	ldr	r2, [pc, #68]	; c10529c <timer0_open_tick+0x254>
 c105254:	e5922000 	ldr	r2, [r2]
 c105258:	e3c2200f 	bic	r2, r2, #15
 c10525c:	e3822009 	orr	r2, r2, #9
 c105260:	e5832000 	str	r2, [r3]
 c105264:	e24bd010 	sub	sp, fp, #16
 c105268:	e89d6810 	ldm	sp, {r4, fp, sp, lr}
 c10526c:	e12fff1e 	bx	lr
 c105270:	01d80004 	.word	0x01d80004
 c105274:	0c7fff54 	.word	0x0c7fff54
 c105278:	01e00024 	.word	0x01e00024
 c10527c:	01e0000c 	.word	0x01e0000c
 c105280:	01d50000 	.word	0x01d50000
 c105284:	01d50004 	.word	0x01d50004
 c105288:	01d5000c 	.word	0x01d5000c
 c10528c:	00009c40 	.word	0x00009c40
 c105290:	00061a80 	.word	0x00061a80
 c105294:	003d0900 	.word	0x003d0900
 c105298:	01e84800 	.word	0x01e84800
 c10529c:	01d50008 	.word	0x01d50008

0c1052a0 <timer0_open_ms>:
 c1052a0:	e1a0c00d 	mov	ip, sp
 c1052a4:	e92dd800 	push	{fp, ip, lr, pc}
 c1052a8:	e24cb004 	sub	fp, ip, #4
 c1052ac:	e24dd008 	sub	sp, sp, #8
 c1052b0:	e50b0010 	str	r0, [fp, #-16]
 c1052b4:	e1a03002 	mov	r3, r2
 c1052b8:	e14b11b2 	strh	r1, [fp, #-18]	; 0xffffffee
 c1052bc:	e54b3013 	strb	r3, [fp, #-19]	; 0xffffffed
 c1052c0:	e59f30dc 	ldr	r3, [pc, #220]	; c1053a4 <timer0_open_ms+0x104>
 c1052c4:	e59f20d8 	ldr	r2, [pc, #216]	; c1053a4 <timer0_open_ms+0x104>
 c1052c8:	e5922000 	ldr	r2, [r2]
 c1052cc:	e3822088 	orr	r2, r2, #136	; 0x88
 c1052d0:	e5832000 	str	r2, [r3]
 c1052d4:	e59f30cc 	ldr	r3, [pc, #204]	; c1053a8 <timer0_open_ms+0x108>
 c1052d8:	e51b2010 	ldr	r2, [fp, #-16]
 c1052dc:	e5832000 	str	r2, [r3]
 c1052e0:	e59f30c4 	ldr	r3, [pc, #196]	; c1053ac <timer0_open_ms+0x10c>
 c1052e4:	e3a02a02 	mov	r2, #8192	; 0x2000
 c1052e8:	e5832000 	str	r2, [r3]
 c1052ec:	e59f20bc 	ldr	r2, [pc, #188]	; c1053b0 <timer0_open_ms+0x110>
 c1052f0:	e59f30b8 	ldr	r3, [pc, #184]	; c1053b0 <timer0_open_ms+0x110>
 c1052f4:	e5933000 	ldr	r3, [r3]
 c1052f8:	e3c33301 	bic	r3, r3, #67108864	; 0x4000000
 c1052fc:	e3c33a02 	bic	r3, r3, #8192	; 0x2000
 c105300:	e5823000 	str	r3, [r2]
 c105304:	e59f30a8 	ldr	r3, [pc, #168]	; c1053b4 <timer0_open_ms+0x114>
 c105308:	e59f20a4 	ldr	r2, [pc, #164]	; c1053b4 <timer0_open_ms+0x114>
 c10530c:	e5922000 	ldr	r2, [r2]
 c105310:	e3c220ff 	bic	r2, r2, #255	; 0xff
 c105314:	e38220c7 	orr	r2, r2, #199	; 0xc7
 c105318:	e5832000 	str	r2, [r3]
 c10531c:	e59f3094 	ldr	r3, [pc, #148]	; c1053b8 <timer0_open_ms+0x118>
 c105320:	e59f2090 	ldr	r2, [pc, #144]	; c1053b8 <timer0_open_ms+0x118>
 c105324:	e5922000 	ldr	r2, [r2]
 c105328:	e3c2200f 	bic	r2, r2, #15
 c10532c:	e3822004 	orr	r2, r2, #4
 c105330:	e5832000 	str	r2, [r3]
 c105334:	e59f1080 	ldr	r1, [pc, #128]	; c1053bc <timer0_open_ms+0x11c>
 c105338:	e15b21b2 	ldrh	r2, [fp, #-18]	; 0xffffffee
 c10533c:	e1a03002 	mov	r3, r2
 c105340:	e1a03103 	lsl	r3, r3, #2
 c105344:	e0833002 	add	r3, r3, r2
 c105348:	e1a03083 	lsl	r3, r3, #1
 c10534c:	e5813000 	str	r3, [r1]
 c105350:	e59f3068 	ldr	r3, [pc, #104]	; c1053c0 <timer0_open_ms+0x120>
 c105354:	e59f2064 	ldr	r2, [pc, #100]	; c1053c0 <timer0_open_ms+0x120>
 c105358:	e5922000 	ldr	r2, [r2]
 c10535c:	e3c2100f 	bic	r1, r2, #15
 c105360:	e55b2013 	ldrb	r2, [fp, #-19]	; 0xffffffed
 c105364:	e1a02182 	lsl	r2, r2, #3
 c105368:	e1812002 	orr	r2, r1, r2
 c10536c:	e3822002 	orr	r2, r2, #2
 c105370:	e5832000 	str	r2, [r3]
 c105374:	e59f3044 	ldr	r3, [pc, #68]	; c1053c0 <timer0_open_ms+0x120>
 c105378:	e59f2040 	ldr	r2, [pc, #64]	; c1053c0 <timer0_open_ms+0x120>
 c10537c:	e5922000 	ldr	r2, [r2]
 c105380:	e3c2100f 	bic	r1, r2, #15
 c105384:	e55b2013 	ldrb	r2, [fp, #-19]	; 0xffffffed
 c105388:	e1a02182 	lsl	r2, r2, #3
 c10538c:	e1812002 	orr	r2, r1, r2
 c105390:	e3822001 	orr	r2, r2, #1
 c105394:	e5832000 	str	r2, [r3]
 c105398:	e24bd00c 	sub	sp, fp, #12
 c10539c:	e89d6800 	ldm	sp, {fp, sp, lr}
 c1053a0:	e12fff1e 	bx	lr
 c1053a4:	01d80004 	.word	0x01d80004
 c1053a8:	0c7fff54 	.word	0x0c7fff54
 c1053ac:	01e00024 	.word	0x01e00024
 c1053b0:	01e0000c 	.word	0x01e0000c
 c1053b4:	01d50000 	.word	0x01d50000
 c1053b8:	01d50004 	.word	0x01d50004
 c1053bc:	01d5000c 	.word	0x01d5000c
 c1053c0:	01d50008 	.word	0x01d50008

0c1053c4 <timer0_close>:
 c1053c4:	e1a0c00d 	mov	ip, sp
 c1053c8:	e92dd800 	push	{fp, ip, lr, pc}
 c1053cc:	e24cb004 	sub	fp, ip, #4
 c1053d0:	e59f3068 	ldr	r3, [pc, #104]	; c105440 <timer0_close+0x7c>
 c1053d4:	e3a02000 	mov	r2, #0
 c1053d8:	e5832000 	str	r2, [r3]
 c1053dc:	e59f3060 	ldr	r3, [pc, #96]	; c105444 <timer0_close+0x80>
 c1053e0:	e3a02000 	mov	r2, #0
 c1053e4:	e5832000 	str	r2, [r3]
 c1053e8:	e59f3058 	ldr	r3, [pc, #88]	; c105448 <timer0_close+0x84>
 c1053ec:	e59f2054 	ldr	r2, [pc, #84]	; c105448 <timer0_close+0x84>
 c1053f0:	e5922000 	ldr	r2, [r2]
 c1053f4:	e3c2200f 	bic	r2, r2, #15
 c1053f8:	e3822002 	orr	r2, r2, #2
 c1053fc:	e5832000 	str	r2, [r3]
 c105400:	e59f3040 	ldr	r3, [pc, #64]	; c105448 <timer0_close+0x84>
 c105404:	e59f203c 	ldr	r2, [pc, #60]	; c105448 <timer0_close+0x84>
 c105408:	e5922000 	ldr	r2, [r2]
 c10540c:	e3c2200f 	bic	r2, r2, #15
 c105410:	e5832000 	str	r2, [r3]
 c105414:	e59f3030 	ldr	r3, [pc, #48]	; c10544c <timer0_close+0x88>
 c105418:	e59f202c 	ldr	r2, [pc, #44]	; c10544c <timer0_close+0x88>
 c10541c:	e5922000 	ldr	r2, [r2]
 c105420:	e3822a02 	orr	r2, r2, #8192	; 0x2000
 c105424:	e5832000 	str	r2, [r3]
 c105428:	e59f3020 	ldr	r3, [pc, #32]	; c105450 <timer0_close+0x8c>
 c10542c:	e59f2020 	ldr	r2, [pc, #32]	; c105454 <timer0_close+0x90>
 c105430:	e5832000 	str	r2, [r3]
 c105434:	e24bd00c 	sub	sp, fp, #12
 c105438:	e89d6800 	ldm	sp, {fp, sp, lr}
 c10543c:	e12fff1e 	bx	lr
 c105440:	01d5000c 	.word	0x01d5000c
 c105444:	01d50010 	.word	0x01d50010
 c105448:	01d50008 	.word	0x01d50008
 c10544c:	01e0000c 	.word	0x01e0000c
 c105450:	0c7fff54 	.word	0x0c7fff54
 c105454:	0c103f90 	.word	0x0c103f90

0c105458 <ts_on>:
 c105458:	e1a0c00d 	mov	ip, sp
 c10545c:	e92dd800 	push	{fp, ip, lr, pc}
 c105460:	e24cb004 	sub	fp, ip, #4
 c105464:	eb000423 	bl	c1064f8 <adc_on>
 c105468:	e59f3010 	ldr	r3, [pc, #16]	; c105480 <ts_on+0x28>
 c10546c:	e3a02001 	mov	r2, #1
 c105470:	e5c32000 	strb	r2, [r3]
 c105474:	e24bd00c 	sub	sp, fp, #12
 c105478:	e89d6800 	ldm	sp, {fp, sp, lr}
 c10547c:	e12fff1e 	bx	lr
 c105480:	0c112294 	.word	0x0c112294

0c105484 <ts_off>:
 c105484:	e1a0c00d 	mov	ip, sp
 c105488:	e92dd800 	push	{fp, ip, lr, pc}
 c10548c:	e24cb004 	sub	fp, ip, #4
 c105490:	eb00042b 	bl	c106544 <adc_off>
 c105494:	e59f3010 	ldr	r3, [pc, #16]	; c1054ac <ts_off+0x28>
 c105498:	e3a02000 	mov	r2, #0
 c10549c:	e5c32000 	strb	r2, [r3]
 c1054a0:	e24bd00c 	sub	sp, fp, #12
 c1054a4:	e89d6800 	ldm	sp, {fp, sp, lr}
 c1054a8:	e12fff1e 	bx	lr
 c1054ac:	0c112294 	.word	0x0c112294

0c1054b0 <ts_status>:
 c1054b0:	e1a0c00d 	mov	ip, sp
 c1054b4:	e92dd800 	push	{fp, ip, lr, pc}
 c1054b8:	e24cb004 	sub	fp, ip, #4
 c1054bc:	e59f3010 	ldr	r3, [pc, #16]	; c1054d4 <ts_status+0x24>
 c1054c0:	e5d33000 	ldrb	r3, [r3]
 c1054c4:	e1a00003 	mov	r0, r3
 c1054c8:	e24bd00c 	sub	sp, fp, #12
 c1054cc:	e89d6800 	ldm	sp, {fp, sp, lr}
 c1054d0:	e12fff1e 	bx	lr
 c1054d4:	0c112294 	.word	0x0c112294

0c1054d8 <ts_pressed>:
 c1054d8:	e1a0c00d 	mov	ip, sp
 c1054dc:	e92dd800 	push	{fp, ip, lr, pc}
 c1054e0:	e24cb004 	sub	fp, ip, #4
 c1054e4:	e59f3024 	ldr	r3, [pc, #36]	; c105510 <ts_pressed+0x38>
 c1054e8:	e5933000 	ldr	r3, [r3]
 c1054ec:	e2033004 	and	r3, r3, #4
 c1054f0:	e3530000 	cmp	r3, #0
 c1054f4:	13a03000 	movne	r3, #0
 c1054f8:	03a03001 	moveq	r3, #1
 c1054fc:	e20330ff 	and	r3, r3, #255	; 0xff
 c105500:	e1a00003 	mov	r0, r3
 c105504:	e24bd00c 	sub	sp, fp, #12
 c105508:	e89d6800 	ldm	sp, {fp, sp, lr}
 c10550c:	e12fff1e 	bx	lr
 c105510:	01d20044 	.word	0x01d20044

0c105514 <ts_calibrate>:
 c105514:	e1a0c00d 	mov	ip, sp
 c105518:	e92dd800 	push	{fp, ip, lr, pc}
 c10551c:	e24cb004 	sub	fp, ip, #4
 c105520:	e24dd010 	sub	sp, sp, #16
 c105524:	ebffef1c 	bl	c10119c <lcd_on>
 c105528:	ebffef43 	bl	c10123c <lcd_clear>
 c10552c:	e3a0000a 	mov	r0, #10
 c105530:	e3a010c8 	mov	r1, #200	; 0xc8
 c105534:	e3a0200f 	mov	r2, #15
 c105538:	e59f3398 	ldr	r3, [pc, #920]	; c1058d8 <ts_calibrate+0x3c4>
 c10553c:	ebfff141 	bl	c101a48 <lcd_puts>
 c105540:	e3a0000a 	mov	r0, #10
 c105544:	e3a010d8 	mov	r1, #216	; 0xd8
 c105548:	e3a0200f 	mov	r2, #15
 c10554c:	e59f3388 	ldr	r3, [pc, #904]	; c1058dc <ts_calibrate+0x3c8>
 c105550:	ebfff13c 	bl	c101a48 <lcd_puts>
 c105554:	e3a03001 	mov	r3, #1
 c105558:	e58d3000 	str	r3, [sp]
 c10555c:	e3a00000 	mov	r0, #0
 c105560:	e3a01003 	mov	r1, #3
 c105564:	e3a02000 	mov	r2, #0
 c105568:	e3a0300f 	mov	r3, #15
 c10556c:	ebffefac 	bl	c101424 <lcd_draw_hline>
 c105570:	e3a03001 	mov	r3, #1
 c105574:	e58d3000 	str	r3, [sp]
 c105578:	e3a00000 	mov	r0, #0
 c10557c:	e3a01003 	mov	r1, #3
 c105580:	e3a02001 	mov	r2, #1
 c105584:	e3a0300f 	mov	r3, #15
 c105588:	ebffefa5 	bl	c101424 <lcd_draw_hline>
 c10558c:	e3a03001 	mov	r3, #1
 c105590:	e58d3000 	str	r3, [sp]
 c105594:	e3a00000 	mov	r0, #0
 c105598:	e3a01003 	mov	r1, #3
 c10559c:	e3a02002 	mov	r2, #2
 c1055a0:	e3a0300f 	mov	r3, #15
 c1055a4:	ebffef9e 	bl	c101424 <lcd_draw_hline>
 c1055a8:	e3a03001 	mov	r3, #1
 c1055ac:	e58d3000 	str	r3, [sp]
 c1055b0:	e3a00000 	mov	r0, #0
 c1055b4:	e3a01003 	mov	r1, #3
 c1055b8:	e3a02003 	mov	r2, #3
 c1055bc:	e3a0300f 	mov	r3, #15
 c1055c0:	ebffef97 	bl	c101424 <lcd_draw_hline>
 c1055c4:	e1a00000 	nop			; (mov r0, r0)
 c1055c8:	e59f3310 	ldr	r3, [pc, #784]	; c1058e0 <ts_calibrate+0x3cc>
 c1055cc:	e5933000 	ldr	r3, [r3]
 c1055d0:	e2033004 	and	r3, r3, #4
 c1055d4:	e3530000 	cmp	r3, #0
 c1055d8:	1afffffa 	bne	c1055c8 <ts_calibrate+0xb4>
 c1055dc:	e3a0001e 	mov	r0, #30
 c1055e0:	ebfffd99 	bl	c104c4c <sw_delay_ms>
 c1055e4:	e59f02f8 	ldr	r0, [pc, #760]	; c1058e4 <ts_calibrate+0x3d0>
 c1055e8:	e59f12f8 	ldr	r1, [pc, #760]	; c1058e8 <ts_calibrate+0x3d4>
 c1055ec:	eb000144 	bl	c105b04 <ts_scan>
 c1055f0:	e1a00000 	nop			; (mov r0, r0)
 c1055f4:	e59f32e4 	ldr	r3, [pc, #740]	; c1058e0 <ts_calibrate+0x3cc>
 c1055f8:	e5933000 	ldr	r3, [r3]
 c1055fc:	e2033004 	and	r3, r3, #4
 c105600:	e3530000 	cmp	r3, #0
 c105604:	0afffffa 	beq	c1055f4 <ts_calibrate+0xe0>
 c105608:	e3a00064 	mov	r0, #100	; 0x64
 c10560c:	ebfffd8e 	bl	c104c4c <sw_delay_ms>
 c105610:	e3a03001 	mov	r3, #1
 c105614:	e58d3000 	str	r3, [sp]
 c105618:	e3a00000 	mov	r0, #0
 c10561c:	e3a01003 	mov	r1, #3
 c105620:	e3a02000 	mov	r2, #0
 c105624:	e3a03000 	mov	r3, #0
 c105628:	ebffef7d 	bl	c101424 <lcd_draw_hline>
 c10562c:	e3a03001 	mov	r3, #1
 c105630:	e58d3000 	str	r3, [sp]
 c105634:	e3a00000 	mov	r0, #0
 c105638:	e3a01003 	mov	r1, #3
 c10563c:	e3a02001 	mov	r2, #1
 c105640:	e3a03000 	mov	r3, #0
 c105644:	ebffef76 	bl	c101424 <lcd_draw_hline>
 c105648:	e3a03001 	mov	r3, #1
 c10564c:	e58d3000 	str	r3, [sp]
 c105650:	e3a00000 	mov	r0, #0
 c105654:	e3a01003 	mov	r1, #3
 c105658:	e3a02002 	mov	r2, #2
 c10565c:	e3a03000 	mov	r3, #0
 c105660:	ebffef6f 	bl	c101424 <lcd_draw_hline>
 c105664:	e3a03001 	mov	r3, #1
 c105668:	e58d3000 	str	r3, [sp]
 c10566c:	e3a00000 	mov	r0, #0
 c105670:	e3a01003 	mov	r1, #3
 c105674:	e3a02003 	mov	r2, #3
 c105678:	e3a03000 	mov	r3, #0
 c10567c:	ebffef68 	bl	c101424 <lcd_draw_hline>
 c105680:	e3a00e13 	mov	r0, #304	; 0x130
 c105684:	e3a010d8 	mov	r1, #216	; 0xd8
 c105688:	e3a0200f 	mov	r2, #15
 c10568c:	e59f3258 	ldr	r3, [pc, #600]	; c1058ec <ts_calibrate+0x3d8>
 c105690:	ebfff0ec 	bl	c101a48 <lcd_puts>
 c105694:	e3a0000a 	mov	r0, #10
 c105698:	e3a010d8 	mov	r1, #216	; 0xd8
 c10569c:	e3a0200f 	mov	r2, #15
 c1056a0:	e59f3248 	ldr	r3, [pc, #584]	; c1058f0 <ts_calibrate+0x3dc>
 c1056a4:	ebfff0e7 	bl	c101a48 <lcd_puts>
 c1056a8:	e3a03001 	mov	r3, #1
 c1056ac:	e58d3000 	str	r3, [sp]
 c1056b0:	e3a00f4f 	mov	r0, #316	; 0x13c
 c1056b4:	e59f1238 	ldr	r1, [pc, #568]	; c1058f4 <ts_calibrate+0x3e0>
 c1056b8:	e3a020ec 	mov	r2, #236	; 0xec
 c1056bc:	e3a0300f 	mov	r3, #15
 c1056c0:	ebffef57 	bl	c101424 <lcd_draw_hline>
 c1056c4:	e3a03001 	mov	r3, #1
 c1056c8:	e58d3000 	str	r3, [sp]
 c1056cc:	e3a00f4f 	mov	r0, #316	; 0x13c
 c1056d0:	e59f121c 	ldr	r1, [pc, #540]	; c1058f4 <ts_calibrate+0x3e0>
 c1056d4:	e3a020ed 	mov	r2, #237	; 0xed
 c1056d8:	e3a0300f 	mov	r3, #15
 c1056dc:	ebffef50 	bl	c101424 <lcd_draw_hline>
 c1056e0:	e3a03001 	mov	r3, #1
 c1056e4:	e58d3000 	str	r3, [sp]
 c1056e8:	e3a00f4f 	mov	r0, #316	; 0x13c
 c1056ec:	e59f1200 	ldr	r1, [pc, #512]	; c1058f4 <ts_calibrate+0x3e0>
 c1056f0:	e3a020ee 	mov	r2, #238	; 0xee
 c1056f4:	e3a0300f 	mov	r3, #15
 c1056f8:	ebffef49 	bl	c101424 <lcd_draw_hline>
 c1056fc:	e3a03001 	mov	r3, #1
 c105700:	e58d3000 	str	r3, [sp]
 c105704:	e3a00f4f 	mov	r0, #316	; 0x13c
 c105708:	e59f11e4 	ldr	r1, [pc, #484]	; c1058f4 <ts_calibrate+0x3e0>
 c10570c:	e3a020ef 	mov	r2, #239	; 0xef
 c105710:	e3a0300f 	mov	r3, #15
 c105714:	ebffef42 	bl	c101424 <lcd_draw_hline>
 c105718:	e1a00000 	nop			; (mov r0, r0)
 c10571c:	e59f31bc 	ldr	r3, [pc, #444]	; c1058e0 <ts_calibrate+0x3cc>
 c105720:	e5933000 	ldr	r3, [r3]
 c105724:	e2033004 	and	r3, r3, #4
 c105728:	e3530000 	cmp	r3, #0
 c10572c:	1afffffa 	bne	c10571c <ts_calibrate+0x208>
 c105730:	e3a0001e 	mov	r0, #30
 c105734:	ebfffd44 	bl	c104c4c <sw_delay_ms>
 c105738:	e59f01b8 	ldr	r0, [pc, #440]	; c1058f8 <ts_calibrate+0x3e4>
 c10573c:	e59f11b8 	ldr	r1, [pc, #440]	; c1058fc <ts_calibrate+0x3e8>
 c105740:	eb0000ef 	bl	c105b04 <ts_scan>
 c105744:	e1a00000 	nop			; (mov r0, r0)
 c105748:	e59f3190 	ldr	r3, [pc, #400]	; c1058e0 <ts_calibrate+0x3cc>
 c10574c:	e5933000 	ldr	r3, [r3]
 c105750:	e2033004 	and	r3, r3, #4
 c105754:	e3530000 	cmp	r3, #0
 c105758:	0afffffa 	beq	c105748 <ts_calibrate+0x234>
 c10575c:	e3a00064 	mov	r0, #100	; 0x64
 c105760:	ebfffd39 	bl	c104c4c <sw_delay_ms>
 c105764:	e3a03001 	mov	r3, #1
 c105768:	e58d3000 	str	r3, [sp]
 c10576c:	e3a00f4f 	mov	r0, #316	; 0x13c
 c105770:	e59f117c 	ldr	r1, [pc, #380]	; c1058f4 <ts_calibrate+0x3e0>
 c105774:	e3a020ec 	mov	r2, #236	; 0xec
 c105778:	e3a03000 	mov	r3, #0
 c10577c:	ebffef28 	bl	c101424 <lcd_draw_hline>
 c105780:	e3a03001 	mov	r3, #1
 c105784:	e58d3000 	str	r3, [sp]
 c105788:	e3a00f4f 	mov	r0, #316	; 0x13c
 c10578c:	e59f1160 	ldr	r1, [pc, #352]	; c1058f4 <ts_calibrate+0x3e0>
 c105790:	e3a020ed 	mov	r2, #237	; 0xed
 c105794:	e3a03000 	mov	r3, #0
 c105798:	ebffef21 	bl	c101424 <lcd_draw_hline>
 c10579c:	e3a03001 	mov	r3, #1
 c1057a0:	e58d3000 	str	r3, [sp]
 c1057a4:	e3a00f4f 	mov	r0, #316	; 0x13c
 c1057a8:	e59f1144 	ldr	r1, [pc, #324]	; c1058f4 <ts_calibrate+0x3e0>
 c1057ac:	e3a020ee 	mov	r2, #238	; 0xee
 c1057b0:	e3a03000 	mov	r3, #0
 c1057b4:	ebffef1a 	bl	c101424 <lcd_draw_hline>
 c1057b8:	e3a03001 	mov	r3, #1
 c1057bc:	e58d3000 	str	r3, [sp]
 c1057c0:	e3a00f4f 	mov	r0, #316	; 0x13c
 c1057c4:	e59f1128 	ldr	r1, [pc, #296]	; c1058f4 <ts_calibrate+0x3e0>
 c1057c8:	e3a020ef 	mov	r2, #239	; 0xef
 c1057cc:	e3a03000 	mov	r3, #0
 c1057d0:	ebffef13 	bl	c101424 <lcd_draw_hline>
 c1057d4:	e3a00e12 	mov	r0, #288	; 0x120
 c1057d8:	e3a010d8 	mov	r1, #216	; 0xd8
 c1057dc:	e3a0200f 	mov	r2, #15
 c1057e0:	e59f3104 	ldr	r3, [pc, #260]	; c1058ec <ts_calibrate+0x3d8>
 c1057e4:	ebfff097 	bl	c101a48 <lcd_puts>
 c1057e8:	e3a0000a 	mov	r0, #10
 c1057ec:	e3a010d8 	mov	r1, #216	; 0xd8
 c1057f0:	e3a0200f 	mov	r2, #15
 c1057f4:	e59f3104 	ldr	r3, [pc, #260]	; c105900 <ts_calibrate+0x3ec>
 c1057f8:	ebfff092 	bl	c101a48 <lcd_puts>
 c1057fc:	e3a03001 	mov	r3, #1
 c105800:	e58d3000 	str	r3, [sp]
 c105804:	e3a0009b 	mov	r0, #155	; 0x9b
 c105808:	e3a010a5 	mov	r1, #165	; 0xa5
 c10580c:	e3a02078 	mov	r2, #120	; 0x78
 c105810:	e3a0300f 	mov	r3, #15
 c105814:	ebffef02 	bl	c101424 <lcd_draw_hline>
 c105818:	e3a03001 	mov	r3, #1
 c10581c:	e58d3000 	str	r3, [sp]
 c105820:	e3a00073 	mov	r0, #115	; 0x73
 c105824:	e3a0107d 	mov	r1, #125	; 0x7d
 c105828:	e3a020a0 	mov	r2, #160	; 0xa0
 c10582c:	e3a0300f 	mov	r3, #15
 c105830:	ebffef51 	bl	c10157c <lcd_draw_vline>
 c105834:	e24b200e 	sub	r2, fp, #14
 c105838:	e24b3010 	sub	r3, fp, #16
 c10583c:	e1a00002 	mov	r0, r2
 c105840:	e1a01003 	mov	r1, r3
 c105844:	eb00018b 	bl	c105e78 <ts_getpos>
 c105848:	e3a03001 	mov	r3, #1
 c10584c:	e58d3000 	str	r3, [sp]
 c105850:	e3a0009b 	mov	r0, #155	; 0x9b
 c105854:	e3a010a5 	mov	r1, #165	; 0xa5
 c105858:	e3a02078 	mov	r2, #120	; 0x78
 c10585c:	e3a03000 	mov	r3, #0
 c105860:	ebffeeef 	bl	c101424 <lcd_draw_hline>
 c105864:	e3a03001 	mov	r3, #1
 c105868:	e58d3000 	str	r3, [sp]
 c10586c:	e3a00073 	mov	r0, #115	; 0x73
 c105870:	e3a0107d 	mov	r1, #125	; 0x7d
 c105874:	e3a020a0 	mov	r2, #160	; 0xa0
 c105878:	e3a03000 	mov	r3, #0
 c10587c:	ebffef3e 	bl	c10157c <lcd_draw_vline>
 c105880:	e3a000b2 	mov	r0, #178	; 0xb2
 c105884:	e3a010d8 	mov	r1, #216	; 0xd8
 c105888:	e3a0200f 	mov	r2, #15
 c10588c:	e59f3058 	ldr	r3, [pc, #88]	; c1058ec <ts_calibrate+0x3d8>
 c105890:	ebfff06c 	bl	c101a48 <lcd_puts>
 c105894:	e15b30be 	ldrh	r3, [fp, #-14]
 c105898:	e35300a5 	cmp	r3, #165	; 0xa5
 c10589c:	8affff21 	bhi	c105528 <ts_calibrate+0x14>
 c1058a0:	e15b30be 	ldrh	r3, [fp, #-14]
 c1058a4:	e353009a 	cmp	r3, #154	; 0x9a
 c1058a8:	9affff1e 	bls	c105528 <ts_calibrate+0x14>
 c1058ac:	e15b31b0 	ldrh	r3, [fp, #-16]
 c1058b0:	e353007d 	cmp	r3, #125	; 0x7d
 c1058b4:	8affff1b 	bhi	c105528 <ts_calibrate+0x14>
 c1058b8:	e15b31b0 	ldrh	r3, [fp, #-16]
 c1058bc:	e3530072 	cmp	r3, #114	; 0x72
 c1058c0:	9affff18 	bls	c105528 <ts_calibrate+0x14>
 c1058c4:	ebffee5c 	bl	c10123c <lcd_clear>
 c1058c8:	ebffee42 	bl	c1011d8 <lcd_off>
 c1058cc:	e24bd00c 	sub	sp, fp, #12
 c1058d0:	e89d6800 	ldm	sp, {fp, sp, lr}
 c1058d4:	e12fff1e 	bx	lr
 c1058d8:	0c107ae0 	.word	0x0c107ae0
 c1058dc:	0c107b04 	.word	0x0c107b04
 c1058e0:	01d20044 	.word	0x01d20044
 c1058e4:	0c11228c 	.word	0x0c11228c
 c1058e8:	0c112292 	.word	0x0c112292
 c1058ec:	0c107b2c 	.word	0x0c107b2c
 c1058f0:	0c107b30 	.word	0x0c107b30
 c1058f4:	0000013f 	.word	0x0000013f
 c1058f8:	0c11228e 	.word	0x0c11228e
 c1058fc:	0c112290 	.word	0x0c112290
 c105900:	0c107b58 	.word	0x0c107b58

0c105904 <ts_getpostime>:
 c105904:	e1a0c00d 	mov	ip, sp
 c105908:	e92dd800 	push	{fp, ip, lr, pc}
 c10590c:	e24cb004 	sub	fp, ip, #4
 c105910:	e24dd018 	sub	sp, sp, #24
 c105914:	e50b0018 	str	r0, [fp, #-24]	; 0xffffffe8
 c105918:	e50b101c 	str	r1, [fp, #-28]	; 0xffffffe4
 c10591c:	e50b2020 	str	r2, [fp, #-32]	; 0xffffffe0
 c105920:	e1a00000 	nop			; (mov r0, r0)
 c105924:	e59f309c 	ldr	r3, [pc, #156]	; c1059c8 <ts_getpostime+0xc4>
 c105928:	e5933000 	ldr	r3, [r3]
 c10592c:	e2033004 	and	r3, r3, #4
 c105930:	e3530000 	cmp	r3, #0
 c105934:	1afffffa 	bne	c105924 <ts_getpostime+0x20>
 c105938:	ebfffd2e 	bl	c104df8 <timer3_start>
 c10593c:	e3a0001e 	mov	r0, #30
 c105940:	ebfffcc1 	bl	c104c4c <sw_delay_ms>
 c105944:	e24b200e 	sub	r2, fp, #14
 c105948:	e24b3010 	sub	r3, fp, #16
 c10594c:	e1a00002 	mov	r0, r2
 c105950:	e1a01003 	mov	r1, r3
 c105954:	eb00006a 	bl	c105b04 <ts_scan>
 c105958:	e15b20be 	ldrh	r2, [fp, #-14]
 c10595c:	e15b31b0 	ldrh	r3, [fp, #-16]
 c105960:	e1a00002 	mov	r0, r2
 c105964:	e1a01003 	mov	r1, r3
 c105968:	e51b2018 	ldr	r2, [fp, #-24]	; 0xffffffe8
 c10596c:	e51b301c 	ldr	r3, [fp, #-28]	; 0xffffffe4
 c105970:	eb000084 	bl	c105b88 <ts_sample2coord>
 c105974:	e1a00000 	nop			; (mov r0, r0)
 c105978:	e59f3048 	ldr	r3, [pc, #72]	; c1059c8 <ts_getpostime+0xc4>
 c10597c:	e5933000 	ldr	r3, [r3]
 c105980:	e2033004 	and	r3, r3, #4
 c105984:	e3530000 	cmp	r3, #0
 c105988:	0afffffa 	beq	c105978 <ts_getpostime+0x74>
 c10598c:	ebfffd50 	bl	c104ed4 <timer3_stop>
 c105990:	e1a03000 	mov	r3, r0
 c105994:	e1a02003 	mov	r2, r3
 c105998:	e59f302c 	ldr	r3, [pc, #44]	; c1059cc <ts_getpostime+0xc8>
 c10599c:	e0831392 	umull	r1, r3, r2, r3
 c1059a0:	e1a031a3 	lsr	r3, r3, #3
 c1059a4:	e1a03803 	lsl	r3, r3, #16
 c1059a8:	e1a02823 	lsr	r2, r3, #16
 c1059ac:	e51b3020 	ldr	r3, [fp, #-32]	; 0xffffffe0
 c1059b0:	e1c320b0 	strh	r2, [r3]
 c1059b4:	e3a00064 	mov	r0, #100	; 0x64
 c1059b8:	ebfffca3 	bl	c104c4c <sw_delay_ms>
 c1059bc:	e24bd00c 	sub	sp, fp, #12
 c1059c0:	e89d6800 	ldm	sp, {fp, sp, lr}
 c1059c4:	e12fff1e 	bx	lr
 c1059c8:	01d20044 	.word	0x01d20044
 c1059cc:	cccccccd 	.word	0xcccccccd

0c1059d0 <ts_timeout_getpos>:
 c1059d0:	e1a0c00d 	mov	ip, sp
 c1059d4:	e92dd800 	push	{fp, ip, lr, pc}
 c1059d8:	e24cb004 	sub	fp, ip, #4
 c1059dc:	e24dd018 	sub	sp, sp, #24
 c1059e0:	e50b0018 	str	r0, [fp, #-24]	; 0xffffffe8
 c1059e4:	e50b101c 	str	r1, [fp, #-28]	; 0xffffffe4
 c1059e8:	e1a03002 	mov	r3, r2
 c1059ec:	e14b31be 	strh	r3, [fp, #-30]	; 0xffffffe2
 c1059f0:	e51b3018 	ldr	r3, [fp, #-24]	; 0xffffffe8
 c1059f4:	e3a02000 	mov	r2, #0
 c1059f8:	e1c320b0 	strh	r2, [r3]
 c1059fc:	e51b301c 	ldr	r3, [fp, #-28]	; 0xffffffe4
 c105a00:	e3a02000 	mov	r2, #0
 c105a04:	e1c320b0 	strh	r2, [r3]
 c105a08:	e15b31be 	ldrh	r3, [fp, #-30]	; 0xffffffe2
 c105a0c:	e1a02003 	mov	r2, r3
 c105a10:	e1a02102 	lsl	r2, r2, #2
 c105a14:	e0823003 	add	r3, r2, r3
 c105a18:	e1a03083 	lsl	r3, r3, #1
 c105a1c:	e1a03803 	lsl	r3, r3, #16
 c105a20:	e1a03823 	lsr	r3, r3, #16
 c105a24:	e1a00003 	mov	r0, r3
 c105a28:	ebfffd3e 	bl	c104f28 <timer3_start_timeout>
 c105a2c:	e1a00000 	nop			; (mov r0, r0)
 c105a30:	e59f30c8 	ldr	r3, [pc, #200]	; c105b00 <ts_timeout_getpos+0x130>
 c105a34:	e5933000 	ldr	r3, [r3]
 c105a38:	e2033004 	and	r3, r3, #4
 c105a3c:	e3530000 	cmp	r3, #0
 c105a40:	0a000003 	beq	c105a54 <ts_timeout_getpos+0x84>
 c105a44:	ebfffd70 	bl	c10500c <timer3_timeout>
 c105a48:	e1a03000 	mov	r3, r0
 c105a4c:	e3530000 	cmp	r3, #0
 c105a50:	0afffff6 	beq	c105a30 <ts_timeout_getpos+0x60>
 c105a54:	ebfffd6c 	bl	c10500c <timer3_timeout>
 c105a58:	e1a03000 	mov	r3, r0
 c105a5c:	e3530000 	cmp	r3, #0
 c105a60:	0a000001 	beq	c105a6c <ts_timeout_getpos+0x9c>
 c105a64:	e3a030fe 	mov	r3, #254	; 0xfe
 c105a68:	ea000020 	b	c105af0 <ts_timeout_getpos+0x120>
 c105a6c:	e3a0001e 	mov	r0, #30
 c105a70:	ebfffc75 	bl	c104c4c <sw_delay_ms>
 c105a74:	e24b200e 	sub	r2, fp, #14
 c105a78:	e24b3010 	sub	r3, fp, #16
 c105a7c:	e1a00002 	mov	r0, r2
 c105a80:	e1a01003 	mov	r1, r3
 c105a84:	eb00001e 	bl	c105b04 <ts_scan>
 c105a88:	e15b20be 	ldrh	r2, [fp, #-14]
 c105a8c:	e15b31b0 	ldrh	r3, [fp, #-16]
 c105a90:	e1a00002 	mov	r0, r2
 c105a94:	e1a01003 	mov	r1, r3
 c105a98:	e51b2018 	ldr	r2, [fp, #-24]	; 0xffffffe8
 c105a9c:	e51b301c 	ldr	r3, [fp, #-28]	; 0xffffffe4
 c105aa0:	eb000038 	bl	c105b88 <ts_sample2coord>
 c105aa4:	e1a00000 	nop			; (mov r0, r0)
 c105aa8:	e59f3050 	ldr	r3, [pc, #80]	; c105b00 <ts_timeout_getpos+0x130>
 c105aac:	e5933000 	ldr	r3, [r3]
 c105ab0:	e2033004 	and	r3, r3, #4
 c105ab4:	e3530000 	cmp	r3, #0
 c105ab8:	1a000003 	bne	c105acc <ts_timeout_getpos+0xfc>
 c105abc:	ebfffd52 	bl	c10500c <timer3_timeout>
 c105ac0:	e1a03000 	mov	r3, r0
 c105ac4:	e3530000 	cmp	r3, #0
 c105ac8:	0afffff6 	beq	c105aa8 <ts_timeout_getpos+0xd8>
 c105acc:	ebfffd4e 	bl	c10500c <timer3_timeout>
 c105ad0:	e1a03000 	mov	r3, r0
 c105ad4:	e3530000 	cmp	r3, #0
 c105ad8:	0a000001 	beq	c105ae4 <ts_timeout_getpos+0x114>
 c105adc:	e3a030fe 	mov	r3, #254	; 0xfe
 c105ae0:	ea000002 	b	c105af0 <ts_timeout_getpos+0x120>
 c105ae4:	e3a00064 	mov	r0, #100	; 0x64
 c105ae8:	ebfffc57 	bl	c104c4c <sw_delay_ms>
 c105aec:	e3a03001 	mov	r3, #1
 c105af0:	e1a00003 	mov	r0, r3
 c105af4:	e24bd00c 	sub	sp, fp, #12
 c105af8:	e89d6800 	ldm	sp, {fp, sp, lr}
 c105afc:	e12fff1e 	bx	lr
 c105b00:	01d20044 	.word	0x01d20044

0c105b04 <ts_scan>:
 c105b04:	e1a0c00d 	mov	ip, sp
 c105b08:	e92dd800 	push	{fp, ip, lr, pc}
 c105b0c:	e24cb004 	sub	fp, ip, #4
 c105b10:	e24dd008 	sub	sp, sp, #8
 c105b14:	e50b0010 	str	r0, [fp, #-16]
 c105b18:	e50b1014 	str	r1, [fp, #-20]	; 0xffffffec
 c105b1c:	e59f3060 	ldr	r3, [pc, #96]	; c105b84 <ts_scan+0x80>
 c105b20:	e3a02060 	mov	r2, #96	; 0x60
 c105b24:	e5832000 	str	r2, [r3]
 c105b28:	e3a00001 	mov	r0, #1
 c105b2c:	eb0002d7 	bl	c106690 <adc_getSample>
 c105b30:	e1a03000 	mov	r3, r0
 c105b34:	e1a02003 	mov	r2, r3
 c105b38:	e51b3010 	ldr	r3, [fp, #-16]
 c105b3c:	e1c320b0 	strh	r2, [r3]
 c105b40:	e59f303c 	ldr	r3, [pc, #60]	; c105b84 <ts_scan+0x80>
 c105b44:	e3a02090 	mov	r2, #144	; 0x90
 c105b48:	e5832000 	str	r2, [r3]
 c105b4c:	e3a00000 	mov	r0, #0
 c105b50:	eb0002ce 	bl	c106690 <adc_getSample>
 c105b54:	e1a03000 	mov	r3, r0
 c105b58:	e1a02003 	mov	r2, r3
 c105b5c:	e51b3014 	ldr	r3, [fp, #-20]	; 0xffffffec
 c105b60:	e1c320b0 	strh	r2, [r3]
 c105b64:	e59f3018 	ldr	r3, [pc, #24]	; c105b84 <ts_scan+0x80>
 c105b68:	e3a020b0 	mov	r2, #176	; 0xb0
 c105b6c:	e5832000 	str	r2, [r3]
 c105b70:	e3a00001 	mov	r0, #1
 c105b74:	ebfffc34 	bl	c104c4c <sw_delay_ms>
 c105b78:	e24bd00c 	sub	sp, fp, #12
 c105b7c:	e89d6800 	ldm	sp, {fp, sp, lr}
 c105b80:	e12fff1e 	bx	lr
 c105b84:	01d2002c 	.word	0x01d2002c

0c105b88 <ts_sample2coord>:
 c105b88:	e1a0c00d 	mov	ip, sp
 c105b8c:	e92dd800 	push	{fp, ip, lr, pc}
 c105b90:	e24cb004 	sub	fp, ip, #4
 c105b94:	e24dd010 	sub	sp, sp, #16
 c105b98:	e50b2014 	str	r2, [fp, #-20]	; 0xffffffec
 c105b9c:	e50b3018 	str	r3, [fp, #-24]	; 0xffffffe8
 c105ba0:	e14b00be 	strh	r0, [fp, #-14]
 c105ba4:	e14b11b0 	strh	r1, [fp, #-16]
 c105ba8:	e59f3150 	ldr	r3, [pc, #336]	; c105d00 <ts_sample2coord+0x178>
 c105bac:	e1d330b0 	ldrh	r3, [r3]
 c105bb0:	e15b20be 	ldrh	r2, [fp, #-14]
 c105bb4:	e1520003 	cmp	r2, r3
 c105bb8:	2a000003 	bcs	c105bcc <ts_sample2coord+0x44>
 c105bbc:	e51b3014 	ldr	r3, [fp, #-20]	; 0xffffffec
 c105bc0:	e3a02000 	mov	r2, #0
 c105bc4:	e1c320b0 	strh	r2, [r3]
 c105bc8:	ea00001f 	b	c105c4c <ts_sample2coord+0xc4>
 c105bcc:	e59f3130 	ldr	r3, [pc, #304]	; c105d04 <ts_sample2coord+0x17c>
 c105bd0:	e1d330b0 	ldrh	r3, [r3]
 c105bd4:	e15b20be 	ldrh	r2, [fp, #-14]
 c105bd8:	e1520003 	cmp	r2, r3
 c105bdc:	9a000003 	bls	c105bf0 <ts_sample2coord+0x68>
 c105be0:	e51b3014 	ldr	r3, [fp, #-20]	; 0xffffffec
 c105be4:	e59f211c 	ldr	r2, [pc, #284]	; c105d08 <ts_sample2coord+0x180>
 c105be8:	e1c320b0 	strh	r2, [r3]
 c105bec:	ea000016 	b	c105c4c <ts_sample2coord+0xc4>
 c105bf0:	e15b20be 	ldrh	r2, [fp, #-14]
 c105bf4:	e59f3104 	ldr	r3, [pc, #260]	; c105d00 <ts_sample2coord+0x178>
 c105bf8:	e1d330b0 	ldrh	r3, [r3]
 c105bfc:	e0632002 	rsb	r2, r3, r2
 c105c00:	e1a03002 	mov	r3, r2
 c105c04:	e1a03103 	lsl	r3, r3, #2
 c105c08:	e0833002 	add	r3, r3, r2
 c105c0c:	e1a03303 	lsl	r3, r3, #6
 c105c10:	e1a02003 	mov	r2, r3
 c105c14:	e59f30e8 	ldr	r3, [pc, #232]	; c105d04 <ts_sample2coord+0x17c>
 c105c18:	e1d330b0 	ldrh	r3, [r3]
 c105c1c:	e1a01003 	mov	r1, r3
 c105c20:	e59f30d8 	ldr	r3, [pc, #216]	; c105d00 <ts_sample2coord+0x178>
 c105c24:	e1d330b0 	ldrh	r3, [r3]
 c105c28:	e0633001 	rsb	r3, r3, r1
 c105c2c:	e1a00002 	mov	r0, r2
 c105c30:	e1a01003 	mov	r1, r3
 c105c34:	eb000316 	bl	c106894 <__aeabi_idiv>
 c105c38:	e1a03000 	mov	r3, r0
 c105c3c:	e1a03803 	lsl	r3, r3, #16
 c105c40:	e1a02823 	lsr	r2, r3, #16
 c105c44:	e51b3014 	ldr	r3, [fp, #-20]	; 0xffffffec
 c105c48:	e1c320b0 	strh	r2, [r3]
 c105c4c:	e59f30b8 	ldr	r3, [pc, #184]	; c105d0c <ts_sample2coord+0x184>
 c105c50:	e1d330b0 	ldrh	r3, [r3]
 c105c54:	e15b21b0 	ldrh	r2, [fp, #-16]
 c105c58:	e1520003 	cmp	r2, r3
 c105c5c:	2a000003 	bcs	c105c70 <ts_sample2coord+0xe8>
 c105c60:	e51b3018 	ldr	r3, [fp, #-24]	; 0xffffffe8
 c105c64:	e3a020ef 	mov	r2, #239	; 0xef
 c105c68:	e1c320b0 	strh	r2, [r3]
 c105c6c:	ea000020 	b	c105cf4 <ts_sample2coord+0x16c>
 c105c70:	e59f3098 	ldr	r3, [pc, #152]	; c105d10 <ts_sample2coord+0x188>
 c105c74:	e1d330b0 	ldrh	r3, [r3]
 c105c78:	e15b21b0 	ldrh	r2, [fp, #-16]
 c105c7c:	e1520003 	cmp	r2, r3
 c105c80:	9a000003 	bls	c105c94 <ts_sample2coord+0x10c>
 c105c84:	e51b3018 	ldr	r3, [fp, #-24]	; 0xffffffe8
 c105c88:	e3a02000 	mov	r2, #0
 c105c8c:	e1c320b0 	strh	r2, [r3]
 c105c90:	ea000017 	b	c105cf4 <ts_sample2coord+0x16c>
 c105c94:	e59f3074 	ldr	r3, [pc, #116]	; c105d10 <ts_sample2coord+0x188>
 c105c98:	e1d330b0 	ldrh	r3, [r3]
 c105c9c:	e1a02003 	mov	r2, r3
 c105ca0:	e15b31b0 	ldrh	r3, [fp, #-16]
 c105ca4:	e0632002 	rsb	r2, r3, r2
 c105ca8:	e1a03002 	mov	r3, r2
 c105cac:	e1a03203 	lsl	r3, r3, #4
 c105cb0:	e0623003 	rsb	r3, r2, r3
 c105cb4:	e1a03203 	lsl	r3, r3, #4
 c105cb8:	e1a02003 	mov	r2, r3
 c105cbc:	e59f304c 	ldr	r3, [pc, #76]	; c105d10 <ts_sample2coord+0x188>
 c105cc0:	e1d330b0 	ldrh	r3, [r3]
 c105cc4:	e1a01003 	mov	r1, r3
 c105cc8:	e59f303c 	ldr	r3, [pc, #60]	; c105d0c <ts_sample2coord+0x184>
 c105ccc:	e1d330b0 	ldrh	r3, [r3]
 c105cd0:	e0633001 	rsb	r3, r3, r1
 c105cd4:	e1a00002 	mov	r0, r2
 c105cd8:	e1a01003 	mov	r1, r3
 c105cdc:	eb0002ec 	bl	c106894 <__aeabi_idiv>
 c105ce0:	e1a03000 	mov	r3, r0
 c105ce4:	e1a03803 	lsl	r3, r3, #16
 c105ce8:	e1a02823 	lsr	r2, r3, #16
 c105cec:	e51b3018 	ldr	r3, [fp, #-24]	; 0xffffffe8
 c105cf0:	e1c320b0 	strh	r2, [r3]
 c105cf4:	e24bd00c 	sub	sp, fp, #12
 c105cf8:	e89d6800 	ldm	sp, {fp, sp, lr}
 c105cfc:	e12fff1e 	bx	lr
 c105d00:	0c11228c 	.word	0x0c11228c
 c105d04:	0c11228e 	.word	0x0c11228e
 c105d08:	0000013f 	.word	0x0000013f
 c105d0c:	0c112290 	.word	0x0c112290
 c105d10:	0c112292 	.word	0x0c112292

0c105d14 <ts_open>:
 c105d14:	e1a0c00d 	mov	ip, sp
 c105d18:	e92dd800 	push	{fp, ip, lr, pc}
 c105d1c:	e24cb004 	sub	fp, ip, #4
 c105d20:	e24dd008 	sub	sp, sp, #8
 c105d24:	e50b0010 	str	r0, [fp, #-16]
 c105d28:	e59f3030 	ldr	r3, [pc, #48]	; c105d60 <ts_open+0x4c>
 c105d2c:	e51b2010 	ldr	r2, [fp, #-16]
 c105d30:	e5832000 	str	r2, [r3]
 c105d34:	e59f3028 	ldr	r3, [pc, #40]	; c105d64 <ts_open+0x50>
 c105d38:	e3a02502 	mov	r2, #8388608	; 0x800000
 c105d3c:	e5832000 	str	r2, [r3]
 c105d40:	e59f3020 	ldr	r3, [pc, #32]	; c105d68 <ts_open+0x54>
 c105d44:	e59f201c 	ldr	r2, [pc, #28]	; c105d68 <ts_open+0x54>
 c105d48:	e5922000 	ldr	r2, [r2]
 c105d4c:	e3c22512 	bic	r2, r2, #75497472	; 0x4800000
 c105d50:	e5832000 	str	r2, [r3]
 c105d54:	e24bd00c 	sub	sp, fp, #12
 c105d58:	e89d6800 	ldm	sp, {fp, sp, lr}
 c105d5c:	e12fff1e 	bx	lr
 c105d60:	0c7fff7c 	.word	0x0c7fff7c
 c105d64:	01e00024 	.word	0x01e00024
 c105d68:	01e0000c 	.word	0x01e0000c

0c105d6c <ts_close>:
 c105d6c:	e1a0c00d 	mov	ip, sp
 c105d70:	e92dd800 	push	{fp, ip, lr, pc}
 c105d74:	e24cb004 	sub	fp, ip, #4
 c105d78:	e59f3024 	ldr	r3, [pc, #36]	; c105da4 <ts_close+0x38>
 c105d7c:	e59f2020 	ldr	r2, [pc, #32]	; c105da4 <ts_close+0x38>
 c105d80:	e5922000 	ldr	r2, [r2]
 c105d84:	e3822502 	orr	r2, r2, #8388608	; 0x800000
 c105d88:	e5832000 	str	r2, [r3]
 c105d8c:	e59f3014 	ldr	r3, [pc, #20]	; c105da8 <ts_close+0x3c>
 c105d90:	e59f2014 	ldr	r2, [pc, #20]	; c105dac <ts_close+0x40>
 c105d94:	e5832000 	str	r2, [r3]
 c105d98:	e24bd00c 	sub	sp, fp, #12
 c105d9c:	e89d6800 	ldm	sp, {fp, sp, lr}
 c105da0:	e12fff1e 	bx	lr
 c105da4:	01e0000c 	.word	0x01e0000c
 c105da8:	0c7fff7c 	.word	0x0c7fff7c
 c105dac:	0c104260 	.word	0x0c104260

0c105db0 <ts_init>:
 c105db0:	e1a0c00d 	mov	ip, sp
 c105db4:	e92dd800 	push	{fp, ip, lr, pc}
 c105db8:	e24cb004 	sub	fp, ip, #4
 c105dbc:	e59f309c 	ldr	r3, [pc, #156]	; c105e60 <ts_init+0xb0>
 c105dc0:	e59f2098 	ldr	r2, [pc, #152]	; c105e60 <ts_init+0xb0>
 c105dc4:	e5922000 	ldr	r2, [r2]
 c105dc8:	e3822d52 	orr	r2, r2, #5248	; 0x1480
 c105dcc:	e5832000 	str	r2, [r3]
 c105dd0:	e59f308c 	ldr	r3, [pc, #140]	; c105e64 <ts_init+0xb4>
 c105dd4:	e59f2088 	ldr	r2, [pc, #136]	; c105e64 <ts_init+0xb4>
 c105dd8:	e5922000 	ldr	r2, [r2]
 c105ddc:	e3c22cff 	bic	r2, r2, #65280	; 0xff00
 c105de0:	e3822c55 	orr	r2, r2, #21760	; 0x5500
 c105de4:	e5832000 	str	r2, [r3]
 c105de8:	e59f3078 	ldr	r3, [pc, #120]	; c105e68 <ts_init+0xb8>
 c105dec:	e59f2074 	ldr	r2, [pc, #116]	; c105e68 <ts_init+0xb8>
 c105df0:	e5922000 	ldr	r2, [r2]
 c105df4:	e38220f0 	orr	r2, r2, #240	; 0xf0
 c105df8:	e5832000 	str	r2, [r3]
 c105dfc:	e59f3068 	ldr	r3, [pc, #104]	; c105e6c <ts_init+0xbc>
 c105e00:	e59f2064 	ldr	r2, [pc, #100]	; c105e6c <ts_init+0xbc>
 c105e04:	e5922000 	ldr	r2, [r2]
 c105e08:	e3822030 	orr	r2, r2, #48	; 0x30
 c105e0c:	e5832000 	str	r2, [r3]
 c105e10:	e59f3058 	ldr	r3, [pc, #88]	; c105e70 <ts_init+0xc0>
 c105e14:	e59f2054 	ldr	r2, [pc, #84]	; c105e70 <ts_init+0xc0>
 c105e18:	e5922000 	ldr	r2, [r2]
 c105e1c:	e3c22c07 	bic	r2, r2, #1792	; 0x700
 c105e20:	e3822c02 	orr	r2, r2, #512	; 0x200
 c105e24:	e5832000 	str	r2, [r3]
 c105e28:	ebfffad5 	bl	c104984 <timers_init>
 c105e2c:	ebffec6e 	bl	c100fec <lcd_init>
 c105e30:	eb000205 	bl	c10664c <adc_init>
 c105e34:	e59f3038 	ldr	r3, [pc, #56]	; c105e74 <ts_init+0xc4>
 c105e38:	e3a020b0 	mov	r2, #176	; 0xb0
 c105e3c:	e5832000 	str	r2, [r3]
 c105e40:	e3a00001 	mov	r0, #1
 c105e44:	ebfffb80 	bl	c104c4c <sw_delay_ms>
 c105e48:	ebfffd82 	bl	c105458 <ts_on>
 c105e4c:	ebfffdb0 	bl	c105514 <ts_calibrate>
 c105e50:	ebfffd8b 	bl	c105484 <ts_off>
 c105e54:	e24bd00c 	sub	sp, fp, #12
 c105e58:	e89d6800 	ldm	sp, {fp, sp, lr}
 c105e5c:	e12fff1e 	bx	lr
 c105e60:	01d80004 	.word	0x01d80004
 c105e64:	01d20028 	.word	0x01d20028
 c105e68:	01d20030 	.word	0x01d20030
 c105e6c:	01d20040 	.word	0x01d20040
 c105e70:	01d20050 	.word	0x01d20050
 c105e74:	01d2002c 	.word	0x01d2002c

0c105e78 <ts_getpos>:
 c105e78:	e1a0c00d 	mov	ip, sp
 c105e7c:	e92dd800 	push	{fp, ip, lr, pc}
 c105e80:	e24cb004 	sub	fp, ip, #4
 c105e84:	e24dd010 	sub	sp, sp, #16
 c105e88:	e50b0018 	str	r0, [fp, #-24]	; 0xffffffe8
 c105e8c:	e50b101c 	str	r1, [fp, #-28]	; 0xffffffe4
 c105e90:	e1a00000 	nop			; (mov r0, r0)
 c105e94:	e59f3070 	ldr	r3, [pc, #112]	; c105f0c <ts_getpos+0x94>
 c105e98:	e5933000 	ldr	r3, [r3]
 c105e9c:	e2033004 	and	r3, r3, #4
 c105ea0:	e3530000 	cmp	r3, #0
 c105ea4:	1afffffa 	bne	c105e94 <ts_getpos+0x1c>
 c105ea8:	e3a0001e 	mov	r0, #30
 c105eac:	ebfffb66 	bl	c104c4c <sw_delay_ms>
 c105eb0:	e24b200e 	sub	r2, fp, #14
 c105eb4:	e24b3010 	sub	r3, fp, #16
 c105eb8:	e1a00002 	mov	r0, r2
 c105ebc:	e1a01003 	mov	r1, r3
 c105ec0:	ebffff0f 	bl	c105b04 <ts_scan>
 c105ec4:	e15b20be 	ldrh	r2, [fp, #-14]
 c105ec8:	e15b31b0 	ldrh	r3, [fp, #-16]
 c105ecc:	e1a00002 	mov	r0, r2
 c105ed0:	e1a01003 	mov	r1, r3
 c105ed4:	e51b2018 	ldr	r2, [fp, #-24]	; 0xffffffe8
 c105ed8:	e51b301c 	ldr	r3, [fp, #-28]	; 0xffffffe4
 c105edc:	ebffff29 	bl	c105b88 <ts_sample2coord>
 c105ee0:	e1a00000 	nop			; (mov r0, r0)
 c105ee4:	e59f3020 	ldr	r3, [pc, #32]	; c105f0c <ts_getpos+0x94>
 c105ee8:	e5933000 	ldr	r3, [r3]
 c105eec:	e2033004 	and	r3, r3, #4
 c105ef0:	e3530000 	cmp	r3, #0
 c105ef4:	0afffffa 	beq	c105ee4 <ts_getpos+0x6c>
 c105ef8:	e3a00064 	mov	r0, #100	; 0x64
 c105efc:	ebfffb52 	bl	c104c4c <sw_delay_ms>
 c105f00:	e24bd00c 	sub	sp, fp, #12
 c105f04:	e89d6800 	ldm	sp, {fp, sp, lr}
 c105f08:	e12fff1e 	bx	lr
 c105f0c:	01d20044 	.word	0x01d20044

0c105f10 <uart0_init>:
 c105f10:	e1a0c00d 	mov	ip, sp
 c105f14:	e92dd800 	push	{fp, ip, lr, pc}
 c105f18:	e24cb004 	sub	fp, ip, #4
 c105f1c:	e3a00008 	mov	r0, #8
 c105f20:	ebfff184 	bl	c102538 <power_on>
 c105f24:	e59f306c 	ldr	r3, [pc, #108]	; c105f98 <uart0_init+0x88>
 c105f28:	e59f2068 	ldr	r2, [pc, #104]	; c105f98 <uart0_init+0x88>
 c105f2c:	e5922000 	ldr	r2, [r2]
 c105f30:	e3c2203c 	bic	r2, r2, #60	; 0x3c
 c105f34:	e3822028 	orr	r2, r2, #40	; 0x28
 c105f38:	e5832000 	str	r2, [r3]
 c105f3c:	e59f3058 	ldr	r3, [pc, #88]	; c105f9c <uart0_init+0x8c>
 c105f40:	e59f2054 	ldr	r2, [pc, #84]	; c105f9c <uart0_init+0x8c>
 c105f44:	e5922000 	ldr	r2, [r2]
 c105f48:	e3822006 	orr	r2, r2, #6
 c105f4c:	e5832000 	str	r2, [r3]
 c105f50:	e59f3048 	ldr	r3, [pc, #72]	; c105fa0 <uart0_init+0x90>
 c105f54:	e3a02001 	mov	r2, #1
 c105f58:	e5832000 	str	r2, [r3]
 c105f5c:	e59f3040 	ldr	r3, [pc, #64]	; c105fa4 <uart0_init+0x94>
 c105f60:	e3a02000 	mov	r2, #0
 c105f64:	e5832000 	str	r2, [r3]
 c105f68:	e3a0361d 	mov	r3, #30408704	; 0x1d00000
 c105f6c:	e3a02003 	mov	r2, #3
 c105f70:	e5832000 	str	r2, [r3]
 c105f74:	e59f302c 	ldr	r3, [pc, #44]	; c105fa8 <uart0_init+0x98>
 c105f78:	e3a02022 	mov	r2, #34	; 0x22
 c105f7c:	e5832000 	str	r2, [r3]
 c105f80:	e59f3024 	ldr	r3, [pc, #36]	; c105fac <uart0_init+0x9c>
 c105f84:	e3a02005 	mov	r2, #5
 c105f88:	e5832000 	str	r2, [r3]
 c105f8c:	e24bd00c 	sub	sp, fp, #12
 c105f90:	e89d6800 	ldm	sp, {fp, sp, lr}
 c105f94:	e12fff1e 	bx	lr
 c105f98:	01d20028 	.word	0x01d20028
 c105f9c:	01d20030 	.word	0x01d20030
 c105fa0:	01d00008 	.word	0x01d00008
 c105fa4:	01d0000c 	.word	0x01d0000c
 c105fa8:	01d00028 	.word	0x01d00028
 c105fac:	01d00004 	.word	0x01d00004

0c105fb0 <uart0_putchar>:
 c105fb0:	e1a0c00d 	mov	ip, sp
 c105fb4:	e92dd800 	push	{fp, ip, lr, pc}
 c105fb8:	e24cb004 	sub	fp, ip, #4
 c105fbc:	e24dd008 	sub	sp, sp, #8
 c105fc0:	e1a03000 	mov	r3, r0
 c105fc4:	e54b300d 	strb	r3, [fp, #-13]
 c105fc8:	e1a00000 	nop			; (mov r0, r0)
 c105fcc:	e59f3024 	ldr	r3, [pc, #36]	; c105ff8 <uart0_putchar+0x48>
 c105fd0:	e5933000 	ldr	r3, [r3]
 c105fd4:	e2033c02 	and	r3, r3, #512	; 0x200
 c105fd8:	e3530000 	cmp	r3, #0
 c105fdc:	1afffffa 	bne	c105fcc <uart0_putchar+0x1c>
 c105fe0:	e59f3014 	ldr	r3, [pc, #20]	; c105ffc <uart0_putchar+0x4c>
 c105fe4:	e55b200d 	ldrb	r2, [fp, #-13]
 c105fe8:	e5832000 	str	r2, [r3]
 c105fec:	e24bd00c 	sub	sp, fp, #12
 c105ff0:	e89d6800 	ldm	sp, {fp, sp, lr}
 c105ff4:	e12fff1e 	bx	lr
 c105ff8:	01d00018 	.word	0x01d00018
 c105ffc:	01d00020 	.word	0x01d00020

0c106000 <uart0_getchar>:
 c106000:	e1a0c00d 	mov	ip, sp
 c106004:	e92dd800 	push	{fp, ip, lr, pc}
 c106008:	e24cb004 	sub	fp, ip, #4
 c10600c:	e24dd008 	sub	sp, sp, #8
 c106010:	e1a00000 	nop			; (mov r0, r0)
 c106014:	e59f302c 	ldr	r3, [pc, #44]	; c106048 <uart0_getchar+0x48>
 c106018:	e5933000 	ldr	r3, [r3]
 c10601c:	e203300f 	and	r3, r3, #15
 c106020:	e3530000 	cmp	r3, #0
 c106024:	0afffffa 	beq	c106014 <uart0_getchar+0x14>
 c106028:	e59f301c 	ldr	r3, [pc, #28]	; c10604c <uart0_getchar+0x4c>
 c10602c:	e5933000 	ldr	r3, [r3]
 c106030:	e54b300d 	strb	r3, [fp, #-13]
 c106034:	e55b300d 	ldrb	r3, [fp, #-13]
 c106038:	e1a00003 	mov	r0, r3
 c10603c:	e24bd00c 	sub	sp, fp, #12
 c106040:	e89d6800 	ldm	sp, {fp, sp, lr}
 c106044:	e12fff1e 	bx	lr
 c106048:	01d00018 	.word	0x01d00018
 c10604c:	01d00024 	.word	0x01d00024

0c106050 <uart0_puts>:
 c106050:	e1a0c00d 	mov	ip, sp
 c106054:	e92dd800 	push	{fp, ip, lr, pc}
 c106058:	e24cb004 	sub	fp, ip, #4
 c10605c:	e24dd008 	sub	sp, sp, #8
 c106060:	e50b0010 	str	r0, [fp, #-16]
 c106064:	ea000006 	b	c106084 <uart0_puts+0x34>
 c106068:	e51b3010 	ldr	r3, [fp, #-16]
 c10606c:	e5d33000 	ldrb	r3, [r3]
 c106070:	e51b2010 	ldr	r2, [fp, #-16]
 c106074:	e2822001 	add	r2, r2, #1
 c106078:	e50b2010 	str	r2, [fp, #-16]
 c10607c:	e1a00003 	mov	r0, r3
 c106080:	ebffffca 	bl	c105fb0 <uart0_putchar>
 c106084:	e51b3010 	ldr	r3, [fp, #-16]
 c106088:	e5d33000 	ldrb	r3, [r3]
 c10608c:	e3530000 	cmp	r3, #0
 c106090:	1afffff4 	bne	c106068 <uart0_puts+0x18>
 c106094:	e24bd00c 	sub	sp, fp, #12
 c106098:	e89d6800 	ldm	sp, {fp, sp, lr}
 c10609c:	e12fff1e 	bx	lr

0c1060a0 <uart0_putint>:
 c1060a0:	e1a0c00d 	mov	ip, sp
 c1060a4:	e92dd800 	push	{fp, ip, lr, pc}
 c1060a8:	e24cb004 	sub	fp, ip, #4
 c1060ac:	e24dd018 	sub	sp, sp, #24
 c1060b0:	e50b0020 	str	r0, [fp, #-32]	; 0xffffffe0
 c1060b4:	e24b301c 	sub	r3, fp, #28
 c1060b8:	e283300b 	add	r3, r3, #11
 c1060bc:	e50b3010 	str	r3, [fp, #-16]
 c1060c0:	e51b3010 	ldr	r3, [fp, #-16]
 c1060c4:	e3a02000 	mov	r2, #0
 c1060c8:	e5c32000 	strb	r2, [r3]
 c1060cc:	e51b3020 	ldr	r3, [fp, #-32]	; 0xffffffe0
 c1060d0:	e3530000 	cmp	r3, #0
 c1060d4:	ba00001d 	blt	c106150 <uart0_putint+0xb0>
 c1060d8:	e51b3010 	ldr	r3, [fp, #-16]
 c1060dc:	e2433001 	sub	r3, r3, #1
 c1060e0:	e50b3010 	str	r3, [fp, #-16]
 c1060e4:	e51b1020 	ldr	r1, [fp, #-32]	; 0xffffffe0
 c1060e8:	e59f3100 	ldr	r3, [pc, #256]	; c1061f0 <uart0_putint+0x150>
 c1060ec:	e0c32391 	smull	r2, r3, r1, r3
 c1060f0:	e1a02143 	asr	r2, r3, #2
 c1060f4:	e1a03fc1 	asr	r3, r1, #31
 c1060f8:	e0632002 	rsb	r2, r3, r2
 c1060fc:	e1a03002 	mov	r3, r2
 c106100:	e1a03103 	lsl	r3, r3, #2
 c106104:	e0833002 	add	r3, r3, r2
 c106108:	e1a03083 	lsl	r3, r3, #1
 c10610c:	e0632001 	rsb	r2, r3, r1
 c106110:	e20230ff 	and	r3, r2, #255	; 0xff
 c106114:	e2833030 	add	r3, r3, #48	; 0x30
 c106118:	e20320ff 	and	r2, r3, #255	; 0xff
 c10611c:	e51b3010 	ldr	r3, [fp, #-16]
 c106120:	e5c32000 	strb	r2, [r3]
 c106124:	e51b3020 	ldr	r3, [fp, #-32]	; 0xffffffe0
 c106128:	e59f20c0 	ldr	r2, [pc, #192]	; c1061f0 <uart0_putint+0x150>
 c10612c:	e0c21293 	smull	r1, r2, r3, r2
 c106130:	e1a02142 	asr	r2, r2, #2
 c106134:	e1a03fc3 	asr	r3, r3, #31
 c106138:	e0633002 	rsb	r3, r3, r2
 c10613c:	e50b3020 	str	r3, [fp, #-32]	; 0xffffffe0
 c106140:	e51b3020 	ldr	r3, [fp, #-32]	; 0xffffffe0
 c106144:	e3530000 	cmp	r3, #0
 c106148:	1affffe2 	bne	c1060d8 <uart0_putint+0x38>
 c10614c:	ea000022 	b	c1061dc <uart0_putint+0x13c>
 c106150:	e51b3010 	ldr	r3, [fp, #-16]
 c106154:	e2433001 	sub	r3, r3, #1
 c106158:	e50b3010 	str	r3, [fp, #-16]
 c10615c:	e51b1020 	ldr	r1, [fp, #-32]	; 0xffffffe0
 c106160:	e59f3088 	ldr	r3, [pc, #136]	; c1061f0 <uart0_putint+0x150>
 c106164:	e0c32391 	smull	r2, r3, r1, r3
 c106168:	e1a02143 	asr	r2, r3, #2
 c10616c:	e1a03fc1 	asr	r3, r1, #31
 c106170:	e0632002 	rsb	r2, r3, r2
 c106174:	e1a03002 	mov	r3, r2
 c106178:	e1a03103 	lsl	r3, r3, #2
 c10617c:	e0833002 	add	r3, r3, r2
 c106180:	e1a03083 	lsl	r3, r3, #1
 c106184:	e0632001 	rsb	r2, r3, r1
 c106188:	e20230ff 	and	r3, r2, #255	; 0xff
 c10618c:	e2633030 	rsb	r3, r3, #48	; 0x30
 c106190:	e20320ff 	and	r2, r3, #255	; 0xff
 c106194:	e51b3010 	ldr	r3, [fp, #-16]
 c106198:	e5c32000 	strb	r2, [r3]
 c10619c:	e51b3020 	ldr	r3, [fp, #-32]	; 0xffffffe0
 c1061a0:	e59f2048 	ldr	r2, [pc, #72]	; c1061f0 <uart0_putint+0x150>
 c1061a4:	e0c21293 	smull	r1, r2, r3, r2
 c1061a8:	e1a02142 	asr	r2, r2, #2
 c1061ac:	e1a03fc3 	asr	r3, r3, #31
 c1061b0:	e0633002 	rsb	r3, r3, r2
 c1061b4:	e50b3020 	str	r3, [fp, #-32]	; 0xffffffe0
 c1061b8:	e51b3020 	ldr	r3, [fp, #-32]	; 0xffffffe0
 c1061bc:	e3530000 	cmp	r3, #0
 c1061c0:	1affffe2 	bne	c106150 <uart0_putint+0xb0>
 c1061c4:	e51b3010 	ldr	r3, [fp, #-16]
 c1061c8:	e2433001 	sub	r3, r3, #1
 c1061cc:	e50b3010 	str	r3, [fp, #-16]
 c1061d0:	e51b3010 	ldr	r3, [fp, #-16]
 c1061d4:	e3a0202d 	mov	r2, #45	; 0x2d
 c1061d8:	e5c32000 	strb	r2, [r3]
 c1061dc:	e51b0010 	ldr	r0, [fp, #-16]
 c1061e0:	ebffff9a 	bl	c106050 <uart0_puts>
 c1061e4:	e24bd00c 	sub	sp, fp, #12
 c1061e8:	e89d6800 	ldm	sp, {fp, sp, lr}
 c1061ec:	e12fff1e 	bx	lr
 c1061f0:	66666667 	.word	0x66666667

0c1061f4 <uart0_puthex>:
 c1061f4:	e1a0c00d 	mov	ip, sp
 c1061f8:	e92dd800 	push	{fp, ip, lr, pc}
 c1061fc:	e24cb004 	sub	fp, ip, #4
 c106200:	e24dd018 	sub	sp, sp, #24
 c106204:	e50b0020 	str	r0, [fp, #-32]	; 0xffffffe0
 c106208:	e24b301c 	sub	r3, fp, #28
 c10620c:	e2833008 	add	r3, r3, #8
 c106210:	e50b3010 	str	r3, [fp, #-16]
 c106214:	e51b3010 	ldr	r3, [fp, #-16]
 c106218:	e3a02000 	mov	r2, #0
 c10621c:	e5c32000 	strb	r2, [r3]
 c106220:	e51b3020 	ldr	r3, [fp, #-32]	; 0xffffffe0
 c106224:	e20330ff 	and	r3, r3, #255	; 0xff
 c106228:	e203300f 	and	r3, r3, #15
 c10622c:	e54b3011 	strb	r3, [fp, #-17]	; 0xffffffef
 c106230:	e55b3011 	ldrb	r3, [fp, #-17]	; 0xffffffef
 c106234:	e3530009 	cmp	r3, #9
 c106238:	8a000008 	bhi	c106260 <uart0_puthex+0x6c>
 c10623c:	e51b3010 	ldr	r3, [fp, #-16]
 c106240:	e2433001 	sub	r3, r3, #1
 c106244:	e50b3010 	str	r3, [fp, #-16]
 c106248:	e55b3011 	ldrb	r3, [fp, #-17]	; 0xffffffef
 c10624c:	e2833030 	add	r3, r3, #48	; 0x30
 c106250:	e20320ff 	and	r2, r3, #255	; 0xff
 c106254:	e51b3010 	ldr	r3, [fp, #-16]
 c106258:	e5c32000 	strb	r2, [r3]
 c10625c:	ea000007 	b	c106280 <uart0_puthex+0x8c>
 c106260:	e51b3010 	ldr	r3, [fp, #-16]
 c106264:	e2433001 	sub	r3, r3, #1
 c106268:	e50b3010 	str	r3, [fp, #-16]
 c10626c:	e55b3011 	ldrb	r3, [fp, #-17]	; 0xffffffef
 c106270:	e2833057 	add	r3, r3, #87	; 0x57
 c106274:	e20320ff 	and	r2, r3, #255	; 0xff
 c106278:	e51b3010 	ldr	r3, [fp, #-16]
 c10627c:	e5c32000 	strb	r2, [r3]
 c106280:	e51b3020 	ldr	r3, [fp, #-32]	; 0xffffffe0
 c106284:	e1a03223 	lsr	r3, r3, #4
 c106288:	e50b3020 	str	r3, [fp, #-32]	; 0xffffffe0
 c10628c:	e51b3020 	ldr	r3, [fp, #-32]	; 0xffffffe0
 c106290:	e3530000 	cmp	r3, #0
 c106294:	1affffe1 	bne	c106220 <uart0_puthex+0x2c>
 c106298:	e51b0010 	ldr	r0, [fp, #-16]
 c10629c:	ebffff6b 	bl	c106050 <uart0_puts>
 c1062a0:	e24bd00c 	sub	sp, fp, #12
 c1062a4:	e89d6800 	ldm	sp, {fp, sp, lr}
 c1062a8:	e12fff1e 	bx	lr

0c1062ac <uart0_gets>:
 c1062ac:	e1a0c00d 	mov	ip, sp
 c1062b0:	e92dd800 	push	{fp, ip, lr, pc}
 c1062b4:	e24cb004 	sub	fp, ip, #4
 c1062b8:	e24dd010 	sub	sp, sp, #16
 c1062bc:	e50b0018 	str	r0, [fp, #-24]	; 0xffffffe8
 c1062c0:	ea000005 	b	c1062dc <uart0_gets+0x30>
 c1062c4:	e51b3018 	ldr	r3, [fp, #-24]	; 0xffffffe8
 c1062c8:	e55b200d 	ldrb	r2, [fp, #-13]
 c1062cc:	e5c32000 	strb	r2, [r3]
 c1062d0:	e51b3018 	ldr	r3, [fp, #-24]	; 0xffffffe8
 c1062d4:	e2833001 	add	r3, r3, #1
 c1062d8:	e50b3018 	str	r3, [fp, #-24]	; 0xffffffe8
 c1062dc:	ebffff47 	bl	c106000 <uart0_getchar>
 c1062e0:	e1a03000 	mov	r3, r0
 c1062e4:	e54b300d 	strb	r3, [fp, #-13]
 c1062e8:	e55b300d 	ldrb	r3, [fp, #-13]
 c1062ec:	e353000a 	cmp	r3, #10
 c1062f0:	1afffff3 	bne	c1062c4 <uart0_gets+0x18>
 c1062f4:	e51b3018 	ldr	r3, [fp, #-24]	; 0xffffffe8
 c1062f8:	e3a02000 	mov	r2, #0
 c1062fc:	e5c32000 	strb	r2, [r3]
 c106300:	e24bd00c 	sub	sp, fp, #12
 c106304:	e89d6800 	ldm	sp, {fp, sp, lr}
 c106308:	e12fff1e 	bx	lr

0c10630c <uart0_getint>:
 c10630c:	e1a0c00d 	mov	ip, sp
 c106310:	e92dd800 	push	{fp, ip, lr, pc}
 c106314:	e24cb004 	sub	fp, ip, #4
 c106318:	e24dde11 	sub	sp, sp, #272	; 0x110
 c10631c:	e24b3f46 	sub	r3, fp, #280	; 0x118
 c106320:	e50b3010 	str	r3, [fp, #-16]
 c106324:	e3a03000 	mov	r3, #0
 c106328:	e50b3014 	str	r3, [fp, #-20]	; 0xffffffec
 c10632c:	e3a03000 	mov	r3, #0
 c106330:	e54b3015 	strb	r3, [fp, #-21]	; 0xffffffeb
 c106334:	e24b3f46 	sub	r3, fp, #280	; 0x118
 c106338:	e1a00003 	mov	r0, r3
 c10633c:	ebffffda 	bl	c1062ac <uart0_gets>
 c106340:	e51b3010 	ldr	r3, [fp, #-16]
 c106344:	e5d33000 	ldrb	r3, [r3]
 c106348:	e353002d 	cmp	r3, #45	; 0x2d
 c10634c:	1a000014 	bne	c1063a4 <uart0_getint+0x98>
 c106350:	e3a03001 	mov	r3, #1
 c106354:	e54b3015 	strb	r3, [fp, #-21]	; 0xffffffeb
 c106358:	e51b3010 	ldr	r3, [fp, #-16]
 c10635c:	e2833001 	add	r3, r3, #1
 c106360:	e50b3010 	str	r3, [fp, #-16]
 c106364:	ea00000f 	b	c1063a8 <uart0_getint+0x9c>
 c106368:	e51b2014 	ldr	r2, [fp, #-20]	; 0xffffffec
 c10636c:	e1a03002 	mov	r3, r2
 c106370:	e1a03103 	lsl	r3, r3, #2
 c106374:	e0833002 	add	r3, r3, r2
 c106378:	e1a03083 	lsl	r3, r3, #1
 c10637c:	e1a02003 	mov	r2, r3
 c106380:	e51b3010 	ldr	r3, [fp, #-16]
 c106384:	e5d33000 	ldrb	r3, [r3]
 c106388:	e2433030 	sub	r3, r3, #48	; 0x30
 c10638c:	e0823003 	add	r3, r2, r3
 c106390:	e50b3014 	str	r3, [fp, #-20]	; 0xffffffec
 c106394:	e51b3010 	ldr	r3, [fp, #-16]
 c106398:	e2833001 	add	r3, r3, #1
 c10639c:	e50b3010 	str	r3, [fp, #-16]
 c1063a0:	ea000000 	b	c1063a8 <uart0_getint+0x9c>
 c1063a4:	e1a00000 	nop			; (mov r0, r0)
 c1063a8:	e51b3010 	ldr	r3, [fp, #-16]
 c1063ac:	e5d33000 	ldrb	r3, [r3]
 c1063b0:	e3530000 	cmp	r3, #0
 c1063b4:	1affffeb 	bne	c106368 <uart0_getint+0x5c>
 c1063b8:	e55b3015 	ldrb	r3, [fp, #-21]	; 0xffffffeb
 c1063bc:	e3530000 	cmp	r3, #0
 c1063c0:	0a000002 	beq	c1063d0 <uart0_getint+0xc4>
 c1063c4:	e51b3014 	ldr	r3, [fp, #-20]	; 0xffffffec
 c1063c8:	e2633000 	rsb	r3, r3, #0
 c1063cc:	e50b3014 	str	r3, [fp, #-20]	; 0xffffffec
 c1063d0:	e51b3014 	ldr	r3, [fp, #-20]	; 0xffffffec
 c1063d4:	e1a00003 	mov	r0, r3
 c1063d8:	e24bd00c 	sub	sp, fp, #12
 c1063dc:	e89d6800 	ldm	sp, {fp, sp, lr}
 c1063e0:	e12fff1e 	bx	lr

0c1063e4 <uart0_gethex>:
 c1063e4:	e1a0c00d 	mov	ip, sp
 c1063e8:	e92dd800 	push	{fp, ip, lr, pc}
 c1063ec:	e24cb004 	sub	fp, ip, #4
 c1063f0:	e24ddf42 	sub	sp, sp, #264	; 0x108
 c1063f4:	e24b3f45 	sub	r3, fp, #276	; 0x114
 c1063f8:	e50b3010 	str	r3, [fp, #-16]
 c1063fc:	e3a03000 	mov	r3, #0
 c106400:	e50b3014 	str	r3, [fp, #-20]	; 0xffffffec
 c106404:	e24b3f45 	sub	r3, fp, #276	; 0x114
 c106408:	e1a00003 	mov	r0, r3
 c10640c:	ebffffa6 	bl	c1062ac <uart0_gets>
 c106410:	ea00002f 	b	c1064d4 <uart0_gethex+0xf0>
 c106414:	e51b3010 	ldr	r3, [fp, #-16]
 c106418:	e5d33000 	ldrb	r3, [r3]
 c10641c:	e3530040 	cmp	r3, #64	; 0x40
 c106420:	9a00000e 	bls	c106460 <uart0_gethex+0x7c>
 c106424:	e51b3010 	ldr	r3, [fp, #-16]
 c106428:	e5d33000 	ldrb	r3, [r3]
 c10642c:	e3530046 	cmp	r3, #70	; 0x46
 c106430:	8a00000a 	bhi	c106460 <uart0_gethex+0x7c>
 c106434:	e51b3014 	ldr	r3, [fp, #-20]	; 0xffffffec
 c106438:	e1a02203 	lsl	r2, r3, #4
 c10643c:	e51b3010 	ldr	r3, [fp, #-16]
 c106440:	e5d33000 	ldrb	r3, [r3]
 c106444:	e0823003 	add	r3, r2, r3
 c106448:	e2433037 	sub	r3, r3, #55	; 0x37
 c10644c:	e50b3014 	str	r3, [fp, #-20]	; 0xffffffec
 c106450:	e51b3010 	ldr	r3, [fp, #-16]
 c106454:	e2833001 	add	r3, r3, #1
 c106458:	e50b3010 	str	r3, [fp, #-16]
 c10645c:	ea00001c 	b	c1064d4 <uart0_gethex+0xf0>
 c106460:	e51b3010 	ldr	r3, [fp, #-16]
 c106464:	e5d33000 	ldrb	r3, [r3]
 c106468:	e3530060 	cmp	r3, #96	; 0x60
 c10646c:	9a00000e 	bls	c1064ac <uart0_gethex+0xc8>
 c106470:	e51b3010 	ldr	r3, [fp, #-16]
 c106474:	e5d33000 	ldrb	r3, [r3]
 c106478:	e3530066 	cmp	r3, #102	; 0x66
 c10647c:	8a00000a 	bhi	c1064ac <uart0_gethex+0xc8>
 c106480:	e51b3014 	ldr	r3, [fp, #-20]	; 0xffffffec
 c106484:	e1a02203 	lsl	r2, r3, #4
 c106488:	e51b3010 	ldr	r3, [fp, #-16]
 c10648c:	e5d33000 	ldrb	r3, [r3]
 c106490:	e0823003 	add	r3, r2, r3
 c106494:	e2433057 	sub	r3, r3, #87	; 0x57
 c106498:	e50b3014 	str	r3, [fp, #-20]	; 0xffffffec
 c10649c:	e51b3010 	ldr	r3, [fp, #-16]
 c1064a0:	e2833001 	add	r3, r3, #1
 c1064a4:	e50b3010 	str	r3, [fp, #-16]
 c1064a8:	ea000009 	b	c1064d4 <uart0_gethex+0xf0>
 c1064ac:	e51b3014 	ldr	r3, [fp, #-20]	; 0xffffffec
 c1064b0:	e1a02203 	lsl	r2, r3, #4
 c1064b4:	e51b3010 	ldr	r3, [fp, #-16]
 c1064b8:	e5d33000 	ldrb	r3, [r3]
 c1064bc:	e0823003 	add	r3, r2, r3
 c1064c0:	e2433030 	sub	r3, r3, #48	; 0x30
 c1064c4:	e50b3014 	str	r3, [fp, #-20]	; 0xffffffec
 c1064c8:	e51b3010 	ldr	r3, [fp, #-16]
 c1064cc:	e2833001 	add	r3, r3, #1
 c1064d0:	e50b3010 	str	r3, [fp, #-16]
 c1064d4:	e51b3010 	ldr	r3, [fp, #-16]
 c1064d8:	e5d33000 	ldrb	r3, [r3]
 c1064dc:	e3530000 	cmp	r3, #0
 c1064e0:	1affffcb 	bne	c106414 <uart0_gethex+0x30>
 c1064e4:	e51b3014 	ldr	r3, [fp, #-20]	; 0xffffffec
 c1064e8:	e1a00003 	mov	r0, r3
 c1064ec:	e24bd00c 	sub	sp, fp, #12
 c1064f0:	e89d6800 	ldm	sp, {fp, sp, lr}
 c1064f4:	e12fff1e 	bx	lr

0c1064f8 <adc_on>:
 c1064f8:	e1a0c00d 	mov	ip, sp
 c1064fc:	e92dd800 	push	{fp, ip, lr, pc}
 c106500:	e24cb004 	sub	fp, ip, #4
 c106504:	e3a0000c 	mov	r0, #12
 c106508:	ebfff00a 	bl	c102538 <power_on>
 c10650c:	e3a03775 	mov	r3, #30670848	; 0x1d40000
 c106510:	e3a02775 	mov	r2, #30670848	; 0x1d40000
 c106514:	e5922000 	ldr	r2, [r2]
 c106518:	e3c22020 	bic	r2, r2, #32
 c10651c:	e5832000 	str	r2, [r3]
 c106520:	e3a0000a 	mov	r0, #10
 c106524:	ebfff9c8 	bl	c104c4c <sw_delay_ms>
 c106528:	e59f3010 	ldr	r3, [pc, #16]	; c106540 <adc_on+0x48>
 c10652c:	e3a02001 	mov	r2, #1
 c106530:	e5c32000 	strb	r2, [r3]
 c106534:	e24bd00c 	sub	sp, fp, #12
 c106538:	e89d6800 	ldm	sp, {fp, sp, lr}
 c10653c:	e12fff1e 	bx	lr
 c106540:	0c112296 	.word	0x0c112296

0c106544 <adc_off>:
 c106544:	e1a0c00d 	mov	ip, sp
 c106548:	e92dd800 	push	{fp, ip, lr, pc}
 c10654c:	e24cb004 	sub	fp, ip, #4
 c106550:	e3a03775 	mov	r3, #30670848	; 0x1d40000
 c106554:	e3a02775 	mov	r2, #30670848	; 0x1d40000
 c106558:	e5922000 	ldr	r2, [r2]
 c10655c:	e3822020 	orr	r2, r2, #32
 c106560:	e5832000 	str	r2, [r3]
 c106564:	e3a0000c 	mov	r0, #12
 c106568:	ebfff02a 	bl	c102618 <power_off>
 c10656c:	e59f3010 	ldr	r3, [pc, #16]	; c106584 <adc_off+0x40>
 c106570:	e3a02000 	mov	r2, #0
 c106574:	e5c32000 	strb	r2, [r3]
 c106578:	e24bd00c 	sub	sp, fp, #12
 c10657c:	e89d6800 	ldm	sp, {fp, sp, lr}
 c106580:	e12fff1e 	bx	lr
 c106584:	0c112296 	.word	0x0c112296

0c106588 <adc_status>:
 c106588:	e1a0c00d 	mov	ip, sp
 c10658c:	e92dd800 	push	{fp, ip, lr, pc}
 c106590:	e24cb004 	sub	fp, ip, #4
 c106594:	e59f3010 	ldr	r3, [pc, #16]	; c1065ac <adc_status+0x24>
 c106598:	e5d33000 	ldrb	r3, [r3]
 c10659c:	e1a00003 	mov	r0, r3
 c1065a0:	e24bd00c 	sub	sp, fp, #12
 c1065a4:	e89d6800 	ldm	sp, {fp, sp, lr}
 c1065a8:	e12fff1e 	bx	lr
 c1065ac:	0c112296 	.word	0x0c112296

0c1065b0 <adc_open>:
 c1065b0:	e1a0c00d 	mov	ip, sp
 c1065b4:	e92dd800 	push	{fp, ip, lr, pc}
 c1065b8:	e24cb004 	sub	fp, ip, #4
 c1065bc:	e24dd008 	sub	sp, sp, #8
 c1065c0:	e50b0010 	str	r0, [fp, #-16]
 c1065c4:	e59f3030 	ldr	r3, [pc, #48]	; c1065fc <adc_open+0x4c>
 c1065c8:	e51b2010 	ldr	r2, [fp, #-16]
 c1065cc:	e5832000 	str	r2, [r3]
 c1065d0:	e59f3028 	ldr	r3, [pc, #40]	; c106600 <adc_open+0x50>
 c1065d4:	e3a02001 	mov	r2, #1
 c1065d8:	e5832000 	str	r2, [r3]
 c1065dc:	e59f3020 	ldr	r3, [pc, #32]	; c106604 <adc_open+0x54>
 c1065e0:	e59f201c 	ldr	r2, [pc, #28]	; c106604 <adc_open+0x54>
 c1065e4:	e5922000 	ldr	r2, [r2]
 c1065e8:	e3c22341 	bic	r2, r2, #67108865	; 0x4000001
 c1065ec:	e5832000 	str	r2, [r3]
 c1065f0:	e24bd00c 	sub	sp, fp, #12
 c1065f4:	e89d6800 	ldm	sp, {fp, sp, lr}
 c1065f8:	e12fff1e 	bx	lr
 c1065fc:	0c7fff20 	.word	0x0c7fff20
 c106600:	01e00024 	.word	0x01e00024
 c106604:	01e0000c 	.word	0x01e0000c

0c106608 <adc_close>:
 c106608:	e1a0c00d 	mov	ip, sp
 c10660c:	e92dd800 	push	{fp, ip, lr, pc}
 c106610:	e24cb004 	sub	fp, ip, #4
 c106614:	e59f3024 	ldr	r3, [pc, #36]	; c106640 <adc_close+0x38>
 c106618:	e59f2020 	ldr	r2, [pc, #32]	; c106640 <adc_close+0x38>
 c10661c:	e5922000 	ldr	r2, [r2]
 c106620:	e3822001 	orr	r2, r2, #1
 c106624:	e5832000 	str	r2, [r3]
 c106628:	e59f3014 	ldr	r3, [pc, #20]	; c106644 <adc_close+0x3c>
 c10662c:	e59f2014 	ldr	r2, [pc, #20]	; c106648 <adc_close+0x40>
 c106630:	e5832000 	str	r2, [r3]
 c106634:	e24bd00c 	sub	sp, fp, #12
 c106638:	e89d6800 	ldm	sp, {fp, sp, lr}
 c10663c:	e12fff1e 	bx	lr
 c106640:	01e0000c 	.word	0x01e0000c
 c106644:	0c7fff20 	.word	0x0c7fff20
 c106648:	0c103be8 	.word	0x0c103be8

0c10664c <adc_init>:
 c10664c:	e1a0c00d 	mov	ip, sp
 c106650:	e92dd800 	push	{fp, ip, lr, pc}
 c106654:	e24cb004 	sub	fp, ip, #4
 c106658:	e59f3028 	ldr	r3, [pc, #40]	; c106688 <adc_init+0x3c>
 c10665c:	e59f2024 	ldr	r2, [pc, #36]	; c106688 <adc_init+0x3c>
 c106660:	e5922000 	ldr	r2, [r2]
 c106664:	e3822d42 	orr	r2, r2, #4224	; 0x1080
 c106668:	e5832000 	str	r2, [r3]
 c10666c:	e59f3018 	ldr	r3, [pc, #24]	; c10668c <adc_init+0x40>
 c106670:	e3a02013 	mov	r2, #19
 c106674:	e5832000 	str	r2, [r3]
 c106678:	ebffffb1 	bl	c106544 <adc_off>
 c10667c:	e24bd00c 	sub	sp, fp, #12
 c106680:	e89d6800 	ldm	sp, {fp, sp, lr}
 c106684:	e12fff1e 	bx	lr
 c106688:	01d80004 	.word	0x01d80004
 c10668c:	01d40004 	.word	0x01d40004

0c106690 <adc_getSample>:
 c106690:	e1a0c00d 	mov	ip, sp
 c106694:	e92dd800 	push	{fp, ip, lr, pc}
 c106698:	e24cb004 	sub	fp, ip, #4
 c10669c:	e24dd010 	sub	sp, sp, #16
 c1066a0:	e1a03000 	mov	r3, r0
 c1066a4:	e54b3015 	strb	r3, [fp, #-21]	; 0xffffffeb
 c1066a8:	e3a03775 	mov	r3, #30670848	; 0x1d40000
 c1066ac:	e55b2015 	ldrb	r2, [fp, #-21]	; 0xffffffeb
 c1066b0:	e1a02102 	lsl	r2, r2, #2
 c1066b4:	e5832000 	str	r2, [r3]
 c1066b8:	e3a0000a 	mov	r0, #10
 c1066bc:	ebfff962 	bl	c104c4c <sw_delay_ms>
 c1066c0:	e3a03000 	mov	r3, #0
 c1066c4:	e54b3011 	strb	r3, [fp, #-17]	; 0xffffffef
 c1066c8:	e3a03000 	mov	r3, #0
 c1066cc:	e50b3010 	str	r3, [fp, #-16]
 c1066d0:	ea00001b 	b	c106744 <adc_getSample+0xb4>
 c1066d4:	e3a03775 	mov	r3, #30670848	; 0x1d40000
 c1066d8:	e3a02775 	mov	r2, #30670848	; 0x1d40000
 c1066dc:	e5922000 	ldr	r2, [r2]
 c1066e0:	e3822001 	orr	r2, r2, #1
 c1066e4:	e5832000 	str	r2, [r3]
 c1066e8:	e1a00000 	nop			; (mov r0, r0)
 c1066ec:	e3a03775 	mov	r3, #30670848	; 0x1d40000
 c1066f0:	e5933000 	ldr	r3, [r3]
 c1066f4:	e2033001 	and	r3, r3, #1
 c1066f8:	e20330ff 	and	r3, r3, #255	; 0xff
 c1066fc:	e3530000 	cmp	r3, #0
 c106700:	1afffff9 	bne	c1066ec <adc_getSample+0x5c>
 c106704:	e1a00000 	nop			; (mov r0, r0)
 c106708:	e3a03775 	mov	r3, #30670848	; 0x1d40000
 c10670c:	e5933000 	ldr	r3, [r3]
 c106710:	e2033040 	and	r3, r3, #64	; 0x40
 c106714:	e3530000 	cmp	r3, #0
 c106718:	0afffffa 	beq	c106708 <adc_getSample+0x78>
 c10671c:	e59f3054 	ldr	r3, [pc, #84]	; c106778 <adc_getSample+0xe8>
 c106720:	e5933000 	ldr	r3, [r3]
 c106724:	e1a03b03 	lsl	r3, r3, #22
 c106728:	e1a03b23 	lsr	r3, r3, #22
 c10672c:	e51b2010 	ldr	r2, [fp, #-16]
 c106730:	e0823003 	add	r3, r2, r3
 c106734:	e50b3010 	str	r3, [fp, #-16]
 c106738:	e55b3011 	ldrb	r3, [fp, #-17]	; 0xffffffef
 c10673c:	e2833001 	add	r3, r3, #1
 c106740:	e54b3011 	strb	r3, [fp, #-17]	; 0xffffffef
 c106744:	e55b3011 	ldrb	r3, [fp, #-17]	; 0xffffffef
 c106748:	e3530004 	cmp	r3, #4
 c10674c:	9affffe0 	bls	c1066d4 <adc_getSample+0x44>
 c106750:	e51b2010 	ldr	r2, [fp, #-16]
 c106754:	e59f3020 	ldr	r3, [pc, #32]	; c10677c <adc_getSample+0xec>
 c106758:	e0831392 	umull	r1, r3, r2, r3
 c10675c:	e1a03123 	lsr	r3, r3, #2
 c106760:	e1a03803 	lsl	r3, r3, #16
 c106764:	e1a03823 	lsr	r3, r3, #16
 c106768:	e1a00003 	mov	r0, r3
 c10676c:	e24bd00c 	sub	sp, fp, #12
 c106770:	e89d6800 	ldm	sp, {fp, sp, lr}
 c106774:	e12fff1e 	bx	lr
 c106778:	01d40008 	.word	0x01d40008
 c10677c:	cccccccd 	.word	0xcccccccd

0c106780 <__aeabi_uidiv>:
 c106780:	e2512001 	subs	r2, r1, #1
 c106784:	012fff1e 	bxeq	lr
 c106788:	3a000036 	bcc	c106868 <__aeabi_uidiv+0xe8>
 c10678c:	e1500001 	cmp	r0, r1
 c106790:	9a000022 	bls	c106820 <__aeabi_uidiv+0xa0>
 c106794:	e1110002 	tst	r1, r2
 c106798:	0a000023 	beq	c10682c <__aeabi_uidiv+0xac>
 c10679c:	e311020e 	tst	r1, #-536870912	; 0xe0000000
 c1067a0:	01a01181 	lsleq	r1, r1, #3
 c1067a4:	03a03008 	moveq	r3, #8
 c1067a8:	13a03001 	movne	r3, #1
 c1067ac:	e3510201 	cmp	r1, #268435456	; 0x10000000
 c1067b0:	31510000 	cmpcc	r1, r0
 c1067b4:	31a01201 	lslcc	r1, r1, #4
 c1067b8:	31a03203 	lslcc	r3, r3, #4
 c1067bc:	3afffffa 	bcc	c1067ac <__aeabi_uidiv+0x2c>
 c1067c0:	e3510102 	cmp	r1, #-2147483648	; 0x80000000
 c1067c4:	31510000 	cmpcc	r1, r0
 c1067c8:	31a01081 	lslcc	r1, r1, #1
 c1067cc:	31a03083 	lslcc	r3, r3, #1
 c1067d0:	3afffffa 	bcc	c1067c0 <__aeabi_uidiv+0x40>
 c1067d4:	e3a02000 	mov	r2, #0
 c1067d8:	e1500001 	cmp	r0, r1
 c1067dc:	20400001 	subcs	r0, r0, r1
 c1067e0:	21822003 	orrcs	r2, r2, r3
 c1067e4:	e15000a1 	cmp	r0, r1, lsr #1
 c1067e8:	204000a1 	subcs	r0, r0, r1, lsr #1
 c1067ec:	218220a3 	orrcs	r2, r2, r3, lsr #1
 c1067f0:	e1500121 	cmp	r0, r1, lsr #2
 c1067f4:	20400121 	subcs	r0, r0, r1, lsr #2
 c1067f8:	21822123 	orrcs	r2, r2, r3, lsr #2
 c1067fc:	e15001a1 	cmp	r0, r1, lsr #3
 c106800:	204001a1 	subcs	r0, r0, r1, lsr #3
 c106804:	218221a3 	orrcs	r2, r2, r3, lsr #3
 c106808:	e3500000 	cmp	r0, #0
 c10680c:	11b03223 	lsrsne	r3, r3, #4
 c106810:	11a01221 	lsrne	r1, r1, #4
 c106814:	1affffef 	bne	c1067d8 <__aeabi_uidiv+0x58>
 c106818:	e1a00002 	mov	r0, r2
 c10681c:	e12fff1e 	bx	lr
 c106820:	03a00001 	moveq	r0, #1
 c106824:	13a00000 	movne	r0, #0
 c106828:	e12fff1e 	bx	lr
 c10682c:	e3510801 	cmp	r1, #65536	; 0x10000
 c106830:	21a01821 	lsrcs	r1, r1, #16
 c106834:	23a02010 	movcs	r2, #16
 c106838:	33a02000 	movcc	r2, #0
 c10683c:	e3510c01 	cmp	r1, #256	; 0x100
 c106840:	21a01421 	lsrcs	r1, r1, #8
 c106844:	22822008 	addcs	r2, r2, #8
 c106848:	e3510010 	cmp	r1, #16
 c10684c:	21a01221 	lsrcs	r1, r1, #4
 c106850:	22822004 	addcs	r2, r2, #4
 c106854:	e3510004 	cmp	r1, #4
 c106858:	82822003 	addhi	r2, r2, #3
 c10685c:	908220a1 	addls	r2, r2, r1, lsr #1
 c106860:	e1a00230 	lsr	r0, r0, r2
 c106864:	e12fff1e 	bx	lr
 c106868:	e3500000 	cmp	r0, #0
 c10686c:	13e00000 	mvnne	r0, #0
 c106870:	ea000059 	b	c1069dc <__aeabi_idiv0>

0c106874 <__aeabi_uidivmod>:
 c106874:	e3510000 	cmp	r1, #0
 c106878:	0afffffa 	beq	c106868 <__aeabi_uidiv+0xe8>
 c10687c:	e92d4003 	push	{r0, r1, lr}
 c106880:	ebffffbe 	bl	c106780 <__aeabi_uidiv>
 c106884:	e8bd4006 	pop	{r1, r2, lr}
 c106888:	e0030092 	mul	r3, r2, r0
 c10688c:	e0411003 	sub	r1, r1, r3
 c106890:	e12fff1e 	bx	lr

0c106894 <__aeabi_idiv>:
 c106894:	e3510000 	cmp	r1, #0
 c106898:	0a000043 	beq	c1069ac <.divsi3_skip_div0_test+0x110>

0c10689c <.divsi3_skip_div0_test>:
 c10689c:	e020c001 	eor	ip, r0, r1
 c1068a0:	42611000 	rsbmi	r1, r1, #0
 c1068a4:	e2512001 	subs	r2, r1, #1
 c1068a8:	0a000027 	beq	c10694c <.divsi3_skip_div0_test+0xb0>
 c1068ac:	e1b03000 	movs	r3, r0
 c1068b0:	42603000 	rsbmi	r3, r0, #0
 c1068b4:	e1530001 	cmp	r3, r1
 c1068b8:	9a000026 	bls	c106958 <.divsi3_skip_div0_test+0xbc>
 c1068bc:	e1110002 	tst	r1, r2
 c1068c0:	0a000028 	beq	c106968 <.divsi3_skip_div0_test+0xcc>
 c1068c4:	e311020e 	tst	r1, #-536870912	; 0xe0000000
 c1068c8:	01a01181 	lsleq	r1, r1, #3
 c1068cc:	03a02008 	moveq	r2, #8
 c1068d0:	13a02001 	movne	r2, #1
 c1068d4:	e3510201 	cmp	r1, #268435456	; 0x10000000
 c1068d8:	31510003 	cmpcc	r1, r3
 c1068dc:	31a01201 	lslcc	r1, r1, #4
 c1068e0:	31a02202 	lslcc	r2, r2, #4
 c1068e4:	3afffffa 	bcc	c1068d4 <.divsi3_skip_div0_test+0x38>
 c1068e8:	e3510102 	cmp	r1, #-2147483648	; 0x80000000
 c1068ec:	31510003 	cmpcc	r1, r3
 c1068f0:	31a01081 	lslcc	r1, r1, #1
 c1068f4:	31a02082 	lslcc	r2, r2, #1
 c1068f8:	3afffffa 	bcc	c1068e8 <.divsi3_skip_div0_test+0x4c>
 c1068fc:	e3a00000 	mov	r0, #0
 c106900:	e1530001 	cmp	r3, r1
 c106904:	20433001 	subcs	r3, r3, r1
 c106908:	21800002 	orrcs	r0, r0, r2
 c10690c:	e15300a1 	cmp	r3, r1, lsr #1
 c106910:	204330a1 	subcs	r3, r3, r1, lsr #1
 c106914:	218000a2 	orrcs	r0, r0, r2, lsr #1
 c106918:	e1530121 	cmp	r3, r1, lsr #2
 c10691c:	20433121 	subcs	r3, r3, r1, lsr #2
 c106920:	21800122 	orrcs	r0, r0, r2, lsr #2
 c106924:	e15301a1 	cmp	r3, r1, lsr #3
 c106928:	204331a1 	subcs	r3, r3, r1, lsr #3
 c10692c:	218001a2 	orrcs	r0, r0, r2, lsr #3
 c106930:	e3530000 	cmp	r3, #0
 c106934:	11b02222 	lsrsne	r2, r2, #4
 c106938:	11a01221 	lsrne	r1, r1, #4
 c10693c:	1affffef 	bne	c106900 <.divsi3_skip_div0_test+0x64>
 c106940:	e35c0000 	cmp	ip, #0
 c106944:	42600000 	rsbmi	r0, r0, #0
 c106948:	e12fff1e 	bx	lr
 c10694c:	e13c0000 	teq	ip, r0
 c106950:	42600000 	rsbmi	r0, r0, #0
 c106954:	e12fff1e 	bx	lr
 c106958:	33a00000 	movcc	r0, #0
 c10695c:	01a00fcc 	asreq	r0, ip, #31
 c106960:	03800001 	orreq	r0, r0, #1
 c106964:	e12fff1e 	bx	lr
 c106968:	e3510801 	cmp	r1, #65536	; 0x10000
 c10696c:	21a01821 	lsrcs	r1, r1, #16
 c106970:	23a02010 	movcs	r2, #16
 c106974:	33a02000 	movcc	r2, #0
 c106978:	e3510c01 	cmp	r1, #256	; 0x100
 c10697c:	21a01421 	lsrcs	r1, r1, #8
 c106980:	22822008 	addcs	r2, r2, #8
 c106984:	e3510010 	cmp	r1, #16
 c106988:	21a01221 	lsrcs	r1, r1, #4
 c10698c:	22822004 	addcs	r2, r2, #4
 c106990:	e3510004 	cmp	r1, #4
 c106994:	82822003 	addhi	r2, r2, #3
 c106998:	908220a1 	addls	r2, r2, r1, lsr #1
 c10699c:	e35c0000 	cmp	ip, #0
 c1069a0:	e1a00233 	lsr	r0, r3, r2
 c1069a4:	42600000 	rsbmi	r0, r0, #0
 c1069a8:	e12fff1e 	bx	lr
 c1069ac:	e3500000 	cmp	r0, #0
 c1069b0:	c3e00102 	mvngt	r0, #-2147483648	; 0x80000000
 c1069b4:	b3a00102 	movlt	r0, #-2147483648	; 0x80000000
 c1069b8:	ea000007 	b	c1069dc <__aeabi_idiv0>

0c1069bc <__aeabi_idivmod>:
 c1069bc:	e3510000 	cmp	r1, #0
 c1069c0:	0afffff9 	beq	c1069ac <.divsi3_skip_div0_test+0x110>
 c1069c4:	e92d4003 	push	{r0, r1, lr}
 c1069c8:	ebffffb3 	bl	c10689c <.divsi3_skip_div0_test>
 c1069cc:	e8bd4006 	pop	{r1, r2, lr}
 c1069d0:	e0030092 	mul	r3, r2, r0
 c1069d4:	e0411003 	sub	r1, r1, r3
 c1069d8:	e12fff1e 	bx	lr

0c1069dc <__aeabi_idiv0>:
 c1069dc:	e12fff1e 	bx	lr

0c1069e0 <__aeabi_uldivmod>:
 c1069e0:	e3530000 	cmp	r3, #0
 c1069e4:	03520000 	cmpeq	r2, #0
 c1069e8:	1a000004 	bne	c106a00 <__aeabi_uldivmod+0x20>
 c1069ec:	e3510000 	cmp	r1, #0
 c1069f0:	03500000 	cmpeq	r0, #0
 c1069f4:	13e01000 	mvnne	r1, #0
 c1069f8:	13e00000 	mvnne	r0, #0
 c1069fc:	eafffff6 	b	c1069dc <__aeabi_idiv0>
 c106a00:	e24dd008 	sub	sp, sp, #8
 c106a04:	e92d6000 	push	{sp, lr}
 c106a08:	eb000013 	bl	c106a5c <__gnu_uldivmod_helper>
 c106a0c:	e59de004 	ldr	lr, [sp, #4]
 c106a10:	e28dd008 	add	sp, sp, #8
 c106a14:	e8bd000c 	pop	{r2, r3}
 c106a18:	e12fff1e 	bx	lr

0c106a1c <__gnu_ldivmod_helper>:
 c106a1c:	e92d40f8 	push	{r3, r4, r5, r6, r7, lr}
 c106a20:	e1a04002 	mov	r4, r2
 c106a24:	e1a07003 	mov	r7, r3
 c106a28:	e1a05000 	mov	r5, r0
 c106a2c:	e1a06001 	mov	r6, r1
 c106a30:	eb000019 	bl	c106a9c <__divdi3>
 c106a34:	e0070790 	mul	r7, r0, r7
 c106a38:	e0832490 	umull	r2, r3, r0, r4
 c106a3c:	e0247491 	mla	r4, r1, r4, r7
 c106a40:	e0843003 	add	r3, r4, r3
 c106a44:	e0555002 	subs	r5, r5, r2
 c106a48:	e0c66003 	sbc	r6, r6, r3
 c106a4c:	e59d3018 	ldr	r3, [sp, #24]
 c106a50:	e8830060 	stm	r3, {r5, r6}
 c106a54:	e8bd40f8 	pop	{r3, r4, r5, r6, r7, lr}
 c106a58:	e12fff1e 	bx	lr

0c106a5c <__gnu_uldivmod_helper>:
 c106a5c:	e92d40f8 	push	{r3, r4, r5, r6, r7, lr}
 c106a60:	e1a04002 	mov	r4, r2
 c106a64:	e1a07003 	mov	r7, r3
 c106a68:	e1a05000 	mov	r5, r0
 c106a6c:	e1a06001 	mov	r6, r1
 c106a70:	eb000133 	bl	c106f44 <__udivdi3>
 c106a74:	e0070790 	mul	r7, r0, r7
 c106a78:	e0832490 	umull	r2, r3, r0, r4
 c106a7c:	e0247491 	mla	r4, r1, r4, r7
 c106a80:	e0843003 	add	r3, r4, r3
 c106a84:	e0555002 	subs	r5, r5, r2
 c106a88:	e0c66003 	sbc	r6, r6, r3
 c106a8c:	e59d3018 	ldr	r3, [sp, #24]
 c106a90:	e8830060 	stm	r3, {r5, r6}
 c106a94:	e8bd40f8 	pop	{r3, r4, r5, r6, r7, lr}
 c106a98:	e12fff1e 	bx	lr

0c106a9c <__divdi3>:
 c106a9c:	e92d4ff0 	push	{r4, r5, r6, r7, r8, r9, sl, fp, lr}
 c106aa0:	e3510000 	cmp	r1, #0
 c106aa4:	e24dd014 	sub	sp, sp, #20
 c106aa8:	e1a0c003 	mov	ip, r3
 c106aac:	a3a07000 	movge	r7, #0
 c106ab0:	ba000094 	blt	c106d08 <__divdi3+0x26c>
 c106ab4:	e35c0000 	cmp	ip, #0
 c106ab8:	ba00008e 	blt	c106cf8 <__divdi3+0x25c>
 c106abc:	e253a000 	subs	sl, r3, #0
 c106ac0:	e1a0b000 	mov	fp, r0
 c106ac4:	e1a08001 	mov	r8, r1
 c106ac8:	e1a09002 	mov	r9, r2
 c106acc:	e1a04002 	mov	r4, r2
 c106ad0:	e1a05000 	mov	r5, r0
 c106ad4:	e1a06001 	mov	r6, r1
 c106ad8:	1a00003e 	bne	c106bd8 <__divdi3+0x13c>
 c106adc:	e1520001 	cmp	r2, r1
 c106ae0:	9a00004c 	bls	c106c18 <__divdi3+0x17c>
 c106ae4:	e1a00002 	mov	r0, r2
 c106ae8:	eb000222 	bl	c107378 <__clzsi2>
 c106aec:	e3500000 	cmp	r0, #0
 c106af0:	12603020 	rsbne	r3, r0, #32
 c106af4:	11a0333b 	lsrne	r3, fp, r3
 c106af8:	11a04019 	lslne	r4, r9, r0
 c106afc:	11836018 	orrne	r6, r3, r8, lsl r0
 c106b00:	e1a09824 	lsr	r9, r4, #16
 c106b04:	11a0501b 	lslne	r5, fp, r0
 c106b08:	e1a01009 	mov	r1, r9
 c106b0c:	e1a00006 	mov	r0, r6
 c106b10:	ebffff1a 	bl	c106780 <__aeabi_uidiv>
 c106b14:	e1a01009 	mov	r1, r9
 c106b18:	e1a0a000 	mov	sl, r0
 c106b1c:	e1a00006 	mov	r0, r6
 c106b20:	ebffff53 	bl	c106874 <__aeabi_uidivmod>
 c106b24:	e1a08804 	lsl	r8, r4, #16
 c106b28:	e1a08828 	lsr	r8, r8, #16
 c106b2c:	e0030a98 	mul	r3, r8, sl
 c106b30:	e1a0b825 	lsr	fp, r5, #16
 c106b34:	e18bb801 	orr	fp, fp, r1, lsl #16
 c106b38:	e153000b 	cmp	r3, fp
 c106b3c:	9a000005 	bls	c106b58 <__divdi3+0xbc>
 c106b40:	e09bb004 	adds	fp, fp, r4
 c106b44:	e24aa001 	sub	sl, sl, #1
 c106b48:	2a000002 	bcs	c106b58 <__divdi3+0xbc>
 c106b4c:	e153000b 	cmp	r3, fp
 c106b50:	824aa001 	subhi	sl, sl, #1
 c106b54:	808bb004 	addhi	fp, fp, r4
 c106b58:	e063b00b 	rsb	fp, r3, fp
 c106b5c:	e1a01009 	mov	r1, r9
 c106b60:	e1a0000b 	mov	r0, fp
 c106b64:	ebffff05 	bl	c106780 <__aeabi_uidiv>
 c106b68:	e1a01009 	mov	r1, r9
 c106b6c:	e1a06000 	mov	r6, r0
 c106b70:	e1a0000b 	mov	r0, fp
 c106b74:	ebffff3e 	bl	c106874 <__aeabi_uidivmod>
 c106b78:	e0080896 	mul	r8, r6, r8
 c106b7c:	e1a00805 	lsl	r0, r5, #16
 c106b80:	e1a05820 	lsr	r5, r0, #16
 c106b84:	e1855801 	orr	r5, r5, r1, lsl #16
 c106b88:	e1580005 	cmp	r8, r5
 c106b8c:	9a000004 	bls	c106ba4 <__divdi3+0x108>
 c106b90:	e0955004 	adds	r5, r5, r4
 c106b94:	e2466001 	sub	r6, r6, #1
 c106b98:	2a000001 	bcs	c106ba4 <__divdi3+0x108>
 c106b9c:	e1580005 	cmp	r8, r5
 c106ba0:	82466001 	subhi	r6, r6, #1
 c106ba4:	e186680a 	orr	r6, r6, sl, lsl #16
 c106ba8:	e3a09000 	mov	r9, #0
 c106bac:	e3570000 	cmp	r7, #0
 c106bb0:	e1a03006 	mov	r3, r6
 c106bb4:	e1a04009 	mov	r4, r9
 c106bb8:	0a000001 	beq	c106bc4 <__divdi3+0x128>
 c106bbc:	e2733000 	rsbs	r3, r3, #0
 c106bc0:	e2e44000 	rsc	r4, r4, #0
 c106bc4:	e1a00003 	mov	r0, r3
 c106bc8:	e1a01004 	mov	r1, r4
 c106bcc:	e28dd014 	add	sp, sp, #20
 c106bd0:	e8bd4ff0 	pop	{r4, r5, r6, r7, r8, r9, sl, fp, lr}
 c106bd4:	e12fff1e 	bx	lr
 c106bd8:	e15a0001 	cmp	sl, r1
 c106bdc:	83a09000 	movhi	r9, #0
 c106be0:	81a06009 	movhi	r6, r9
 c106be4:	8afffff0 	bhi	c106bac <__divdi3+0x110>
 c106be8:	e1a00003 	mov	r0, r3
 c106bec:	eb0001e1 	bl	c107378 <__clzsi2>
 c106bf0:	e2504000 	subs	r4, r0, #0
 c106bf4:	1a00007a 	bne	c106de4 <__divdi3+0x348>
 c106bf8:	e15a0008 	cmp	sl, r8
 c106bfc:	2159000b 	cmpcs	r9, fp
 c106c00:	83a09000 	movhi	r9, #0
 c106c04:	93a09001 	movls	r9, #1
 c106c08:	93a06001 	movls	r6, #1
 c106c0c:	91a09004 	movls	r9, r4
 c106c10:	81a06009 	movhi	r6, r9
 c106c14:	eaffffe4 	b	c106bac <__divdi3+0x110>
 c106c18:	e3520000 	cmp	r2, #0
 c106c1c:	1a000003 	bne	c106c30 <__divdi3+0x194>
 c106c20:	e3a00001 	mov	r0, #1
 c106c24:	e1a01002 	mov	r1, r2
 c106c28:	ebfffed4 	bl	c106780 <__aeabi_uidiv>
 c106c2c:	e1a04000 	mov	r4, r0
 c106c30:	e1a00004 	mov	r0, r4
 c106c34:	eb0001cf 	bl	c107378 <__clzsi2>
 c106c38:	e2503000 	subs	r3, r0, #0
 c106c3c:	1a000035 	bne	c106d18 <__divdi3+0x27c>
 c106c40:	e3a01001 	mov	r1, #1
 c106c44:	e1a09804 	lsl	r9, r4, #16
 c106c48:	e58d1008 	str	r1, [sp, #8]
 c106c4c:	e0646006 	rsb	r6, r4, r6
 c106c50:	e1a08824 	lsr	r8, r4, #16
 c106c54:	e1a09829 	lsr	r9, r9, #16
 c106c58:	e1a01008 	mov	r1, r8
 c106c5c:	e1a00006 	mov	r0, r6
 c106c60:	ebfffec6 	bl	c106780 <__aeabi_uidiv>
 c106c64:	e1a01008 	mov	r1, r8
 c106c68:	e1a0a000 	mov	sl, r0
 c106c6c:	e1a00006 	mov	r0, r6
 c106c70:	ebfffeff 	bl	c106874 <__aeabi_uidivmod>
 c106c74:	e0030a99 	mul	r3, r9, sl
 c106c78:	e1a0c825 	lsr	ip, r5, #16
 c106c7c:	e18cb801 	orr	fp, ip, r1, lsl #16
 c106c80:	e153000b 	cmp	r3, fp
 c106c84:	9a000005 	bls	c106ca0 <__divdi3+0x204>
 c106c88:	e09bb004 	adds	fp, fp, r4
 c106c8c:	e24aa001 	sub	sl, sl, #1
 c106c90:	2a000002 	bcs	c106ca0 <__divdi3+0x204>
 c106c94:	e153000b 	cmp	r3, fp
 c106c98:	824aa001 	subhi	sl, sl, #1
 c106c9c:	808bb004 	addhi	fp, fp, r4
 c106ca0:	e063b00b 	rsb	fp, r3, fp
 c106ca4:	e1a01008 	mov	r1, r8
 c106ca8:	e1a0000b 	mov	r0, fp
 c106cac:	ebfffeb3 	bl	c106780 <__aeabi_uidiv>
 c106cb0:	e1a01008 	mov	r1, r8
 c106cb4:	e1a06000 	mov	r6, r0
 c106cb8:	e1a0000b 	mov	r0, fp
 c106cbc:	ebfffeec 	bl	c106874 <__aeabi_uidivmod>
 c106cc0:	e0090996 	mul	r9, r6, r9
 c106cc4:	e1a00805 	lsl	r0, r5, #16
 c106cc8:	e1a05820 	lsr	r5, r0, #16
 c106ccc:	e1855801 	orr	r5, r5, r1, lsl #16
 c106cd0:	e1590005 	cmp	r9, r5
 c106cd4:	9a000004 	bls	c106cec <__divdi3+0x250>
 c106cd8:	e0955004 	adds	r5, r5, r4
 c106cdc:	e2466001 	sub	r6, r6, #1
 c106ce0:	2a000001 	bcs	c106cec <__divdi3+0x250>
 c106ce4:	e1590005 	cmp	r9, r5
 c106ce8:	82466001 	subhi	r6, r6, #1
 c106cec:	e186680a 	orr	r6, r6, sl, lsl #16
 c106cf0:	e59d9008 	ldr	r9, [sp, #8]
 c106cf4:	eaffffac 	b	c106bac <__divdi3+0x110>
 c106cf8:	e1e07007 	mvn	r7, r7
 c106cfc:	e2722000 	rsbs	r2, r2, #0
 c106d00:	e2e33000 	rsc	r3, r3, #0
 c106d04:	eaffff6c 	b	c106abc <__divdi3+0x20>
 c106d08:	e2700000 	rsbs	r0, r0, #0
 c106d0c:	e2e11000 	rsc	r1, r1, #0
 c106d10:	e3e07000 	mvn	r7, #0
 c106d14:	eaffff66 	b	c106ab4 <__divdi3+0x18>
 c106d18:	e2638020 	rsb	r8, r3, #32
 c106d1c:	e1a0b835 	lsr	fp, r5, r8
 c106d20:	e1a04314 	lsl	r4, r4, r3
 c106d24:	e1a0a836 	lsr	sl, r6, r8
 c106d28:	e18be316 	orr	lr, fp, r6, lsl r3
 c106d2c:	e1a08824 	lsr	r8, r4, #16
 c106d30:	e1a0c804 	lsl	ip, r4, #16
 c106d34:	e1a01008 	mov	r1, r8
 c106d38:	e1a0000a 	mov	r0, sl
 c106d3c:	e1a0982c 	lsr	r9, ip, #16
 c106d40:	e1a05315 	lsl	r5, r5, r3
 c106d44:	e58de008 	str	lr, [sp, #8]
 c106d48:	ebfffe8c 	bl	c106780 <__aeabi_uidiv>
 c106d4c:	e1a01008 	mov	r1, r8
 c106d50:	e1a0b000 	mov	fp, r0
 c106d54:	e1a0000a 	mov	r0, sl
 c106d58:	ebfffec5 	bl	c106874 <__aeabi_uidivmod>
 c106d5c:	e0030b99 	mul	r3, r9, fp
 c106d60:	e59d2008 	ldr	r2, [sp, #8]
 c106d64:	e1a06822 	lsr	r6, r2, #16
 c106d68:	e1866801 	orr	r6, r6, r1, lsl #16
 c106d6c:	e1530006 	cmp	r3, r6
 c106d70:	9a000002 	bls	c106d80 <__divdi3+0x2e4>
 c106d74:	e0966004 	adds	r6, r6, r4
 c106d78:	e24bb001 	sub	fp, fp, #1
 c106d7c:	3a00006c 	bcc	c106f34 <__divdi3+0x498>
 c106d80:	e0636006 	rsb	r6, r3, r6
 c106d84:	e1a01008 	mov	r1, r8
 c106d88:	e1a00006 	mov	r0, r6
 c106d8c:	ebfffe7b 	bl	c106780 <__aeabi_uidiv>
 c106d90:	e1a01008 	mov	r1, r8
 c106d94:	e1a0a000 	mov	sl, r0
 c106d98:	e1a00006 	mov	r0, r6
 c106d9c:	ebfffeb4 	bl	c106874 <__aeabi_uidivmod>
 c106da0:	e0030a99 	mul	r3, r9, sl
 c106da4:	e59d2008 	ldr	r2, [sp, #8]
 c106da8:	e1a06802 	lsl	r6, r2, #16
 c106dac:	e1a00826 	lsr	r0, r6, #16
 c106db0:	e1806801 	orr	r6, r0, r1, lsl #16
 c106db4:	e1530006 	cmp	r3, r6
 c106db8:	9a000005 	bls	c106dd4 <__divdi3+0x338>
 c106dbc:	e0966004 	adds	r6, r6, r4
 c106dc0:	e24aa001 	sub	sl, sl, #1
 c106dc4:	2a000002 	bcs	c106dd4 <__divdi3+0x338>
 c106dc8:	e1530006 	cmp	r3, r6
 c106dcc:	824aa001 	subhi	sl, sl, #1
 c106dd0:	80866004 	addhi	r6, r6, r4
 c106dd4:	e0636006 	rsb	r6, r3, r6
 c106dd8:	e18a380b 	orr	r3, sl, fp, lsl #16
 c106ddc:	e58d3008 	str	r3, [sp, #8]
 c106de0:	eaffff9c 	b	c106c58 <__divdi3+0x1bc>
 c106de4:	e2641020 	rsb	r1, r4, #32
 c106de8:	e1a00139 	lsr	r0, r9, r1
 c106dec:	e1a0213b 	lsr	r2, fp, r1
 c106df0:	e180a41a 	orr	sl, r0, sl, lsl r4
 c106df4:	e1a06138 	lsr	r6, r8, r1
 c106df8:	e1828418 	orr	r8, r2, r8, lsl r4
 c106dfc:	e1a0380a 	lsl	r3, sl, #16
 c106e00:	e1a0b82a 	lsr	fp, sl, #16
 c106e04:	e1a0e823 	lsr	lr, r3, #16
 c106e08:	e1a0100b 	mov	r1, fp
 c106e0c:	e1a00006 	mov	r0, r6
 c106e10:	e58d8008 	str	r8, [sp, #8]
 c106e14:	e58de00c 	str	lr, [sp, #12]
 c106e18:	ebfffe58 	bl	c106780 <__aeabi_uidiv>
 c106e1c:	e1a0100b 	mov	r1, fp
 c106e20:	e1a08000 	mov	r8, r0
 c106e24:	e1a00006 	mov	r0, r6
 c106e28:	ebfffe91 	bl	c106874 <__aeabi_uidivmod>
 c106e2c:	e59dc00c 	ldr	ip, [sp, #12]
 c106e30:	e002089c 	mul	r2, ip, r8
 c106e34:	e59d3008 	ldr	r3, [sp, #8]
 c106e38:	e1a06823 	lsr	r6, r3, #16
 c106e3c:	e1861801 	orr	r1, r6, r1, lsl #16
 c106e40:	e1520001 	cmp	r2, r1
 c106e44:	e1a03419 	lsl	r3, r9, r4
 c106e48:	9a000002 	bls	c106e58 <__divdi3+0x3bc>
 c106e4c:	e091100a 	adds	r1, r1, sl
 c106e50:	e2488001 	sub	r8, r8, #1
 c106e54:	3a000032 	bcc	c106f24 <__divdi3+0x488>
 c106e58:	e0629001 	rsb	r9, r2, r1
 c106e5c:	e1a00009 	mov	r0, r9
 c106e60:	e1a0100b 	mov	r1, fp
 c106e64:	e58d3004 	str	r3, [sp, #4]
 c106e68:	ebfffe44 	bl	c106780 <__aeabi_uidiv>
 c106e6c:	e1a0100b 	mov	r1, fp
 c106e70:	e1a06000 	mov	r6, r0
 c106e74:	e1a00009 	mov	r0, r9
 c106e78:	ebfffe7d 	bl	c106874 <__aeabi_uidivmod>
 c106e7c:	e59d000c 	ldr	r0, [sp, #12]
 c106e80:	e0020690 	mul	r2, r0, r6
 c106e84:	e59d3008 	ldr	r3, [sp, #8]
 c106e88:	e1a0c803 	lsl	ip, r3, #16
 c106e8c:	e1a0982c 	lsr	r9, ip, #16
 c106e90:	e1890801 	orr	r0, r9, r1, lsl #16
 c106e94:	e1520000 	cmp	r2, r0
 c106e98:	e59d3004 	ldr	r3, [sp, #4]
 c106e9c:	9a000002 	bls	c106eac <__divdi3+0x410>
 c106ea0:	e090000a 	adds	r0, r0, sl
 c106ea4:	e2466001 	sub	r6, r6, #1
 c106ea8:	3a000019 	bcc	c106f14 <__divdi3+0x478>
 c106eac:	e062e000 	rsb	lr, r2, r0
 c106eb0:	e1866808 	orr	r6, r6, r8, lsl #16
 c106eb4:	e1a02826 	lsr	r2, r6, #16
 c106eb8:	e1a01823 	lsr	r1, r3, #16
 c106ebc:	e1c6c802 	bic	ip, r6, r2, lsl #16
 c106ec0:	e1c39801 	bic	r9, r3, r1, lsl #16
 c106ec4:	e003099c 	mul	r3, ip, r9
 c106ec8:	e0090992 	mul	r9, r2, r9
 c106ecc:	e00c0c91 	mul	ip, r1, ip
 c106ed0:	e0010192 	mul	r1, r2, r1
 c106ed4:	e099c00c 	adds	ip, r9, ip
 c106ed8:	22811801 	addcs	r1, r1, #65536	; 0x10000
 c106edc:	e093380c 	adds	r3, r3, ip, lsl #16
 c106ee0:	e0a1182c 	adc	r1, r1, ip, lsr #16
 c106ee4:	e15e0001 	cmp	lr, r1
 c106ee8:	3a000006 	bcc	c106f08 <__divdi3+0x46c>
 c106eec:	13a02000 	movne	r2, #0
 c106ef0:	03a02001 	moveq	r2, #1
 c106ef4:	e1530415 	cmp	r3, r5, lsl r4
 c106ef8:	93a09000 	movls	r9, #0
 c106efc:	82029001 	andhi	r9, r2, #1
 c106f00:	e3590000 	cmp	r9, #0
 c106f04:	0affff28 	beq	c106bac <__divdi3+0x110>
 c106f08:	e2466001 	sub	r6, r6, #1
 c106f0c:	e3a09000 	mov	r9, #0
 c106f10:	eaffff25 	b	c106bac <__divdi3+0x110>
 c106f14:	e1520000 	cmp	r2, r0
 c106f18:	82466001 	subhi	r6, r6, #1
 c106f1c:	8080000a 	addhi	r0, r0, sl
 c106f20:	eaffffe1 	b	c106eac <__divdi3+0x410>
 c106f24:	e1520001 	cmp	r2, r1
 c106f28:	82488001 	subhi	r8, r8, #1
 c106f2c:	8081100a 	addhi	r1, r1, sl
 c106f30:	eaffffc8 	b	c106e58 <__divdi3+0x3bc>
 c106f34:	e1530006 	cmp	r3, r6
 c106f38:	824bb001 	subhi	fp, fp, #1
 c106f3c:	80866004 	addhi	r6, r6, r4
 c106f40:	eaffff8e 	b	c106d80 <__divdi3+0x2e4>

0c106f44 <__udivdi3>:
 c106f44:	e92d4ff0 	push	{r4, r5, r6, r7, r8, r9, sl, fp, lr}
 c106f48:	e2538000 	subs	r8, r3, #0
 c106f4c:	e24dd00c 	sub	sp, sp, #12
 c106f50:	e1a05000 	mov	r5, r0
 c106f54:	e1a04001 	mov	r4, r1
 c106f58:	e1a06002 	mov	r6, r2
 c106f5c:	e1a0a002 	mov	sl, r2
 c106f60:	e1a0b000 	mov	fp, r0
 c106f64:	e1a07001 	mov	r7, r1
 c106f68:	1a000037 	bne	c10704c <__udivdi3+0x108>
 c106f6c:	e1520001 	cmp	r2, r1
 c106f70:	9a000045 	bls	c10708c <__udivdi3+0x148>
 c106f74:	e1a00002 	mov	r0, r2
 c106f78:	eb0000fe 	bl	c107378 <__clzsi2>
 c106f7c:	e3500000 	cmp	r0, #0
 c106f80:	12603020 	rsbne	r3, r0, #32
 c106f84:	11a03335 	lsrne	r3, r5, r3
 c106f88:	11a0a016 	lslne	sl, r6, r0
 c106f8c:	11837014 	orrne	r7, r3, r4, lsl r0
 c106f90:	e1a0482a 	lsr	r4, sl, #16
 c106f94:	11a0b015 	lslne	fp, r5, r0
 c106f98:	e1a01004 	mov	r1, r4
 c106f9c:	e1a00007 	mov	r0, r7
 c106fa0:	ebfffdf6 	bl	c106780 <__aeabi_uidiv>
 c106fa4:	e1a01004 	mov	r1, r4
 c106fa8:	e1a08000 	mov	r8, r0
 c106fac:	e1a00007 	mov	r0, r7
 c106fb0:	ebfffe2f 	bl	c106874 <__aeabi_uidivmod>
 c106fb4:	e1a0680a 	lsl	r6, sl, #16
 c106fb8:	e1a06826 	lsr	r6, r6, #16
 c106fbc:	e0030896 	mul	r3, r6, r8
 c106fc0:	e1a0782b 	lsr	r7, fp, #16
 c106fc4:	e1877801 	orr	r7, r7, r1, lsl #16
 c106fc8:	e1530007 	cmp	r3, r7
 c106fcc:	9a000005 	bls	c106fe8 <__udivdi3+0xa4>
 c106fd0:	e097700a 	adds	r7, r7, sl
 c106fd4:	e2488001 	sub	r8, r8, #1
 c106fd8:	2a000002 	bcs	c106fe8 <__udivdi3+0xa4>
 c106fdc:	e1530007 	cmp	r3, r7
 c106fe0:	82488001 	subhi	r8, r8, #1
 c106fe4:	8087700a 	addhi	r7, r7, sl
 c106fe8:	e0637007 	rsb	r7, r3, r7
 c106fec:	e1a01004 	mov	r1, r4
 c106ff0:	e1a00007 	mov	r0, r7
 c106ff4:	ebfffde1 	bl	c106780 <__aeabi_uidiv>
 c106ff8:	e1a01004 	mov	r1, r4
 c106ffc:	e1a05000 	mov	r5, r0
 c107000:	e1a00007 	mov	r0, r7
 c107004:	ebfffe1a 	bl	c106874 <__aeabi_uidivmod>
 c107008:	e0060695 	mul	r6, r5, r6
 c10700c:	e1a0080b 	lsl	r0, fp, #16
 c107010:	e1a0b820 	lsr	fp, r0, #16
 c107014:	e18bb801 	orr	fp, fp, r1, lsl #16
 c107018:	e156000b 	cmp	r6, fp
 c10701c:	9a000004 	bls	c107034 <__udivdi3+0xf0>
 c107020:	e09bb00a 	adds	fp, fp, sl
 c107024:	e2455001 	sub	r5, r5, #1
 c107028:	2a000001 	bcs	c107034 <__udivdi3+0xf0>
 c10702c:	e156000b 	cmp	r6, fp
 c107030:	82455001 	subhi	r5, r5, #1
 c107034:	e1858808 	orr	r8, r5, r8, lsl #16
 c107038:	e3a01000 	mov	r1, #0
 c10703c:	e1a00008 	mov	r0, r8
 c107040:	e28dd00c 	add	sp, sp, #12
 c107044:	e8bd4ff0 	pop	{r4, r5, r6, r7, r8, r9, sl, fp, lr}
 c107048:	e12fff1e 	bx	lr
 c10704c:	e1580001 	cmp	r8, r1
 c107050:	83a01000 	movhi	r1, #0
 c107054:	81a08001 	movhi	r8, r1
 c107058:	8afffff7 	bhi	c10703c <__udivdi3+0xf8>
 c10705c:	e1a00008 	mov	r0, r8
 c107060:	eb0000c4 	bl	c107378 <__clzsi2>
 c107064:	e2507000 	subs	r7, r0, #0
 c107068:	1a00003e 	bne	c107168 <__udivdi3+0x224>
 c10706c:	e1580004 	cmp	r8, r4
 c107070:	21560005 	cmpcs	r6, r5
 c107074:	83a01000 	movhi	r1, #0
 c107078:	93a01001 	movls	r1, #1
 c10707c:	93a08001 	movls	r8, #1
 c107080:	91a01007 	movls	r1, r7
 c107084:	81a08001 	movhi	r8, r1
 c107088:	eaffffeb 	b	c10703c <__udivdi3+0xf8>
 c10708c:	e3520000 	cmp	r2, #0
 c107090:	1a000003 	bne	c1070a4 <__udivdi3+0x160>
 c107094:	e3a00001 	mov	r0, #1
 c107098:	e1a01002 	mov	r1, r2
 c10709c:	ebfffdb7 	bl	c106780 <__aeabi_uidiv>
 c1070a0:	e1a0a000 	mov	sl, r0
 c1070a4:	e1a0000a 	mov	r0, sl
 c1070a8:	eb0000b2 	bl	c107378 <__clzsi2>
 c1070ac:	e2503000 	subs	r3, r0, #0
 c1070b0:	1a000075 	bne	c10728c <__udivdi3+0x348>
 c1070b4:	e1a0180a 	lsl	r1, sl, #16
 c1070b8:	e06a4004 	rsb	r4, sl, r4
 c1070bc:	e1a0982a 	lsr	r9, sl, #16
 c1070c0:	e1a06821 	lsr	r6, r1, #16
 c1070c4:	e3a07001 	mov	r7, #1
 c1070c8:	e1a01009 	mov	r1, r9
 c1070cc:	e1a00004 	mov	r0, r4
 c1070d0:	ebfffdaa 	bl	c106780 <__aeabi_uidiv>
 c1070d4:	e1a01009 	mov	r1, r9
 c1070d8:	e1a05000 	mov	r5, r0
 c1070dc:	e1a00004 	mov	r0, r4
 c1070e0:	ebfffde3 	bl	c106874 <__aeabi_uidivmod>
 c1070e4:	e0030596 	mul	r3, r6, r5
 c1070e8:	e1a0282b 	lsr	r2, fp, #16
 c1070ec:	e1824801 	orr	r4, r2, r1, lsl #16
 c1070f0:	e1530004 	cmp	r3, r4
 c1070f4:	9a000005 	bls	c107110 <__udivdi3+0x1cc>
 c1070f8:	e094400a 	adds	r4, r4, sl
 c1070fc:	e2455001 	sub	r5, r5, #1
 c107100:	2a000002 	bcs	c107110 <__udivdi3+0x1cc>
 c107104:	e1530004 	cmp	r3, r4
 c107108:	82455001 	subhi	r5, r5, #1
 c10710c:	8084400a 	addhi	r4, r4, sl
 c107110:	e0634004 	rsb	r4, r3, r4
 c107114:	e1a01009 	mov	r1, r9
 c107118:	e1a00004 	mov	r0, r4
 c10711c:	ebfffd97 	bl	c106780 <__aeabi_uidiv>
 c107120:	e1a01009 	mov	r1, r9
 c107124:	e1a08000 	mov	r8, r0
 c107128:	e1a00004 	mov	r0, r4
 c10712c:	ebfffdd0 	bl	c106874 <__aeabi_uidivmod>
 c107130:	e0060698 	mul	r6, r8, r6
 c107134:	e1a0b80b 	lsl	fp, fp, #16
 c107138:	e1a0382b 	lsr	r3, fp, #16
 c10713c:	e183b801 	orr	fp, r3, r1, lsl #16
 c107140:	e156000b 	cmp	r6, fp
 c107144:	9a000004 	bls	c10715c <__udivdi3+0x218>
 c107148:	e09bb00a 	adds	fp, fp, sl
 c10714c:	e2488001 	sub	r8, r8, #1
 c107150:	2a000001 	bcs	c10715c <__udivdi3+0x218>
 c107154:	e156000b 	cmp	r6, fp
 c107158:	82488001 	subhi	r8, r8, #1
 c10715c:	e1888805 	orr	r8, r8, r5, lsl #16
 c107160:	e1a01007 	mov	r1, r7
 c107164:	eaffffb4 	b	c10703c <__udivdi3+0xf8>
 c107168:	e267a020 	rsb	sl, r7, #32
 c10716c:	e1a01a36 	lsr	r1, r6, sl
 c107170:	e1a02a35 	lsr	r2, r5, sl
 c107174:	e1818718 	orr	r8, r1, r8, lsl r7
 c107178:	e1a0ba34 	lsr	fp, r4, sl
 c10717c:	e1829714 	orr	r9, r2, r4, lsl r7
 c107180:	e1a0a828 	lsr	sl, r8, #16
 c107184:	e1a0e808 	lsl	lr, r8, #16
 c107188:	e1a0100a 	mov	r1, sl
 c10718c:	e1a0000b 	mov	r0, fp
 c107190:	e1a0482e 	lsr	r4, lr, #16
 c107194:	e58d9004 	str	r9, [sp, #4]
 c107198:	ebfffd78 	bl	c106780 <__aeabi_uidiv>
 c10719c:	e1a0100a 	mov	r1, sl
 c1071a0:	e1a09000 	mov	r9, r0
 c1071a4:	e1a0000b 	mov	r0, fp
 c1071a8:	ebfffdb1 	bl	c106874 <__aeabi_uidivmod>
 c1071ac:	e0020994 	mul	r2, r4, r9
 c1071b0:	e59d0004 	ldr	r0, [sp, #4]
 c1071b4:	e1a0c820 	lsr	ip, r0, #16
 c1071b8:	e18cb801 	orr	fp, ip, r1, lsl #16
 c1071bc:	e152000b 	cmp	r2, fp
 c1071c0:	e1a03716 	lsl	r3, r6, r7
 c1071c4:	9a000002 	bls	c1071d4 <__udivdi3+0x290>
 c1071c8:	e09bb008 	adds	fp, fp, r8
 c1071cc:	e2499001 	sub	r9, r9, #1
 c1071d0:	3a000060 	bcc	c107358 <__udivdi3+0x414>
 c1071d4:	e062b00b 	rsb	fp, r2, fp
 c1071d8:	e1a0100a 	mov	r1, sl
 c1071dc:	e1a0000b 	mov	r0, fp
 c1071e0:	e58d3000 	str	r3, [sp]
 c1071e4:	ebfffd65 	bl	c106780 <__aeabi_uidiv>
 c1071e8:	e1a0100a 	mov	r1, sl
 c1071ec:	e1a06000 	mov	r6, r0
 c1071f0:	e1a0000b 	mov	r0, fp
 c1071f4:	ebfffd9e 	bl	c106874 <__aeabi_uidivmod>
 c1071f8:	e0040496 	mul	r4, r6, r4
 c1071fc:	e59d0004 	ldr	r0, [sp, #4]
 c107200:	e1a0c800 	lsl	ip, r0, #16
 c107204:	e1a0382c 	lsr	r3, ip, #16
 c107208:	e1832801 	orr	r2, r3, r1, lsl #16
 c10720c:	e1540002 	cmp	r4, r2
 c107210:	e59d3000 	ldr	r3, [sp]
 c107214:	9a000002 	bls	c107224 <__udivdi3+0x2e0>
 c107218:	e0922008 	adds	r2, r2, r8
 c10721c:	e2466001 	sub	r6, r6, #1
 c107220:	3a000048 	bcc	c107348 <__udivdi3+0x404>
 c107224:	e0644002 	rsb	r4, r4, r2
 c107228:	e1868809 	orr	r8, r6, r9, lsl #16
 c10722c:	e1a02828 	lsr	r2, r8, #16
 c107230:	e1a0e823 	lsr	lr, r3, #16
 c107234:	e1c80802 	bic	r0, r8, r2, lsl #16
 c107238:	e1c3680e 	bic	r6, r3, lr, lsl #16
 c10723c:	e0030690 	mul	r3, r0, r6
 c107240:	e0060692 	mul	r6, r2, r6
 c107244:	e000009e 	mul	r0, lr, r0
 c107248:	e00e0e92 	mul	lr, r2, lr
 c10724c:	e0960000 	adds	r0, r6, r0
 c107250:	228ee801 	addcs	lr, lr, #65536	; 0x10000
 c107254:	e0933800 	adds	r3, r3, r0, lsl #16
 c107258:	e0aee820 	adc	lr, lr, r0, lsr #16
 c10725c:	e154000e 	cmp	r4, lr
 c107260:	3a000006 	bcc	c107280 <__udivdi3+0x33c>
 c107264:	13a02000 	movne	r2, #0
 c107268:	03a02001 	moveq	r2, #1
 c10726c:	e1530715 	cmp	r3, r5, lsl r7
 c107270:	93a01000 	movls	r1, #0
 c107274:	82021001 	andhi	r1, r2, #1
 c107278:	e3510000 	cmp	r1, #0
 c10727c:	0affff6e 	beq	c10703c <__udivdi3+0xf8>
 c107280:	e2488001 	sub	r8, r8, #1
 c107284:	e3a01000 	mov	r1, #0
 c107288:	eaffff6b 	b	c10703c <__udivdi3+0xf8>
 c10728c:	e2639020 	rsb	r9, r3, #32
 c107290:	e1a0a31a 	lsl	sl, sl, r3
 c107294:	e1a07934 	lsr	r7, r4, r9
 c107298:	e1a08935 	lsr	r8, r5, r9
 c10729c:	e1a0982a 	lsr	r9, sl, #16
 c1072a0:	e1a0280a 	lsl	r2, sl, #16
 c1072a4:	e1a01009 	mov	r1, r9
 c1072a8:	e1a00007 	mov	r0, r7
 c1072ac:	e1888314 	orr	r8, r8, r4, lsl r3
 c1072b0:	e1a0b315 	lsl	fp, r5, r3
 c1072b4:	e1a06822 	lsr	r6, r2, #16
 c1072b8:	ebfffd30 	bl	c106780 <__aeabi_uidiv>
 c1072bc:	e1a01009 	mov	r1, r9
 c1072c0:	e1a05000 	mov	r5, r0
 c1072c4:	e1a00007 	mov	r0, r7
 c1072c8:	ebfffd69 	bl	c106874 <__aeabi_uidivmod>
 c1072cc:	e0030596 	mul	r3, r6, r5
 c1072d0:	e1a04828 	lsr	r4, r8, #16
 c1072d4:	e1844801 	orr	r4, r4, r1, lsl #16
 c1072d8:	e1530004 	cmp	r3, r4
 c1072dc:	9a000002 	bls	c1072ec <__udivdi3+0x3a8>
 c1072e0:	e094400a 	adds	r4, r4, sl
 c1072e4:	e2455001 	sub	r5, r5, #1
 c1072e8:	3a00001e 	bcc	c107368 <__udivdi3+0x424>
 c1072ec:	e0634004 	rsb	r4, r3, r4
 c1072f0:	e1a01009 	mov	r1, r9
 c1072f4:	e1a00004 	mov	r0, r4
 c1072f8:	ebfffd20 	bl	c106780 <__aeabi_uidiv>
 c1072fc:	e1a01009 	mov	r1, r9
 c107300:	e1a07000 	mov	r7, r0
 c107304:	e1a00004 	mov	r0, r4
 c107308:	ebfffd59 	bl	c106874 <__aeabi_uidivmod>
 c10730c:	e0030796 	mul	r3, r6, r7
 c107310:	e1a00808 	lsl	r0, r8, #16
 c107314:	e1a0c820 	lsr	ip, r0, #16
 c107318:	e18c4801 	orr	r4, ip, r1, lsl #16
 c10731c:	e1530004 	cmp	r3, r4
 c107320:	9a000005 	bls	c10733c <__udivdi3+0x3f8>
 c107324:	e094400a 	adds	r4, r4, sl
 c107328:	e2477001 	sub	r7, r7, #1
 c10732c:	2a000002 	bcs	c10733c <__udivdi3+0x3f8>
 c107330:	e1530004 	cmp	r3, r4
 c107334:	82477001 	subhi	r7, r7, #1
 c107338:	8084400a 	addhi	r4, r4, sl
 c10733c:	e0634004 	rsb	r4, r3, r4
 c107340:	e1877805 	orr	r7, r7, r5, lsl #16
 c107344:	eaffff5f 	b	c1070c8 <__udivdi3+0x184>
 c107348:	e1540002 	cmp	r4, r2
 c10734c:	82466001 	subhi	r6, r6, #1
 c107350:	80822008 	addhi	r2, r2, r8
 c107354:	eaffffb2 	b	c107224 <__udivdi3+0x2e0>
 c107358:	e152000b 	cmp	r2, fp
 c10735c:	82499001 	subhi	r9, r9, #1
 c107360:	808bb008 	addhi	fp, fp, r8
 c107364:	eaffff9a 	b	c1071d4 <__udivdi3+0x290>
 c107368:	e1530004 	cmp	r3, r4
 c10736c:	82455001 	subhi	r5, r5, #1
 c107370:	8084400a 	addhi	r4, r4, sl
 c107374:	eaffffdc 	b	c1072ec <__udivdi3+0x3a8>

0c107378 <__clzsi2>:
 c107378:	e3a0101c 	mov	r1, #28
 c10737c:	e3500801 	cmp	r0, #65536	; 0x10000
 c107380:	21a00820 	lsrcs	r0, r0, #16
 c107384:	22411010 	subcs	r1, r1, #16
 c107388:	e3500c01 	cmp	r0, #256	; 0x100
 c10738c:	21a00420 	lsrcs	r0, r0, #8
 c107390:	22411008 	subcs	r1, r1, #8
 c107394:	e3500010 	cmp	r0, #16
 c107398:	21a00220 	lsrcs	r0, r0, #4
 c10739c:	22411004 	subcs	r1, r1, #4
 c1073a0:	e28f2008 	add	r2, pc, #8
 c1073a4:	e7d20000 	ldrb	r0, [r2, r0]
 c1073a8:	e0800001 	add	r0, r0, r1
 c1073ac:	e12fff1e 	bx	lr
 c1073b0:	02020304 	.word	0x02020304
 c1073b4:	01010101 	.word	0x01010101
	...
